---
triple:          'arm64-apple-darwin'
binary-path:     mission_rescue
relocations:
  - { offsetInCU: 0x47B5, offset: 0x47B5, size: 0x8, addend: 0x0, symName: __ZNSt3__124__put_character_sequenceB7v160006IcNS_11char_traitsIcEEEERNS_13basic_ostreamIT_T0_EES7_PKS4_m, symObjAddr: 0x2220, symBinAddr: 0x1000055DC, symSize: 0x1EC }
  - { offsetInCU: 0xBAFA, offset: 0xBAFA, size: 0x8, addend: 0x0, symName: __ZNSt3__14endlB7v160006IcNS_11char_traitsIcEEEERNS_13basic_ostreamIT_T0_EES7_, symObjAddr: 0x674, symBinAddr: 0x100003A30, symSize: 0x58 }
  - { offsetInCU: 0xC34D, offset: 0xC34D, size: 0x8, addend: 0x0, symName: __ZNSt3__1lsB7v160006IcNS_11char_traitsIcEENS_9allocatorIcEEEERNS_13basic_ostreamIT_T0_EES9_RKNS_12basic_stringIS6_S7_T1_EE, symObjAddr: 0xF94, symBinAddr: 0x100004350, symSize: 0x4C }
  - { offsetInCU: 0xC3A5, offset: 0xC3A5, size: 0x8, addend: 0x0, symName: __ZNSt3__1lsB7v160006INS_11char_traitsIcEEEERNS_13basic_ostreamIcT_EES6_PKc, symObjAddr: 0xFE0, symBinAddr: 0x10000439C, symSize: 0x48 }
  - { offsetInCU: 0xC3EB, offset: 0xC3EB, size: 0x8, addend: 0x0, symName: __ZNSt3__17getlineB7v160006IcNS_11char_traitsIcEENS_9allocatorIcEEEERNS_13basic_istreamIT_T0_EES9_RNS_12basic_stringIS6_S7_T1_EE, symObjAddr: 0x1028, symBinAddr: 0x1000043E4, symSize: 0x5C }
  - { offsetInCU: 0xC443, offset: 0xC443, size: 0x8, addend: 0x0, symName: __ZNSt3__17getlineB7v160006IcNS_11char_traitsIcEENS_9allocatorIcEEEERNS_13basic_istreamIT_T0_EES9_RNS_12basic_stringIS6_S7_T1_EES6_, symObjAddr: 0x1280, symBinAddr: 0x10000463C, symSize: 0x238 }
  - { offsetInCU: 0xC501, offset: 0xC501, size: 0x8, addend: 0x0, symName: __ZNSt3__12wsB7v160006IcNS_11char_traitsIcEEEERNS_13basic_istreamIT_T0_EES7_, symObjAddr: 0x15BC, symBinAddr: 0x100004978, symSize: 0x238 }
  - { offsetInCU: 0xC594, offset: 0xC594, size: 0x8, addend: 0x0, symName: __ZNSt3__112__to_addressB7v160006IKcEEPT_S3_, symObjAddr: 0x1B44, symBinAddr: 0x100004F00, symSize: 0x14 }
  - { offsetInCU: 0xC5FC, offset: 0xC5FC, size: 0x8, addend: 0x0, symName: __ZNSt3__119__debug_db_insert_cB7v160006INS_12basic_stringIcNS_11char_traitsIcEENS_9allocatorIcEEEEEEvPT_, symObjAddr: 0x1D50, symBinAddr: 0x10000510C, symSize: 0x10 }
  - { offsetInCU: 0xC62D, offset: 0xC62D, size: 0x8, addend: 0x0, symName: __ZNSt3__119__debug_db_insert_cB7v160006INS_6vectorI5PointNS_9allocatorIS2_EEEEEEvPT_, symObjAddr: 0x1FB8, symBinAddr: 0x100005374, symSize: 0x10 }
  - { offsetInCU: 0xC65E, offset: 0xC65E, size: 0x8, addend: 0x0, symName: __ZNSt3__119__debug_db_insert_cB7v160006INS_6vectorINS_12basic_stringIcNS_11char_traitsIcEENS_9allocatorIcEEEENS5_IS7_EEEEEEvPT_, symObjAddr: 0x2124, symBinAddr: 0x1000054E0, symSize: 0x10 }
  - { offsetInCU: 0xC68F, offset: 0xC68F, size: 0x8, addend: 0x0, symName: __ZNSt3__116__pad_and_outputB7v160006IcNS_11char_traitsIcEEEENS_19ostreambuf_iteratorIT_T0_EES6_PKS4_S8_S8_RNS_8ios_baseES4_, symObjAddr: 0x247C, symBinAddr: 0x100005838, symSize: 0x240 }
  - { offsetInCU: 0xC75E, offset: 0xC75E, size: 0x8, addend: 0x0, symName: __ZNSt3__19use_facetB7v160006INS_5ctypeIcEEEERKT_RKNS_6localeE, symObjAddr: 0x29DC, symBinAddr: 0x100005D98, symSize: 0x2C }
  - { offsetInCU: 0xCB3E, offset: 0xCB3E, size: 0x8, addend: 0x0, symName: __ZNSt3__118__constexpr_strlenB7v160006EPKc, symObjAddr: 0x2AD0, symBinAddr: 0x100005E8C, symSize: 0x24 }
  - { offsetInCU: 0xCB9D, offset: 0xCB9D, size: 0x8, addend: 0x0, symName: __ZNSt3__110__str_findB7v160006IcmNS_11char_traitsIcEELm18446744073709551615EEET0_PKT_S3_S6_S3_S3_, symObjAddr: 0x2BFC, symBinAddr: 0x100005FB8, symSize: 0xE4 }
  - { offsetInCU: 0xCC44, offset: 0xCC44, size: 0x8, addend: 0x0, symName: __ZNSt3__118__search_substringB7v160006IcNS_11char_traitsIcEEEEPKT_S5_S5_S5_S5_, symObjAddr: 0x2CE0, symBinAddr: 0x10000609C, symSize: 0x154 }
  - { offsetInCU: 0xCCDE, offset: 0xCCDE, size: 0x8, addend: 0x0, symName: __ZNSt3__123__constexpr_char_memchrB7v160006EPKcim, symObjAddr: 0x2F10, symBinAddr: 0x1000062CC, symSize: 0x34 }
  - { offsetInCU: 0xCD26, offset: 0xCD26, size: 0x8, addend: 0x0, symName: __ZNSt3__118__constexpr_memcmpB7v160006IcEEiPKT_S3_m, symObjAddr: 0x2F44, symBinAddr: 0x100006300, symSize: 0x34 }
  - { offsetInCU: 0xCD77, offset: 0xCD77, size: 0x8, addend: 0x0, symName: __ZNSt3__125__debug_db_invalidate_allB7v160006INS_12basic_stringIcNS_11char_traitsIcEENS_9allocatorIcEEEEEEvPT_, symObjAddr: 0x3490, symBinAddr: 0x10000684C, symSize: 0x10 }
  - { offsetInCU: 0xCFAA, offset: 0xCFAA, size: 0x8, addend: 0x0, symName: __ZNSt3__112__to_addressB7v160006INS_12basic_stringIcNS_11char_traitsIcEENS_9allocatorIcEEEEEEPT_S8_, symObjAddr: 0x3854, symBinAddr: 0x100006C10, symSize: 0x14 }
  - { offsetInCU: 0xCFDF, offset: 0xCFDF, size: 0x8, addend: 0x0, symName: __ZNSt3__13maxB7v160006ImEERKT_S3_S3_, symObjAddr: 0x3C88, symBinAddr: 0x100007044, symSize: 0x2C }
  - { offsetInCU: 0xD022, offset: 0xD022, size: 0x8, addend: 0x0, symName: __ZNSt3__13minB7v160006ImEERKT_S3_S3_, symObjAddr: 0x3CB4, symBinAddr: 0x100007070, symSize: 0x2C }
  - { offsetInCU: 0xD266, offset: 0xD266, size: 0x8, addend: 0x0, symName: __ZNSt3__13minB7v160006ImNS_6__lessImmEEEERKT_S5_S5_T0_, symObjAddr: 0x3D40, symBinAddr: 0x1000070FC, symSize: 0x54 }
  - { offsetInCU: 0xD2FB, offset: 0xD2FB, size: 0x8, addend: 0x0, symName: __ZNSt3__120__throw_length_errorB7v160006EPKc, symObjAddr: 0x3E20, symBinAddr: 0x1000071DC, symSize: 0x64 }
  - { offsetInCU: 0xD323, offset: 0xD323, size: 0x8, addend: 0x0, symName: __ZNSt3__13maxB7v160006ImNS_6__lessImmEEEERKT_S5_S5_T0_, symObjAddr: 0x3F64, symBinAddr: 0x100007320, symSize: 0x54 }
  - { offsetInCU: 0xD37D, offset: 0xD37D, size: 0x8, addend: 0x0, symName: __ZNSt3__119__allocate_at_leastB7v160006INS_9allocatorINS_12basic_stringIcNS_11char_traitsIcEENS1_IcEEEEEEEENS_19__allocation_resultINS_16allocator_traitsIT_E7pointerEEERSA_m, symObjAddr: 0x40D4, symBinAddr: 0x100007490, symSize: 0x40 }
  - { offsetInCU: 0xD3C0, offset: 0xD3C0, size: 0x8, addend: 0x0, symName: __ZNSt3__117__libcpp_allocateB7v160006Emm, symObjAddr: 0x425C, symBinAddr: 0x100007618, symSize: 0x28 }
  - { offsetInCU: 0xD3FD, offset: 0xD3FD, size: 0x8, addend: 0x0, symName: __ZNSt3__121__libcpp_operator_newB7v160006IJmEEEPvDpT_, symObjAddr: 0x4284, symBinAddr: 0x100007640, symSize: 0x24 }
  - { offsetInCU: 0xD436, offset: 0xD436, size: 0x8, addend: 0x0, symName: __ZNSt3__142__uninitialized_allocator_move_if_noexceptB7v160006INS_9allocatorINS_12basic_stringIcNS_11char_traitsIcEENS1_IcEEEEEENS_16reverse_iteratorIPS6_EESA_SA_EET2_RT_T0_T1_SB_, symObjAddr: 0x43E0, symBinAddr: 0x10000779C, symSize: 0x12C }
  - { offsetInCU: 0xD4D6, offset: 0xD4D6, size: 0x8, addend: 0x0, symName: __ZNSt3__14swapB7v160006IPNS_12basic_stringIcNS_11char_traitsIcEENS_9allocatorIcEEEEEENS_9enable_ifIXaasr21is_move_constructibleIT_EE5valuesr18is_move_assignableIS9_EE5valueEvE4typeERS9_SC_, symObjAddr: 0x4558, symBinAddr: 0x100007914, symSize: 0x3C }
  - { offsetInCU: 0xD527, offset: 0xD527, size: 0x8, addend: 0x0, symName: __ZNSt3__125__debug_db_invalidate_allB7v160006INS_6vectorINS_12basic_stringIcNS_11char_traitsIcEENS_9allocatorIcEEEENS5_IS7_EEEEEEvPT_, symObjAddr: 0x465C, symBinAddr: 0x100007A18, symSize: 0x10 }
  - { offsetInCU: 0xD558, offset: 0xD558, size: 0x8, addend: 0x0, symName: __ZNSt3__122__make_exception_guardB7v160006INS_29_AllocatorDestroyRangeReverseINS_9allocatorINS_12basic_stringIcNS_11char_traitsIcEENS2_IcEEEEEENS_16reverse_iteratorIPS7_EEEEEENS_28__exception_guard_exceptionsIT_EESE_, symObjAddr: 0x46B4, symBinAddr: 0x100007A70, symSize: 0x4C }
  - { offsetInCU: 0xD58E, offset: 0xD58E, size: 0x8, addend: 0x0, symName: __ZNSt3__1neB7v160006IPNS_12basic_stringIcNS_11char_traitsIcEENS_9allocatorIcEEEES7_EEbRKNS_16reverse_iteratorIT_EERKNS8_IT0_EE, symObjAddr: 0x4744, symBinAddr: 0x100007B00, symSize: 0x48 }
  - { offsetInCU: 0xD5DA, offset: 0xD5DA, size: 0x8, addend: 0x0, symName: __ZNSt3__112__to_addressB7v160006INS_16reverse_iteratorIPNS_12basic_stringIcNS_11char_traitsIcEENS_9allocatorIcEEEEEEvEENS_5decayIDTclsr19__to_address_helperIT_EE6__callclsr3stdE7declvalIRKSB_EEEEE4typeESD_, symObjAddr: 0x47C0, symBinAddr: 0x100007B7C, symSize: 0x24 }
  - { offsetInCU: 0xD610, offset: 0xD610, size: 0x8, addend: 0x0, symName: __ZNSt3__115__debug_db_swapB7v160006INS_12basic_stringIcNS_11char_traitsIcEENS_9allocatorIcEEEEEEvPT_S8_, symObjAddr: 0x49F4, symBinAddr: 0x100007DB0, symSize: 0x14 }
  - { offsetInCU: 0xD678, offset: 0xD678, size: 0x8, addend: 0x0, symName: __ZNSt3__119__allocator_destroyB7v160006INS_9allocatorINS_12basic_stringIcNS_11char_traitsIcEENS1_IcEEEEEENS_16reverse_iteratorINS8_IPS6_EEEESB_EEvRT_T0_T1_, symObjAddr: 0x4B68, symBinAddr: 0x100007F24, symSize: 0x70 }
  - { offsetInCU: 0xD6DD, offset: 0xD6DD, size: 0x8, addend: 0x0, symName: __ZNSt3__1neB7v160006INS_16reverse_iteratorIPNS_12basic_stringIcNS_11char_traitsIcEENS_9allocatorIcEEEEEES9_EEbRKNS1_IT_EERKNS1_IT0_EE, symObjAddr: 0x4C14, symBinAddr: 0x100007FD0, symSize: 0x60 }
  - { offsetInCU: 0xD729, offset: 0xD729, size: 0x8, addend: 0x0, symName: __ZNSt3__112__to_addressB7v160006INS_16reverse_iteratorINS1_IPNS_12basic_stringIcNS_11char_traitsIcEENS_9allocatorIcEEEEEEEEvEENS_5decayIDTclsr19__to_address_helperIT_EE6__callclsr3stdE7declvalIRKSC_EEEEE4typeESE_, symObjAddr: 0x4CA0, symBinAddr: 0x10000805C, symSize: 0x24 }
  - { offsetInCU: 0xD788, offset: 0xD788, size: 0x8, addend: 0x0, symName: __ZNSt3__119__libcpp_deallocateB7v160006EPvmm, symObjAddr: 0x505C, symBinAddr: 0x100008418, symSize: 0x30 }
  - { offsetInCU: 0xD7D0, offset: 0xD7D0, size: 0x8, addend: 0x0, symName: __ZNSt3__127__do_deallocate_handle_sizeB7v160006IJEEEvPvmDpT_, symObjAddr: 0x508C, symBinAddr: 0x100008448, symSize: 0x28 }
  - { offsetInCU: 0xD80E, offset: 0xD80E, size: 0x8, addend: 0x0, symName: __ZNSt3__124__libcpp_operator_deleteB7v160006IJPvEEEvDpT_, symObjAddr: 0x50B4, symBinAddr: 0x100008470, symSize: 0x24 }
  - { offsetInCU: 0xD843, offset: 0xD843, size: 0x8, addend: 0x0, symName: __ZNSt3__119__debug_db_insert_cB7v160006INS_6vectorIdNS_9allocatorIdEEEEEEvPT_, symObjAddr: 0x52B8, symBinAddr: 0x100008674, symSize: 0x10 }
  - { offsetInCU: 0xD874, offset: 0xD874, size: 0x8, addend: 0x0, symName: __ZNSt3__112__to_addressB7v160006IdEEPT_S2_, symObjAddr: 0x5700, symBinAddr: 0x100008ABC, symSize: 0x14 }
  - { offsetInCU: 0xD8A9, offset: 0xD8A9, size: 0x8, addend: 0x0, symName: __ZNSt3__119__allocate_at_leastB7v160006INS_9allocatorIdEEEENS_19__allocation_resultINS_16allocator_traitsIT_E7pointerEEERS5_m, symObjAddr: 0x5D2C, symBinAddr: 0x1000090E8, symSize: 0x40 }
  - { offsetInCU: 0xD8EC, offset: 0xD8EC, size: 0x8, addend: 0x0, symName: __ZNSt3__142__uninitialized_allocator_move_if_noexceptB7v160006INS_9allocatorIdEENS_16reverse_iteratorIPdEES5_dvEET1_RT_T0_S9_S6_, symObjAddr: 0x5F98, symBinAddr: 0x100009354, symSize: 0x78 }
  - { offsetInCU: 0xD969, offset: 0xD969, size: 0x8, addend: 0x0, symName: __ZNSt3__14swapB7v160006IPdEENS_9enable_ifIXaasr21is_move_constructibleIT_EE5valuesr18is_move_assignableIS3_EE5valueEvE4typeERS3_S6_, symObjAddr: 0x605C, symBinAddr: 0x100009418, symSize: 0x3C }
  - { offsetInCU: 0xD9BA, offset: 0xD9BA, size: 0x8, addend: 0x0, symName: __ZNSt3__125__debug_db_invalidate_allB7v160006INS_6vectorIdNS_9allocatorIdEEEEEEvPT_, symObjAddr: 0x6144, symBinAddr: 0x100009500, symSize: 0x10 }
  - { offsetInCU: 0xD9EB, offset: 0xD9EB, size: 0x8, addend: 0x0, symName: __ZNSt3__14moveB7v160006INS_16reverse_iteratorIPdEES3_EET0_T_S5_S4_, symObjAddr: 0x619C, symBinAddr: 0x100009558, symSize: 0x78 }
  - { offsetInCU: 0xDA45, offset: 0xDA45, size: 0x8, addend: 0x0, symName: __ZNSt3__16__moveB7v160006INS_17_ClassicAlgPolicyENS_16reverse_iteratorIPdEES4_S4_EENS_4pairIT0_T2_EES6_T1_S7_, symObjAddr: 0x6214, symBinAddr: 0x1000095D0, symSize: 0x64 }
  - { offsetInCU: 0xDAB1, offset: 0xDAB1, size: 0x8, addend: 0x0, symName: __ZNSt3__123__dispatch_copy_or_moveB7v160006INS_17_ClassicAlgPolicyENS_11__move_loopIS1_EENS_14__move_trivialENS_16reverse_iteratorIPdEES7_S7_EENS_4pairIT2_T4_EES9_T3_SA_, symObjAddr: 0x6278, symBinAddr: 0x100009634, symSize: 0x64 }
  - { offsetInCU: 0xDB2F, offset: 0xDB2F, size: 0x8, addend: 0x0, symName: __ZNSt3__121__unwrap_and_dispatchB7v160006INS_10__overloadINS_11__move_loopINS_17_ClassicAlgPolicyEEENS_14__move_trivialEEENS_16reverse_iteratorIPdEES9_S9_Li0EEENS_4pairIT0_T2_EESB_T1_SC_, symObjAddr: 0x62DC, symBinAddr: 0x100009698, symSize: 0x12C }
  - { offsetInCU: 0xDBBF, offset: 0xDBBF, size: 0x8, addend: 0x0, symName: __ZNSt3__114__unwrap_rangeB7v160006INS_16reverse_iteratorIPdEES3_EENS_4pairIT0_S5_EET_S7_, symObjAddr: 0x6408, symBinAddr: 0x1000097C4, symSize: 0x84 }
  - { offsetInCU: 0xDD3A, offset: 0xDD3A, size: 0x8, addend: 0x0, symName: __ZNSt3__113__unwrap_iterB7v160006INS_16reverse_iteratorIPdEENS_18__unwrap_iter_implIS3_Lb0EEELi0EEEDTclsrT0_8__unwrapclsr3stdE7declvalIT_EEEES7_, symObjAddr: 0x652C, symBinAddr: 0x1000098E8, symSize: 0x44 }
  - { offsetInCU: 0xDD7E, offset: 0xDD7E, size: 0x8, addend: 0x0, symName: __ZNSt3__19make_pairB7v160006INS_16reverse_iteratorIPdEES3_EENS_4pairINS_18__unwrap_ref_decayIT_E4typeENS5_IT0_E4typeEEEOS6_OS9_, symObjAddr: 0x6570, symBinAddr: 0x10000992C, symSize: 0x38 }
  - { offsetInCU: 0xDDCD, offset: 0xDDCD, size: 0x8, addend: 0x0, symName: __ZNSt3__114__rewrap_rangeB7v160006INS_16reverse_iteratorIPdEES3_EET_S4_T0_, symObjAddr: 0x65A8, symBinAddr: 0x100009964, symSize: 0x5C }
  - { offsetInCU: 0xDE19, offset: 0xDE19, size: 0x8, addend: 0x0, symName: __ZNSt3__113__rewrap_iterB7v160006INS_16reverse_iteratorIPdEES3_NS_18__unwrap_iter_implIS3_Lb0EEEEET_S6_T0_, symObjAddr: 0x6604, symBinAddr: 0x1000099C0, symSize: 0x74 }
  - { offsetInCU: 0xDE6E, offset: 0xDE6E, size: 0x8, addend: 0x0, symName: __ZNSt3__1neB7v160006IPdS1_EEbRKNS_16reverse_iteratorIT_EERKNS2_IT0_EE, symObjAddr: 0x6678, symBinAddr: 0x100009A34, symSize: 0x48 }
  - { offsetInCU: 0xDF6C, offset: 0xDF6C, size: 0x8, addend: 0x0, symName: __ZNSt3__112__to_addressB7v160006I5PointEEPT_S3_, symObjAddr: 0x6D34, symBinAddr: 0x10000A0F0, symSize: 0x14 }
  - { offsetInCU: 0xDFA1, offset: 0xDFA1, size: 0x8, addend: 0x0, symName: __ZNSt3__119__allocate_at_leastB7v160006INS_9allocatorI5PointEEEENS_19__allocation_resultINS_16allocator_traitsIT_E7pointerEEERS6_m, symObjAddr: 0x7388, symBinAddr: 0x10000A744, symSize: 0x40 }
  - { offsetInCU: 0xDFE4, offset: 0xDFE4, size: 0x8, addend: 0x0, symName: __ZNSt3__142__uninitialized_allocator_move_if_noexceptB7v160006INS_9allocatorI5PointEENS_16reverse_iteratorIPS2_EES6_S6_EET2_RT_T0_T1_S7_, symObjAddr: 0x7614, symBinAddr: 0x10000A9D0, symSize: 0x12C }
  - { offsetInCU: 0xE084, offset: 0xE084, size: 0x8, addend: 0x0, symName: __ZNSt3__14swapB7v160006IP5PointEENS_9enable_ifIXaasr21is_move_constructibleIT_EE5valuesr18is_move_assignableIS4_EE5valueEvE4typeERS4_S7_, symObjAddr: 0x778C, symBinAddr: 0x10000AB48, symSize: 0x3C }
  - { offsetInCU: 0xE0D5, offset: 0xE0D5, size: 0x8, addend: 0x0, symName: __ZNSt3__125__debug_db_invalidate_allB7v160006INS_6vectorI5PointNS_9allocatorIS2_EEEEEEvPT_, symObjAddr: 0x7890, symBinAddr: 0x10000AC4C, symSize: 0x10 }
  - { offsetInCU: 0xE106, offset: 0xE106, size: 0x8, addend: 0x0, symName: __ZNSt3__122__make_exception_guardB7v160006INS_29_AllocatorDestroyRangeReverseINS_9allocatorI5PointEENS_16reverse_iteratorIPS3_EEEEEENS_28__exception_guard_exceptionsIT_EESA_, symObjAddr: 0x78E8, symBinAddr: 0x10000ACA4, symSize: 0x4C }
  - { offsetInCU: 0xE13C, offset: 0xE13C, size: 0x8, addend: 0x0, symName: __ZNSt3__1neB7v160006IP5PointS2_EEbRKNS_16reverse_iteratorIT_EERKNS3_IT0_EE, symObjAddr: 0x7978, symBinAddr: 0x10000AD34, symSize: 0x48 }
  - { offsetInCU: 0xE188, offset: 0xE188, size: 0x8, addend: 0x0, symName: __ZNSt3__112__to_addressB7v160006INS_16reverse_iteratorIP5PointEEvEENS_5decayIDTclsr19__to_address_helperIT_EE6__callclsr3stdE7declvalIRKS6_EEEEE4typeES8_, symObjAddr: 0x79F4, symBinAddr: 0x10000ADB0, symSize: 0x24 }
  - { offsetInCU: 0xE1BE, offset: 0xE1BE, size: 0x8, addend: 0x0, symName: __ZNSt3__115__debug_db_swapB7v160006INS_6vectorIdNS_9allocatorIdEEEEEEvPT_S6_, symObjAddr: 0x7D3C, symBinAddr: 0x10000B0F8, symSize: 0x14 }
  - { offsetInCU: 0xE226, offset: 0xE226, size: 0x8, addend: 0x0, symName: __ZNSt3__119__allocator_destroyB7v160006INS_9allocatorI5PointEENS_16reverse_iteratorINS4_IPS2_EEEES7_EEvRT_T0_T1_, symObjAddr: 0x7F0C, symBinAddr: 0x10000B2C8, symSize: 0x70 }
  - { offsetInCU: 0xE28B, offset: 0xE28B, size: 0x8, addend: 0x0, symName: __ZNSt3__1neB7v160006INS_16reverse_iteratorIP5PointEES4_EEbRKNS1_IT_EERKNS1_IT0_EE, symObjAddr: 0x7FB8, symBinAddr: 0x10000B374, symSize: 0x60 }
  - { offsetInCU: 0xE2D7, offset: 0xE2D7, size: 0x8, addend: 0x0, symName: __ZNSt3__112__to_addressB7v160006INS_16reverse_iteratorINS1_IP5PointEEEEvEENS_5decayIDTclsr19__to_address_helperIT_EE6__callclsr3stdE7declvalIRKS7_EEEEE4typeES9_, symObjAddr: 0x8044, symBinAddr: 0x10000B400, symSize: 0x24 }
  - { offsetInCU: 0xE336, offset: 0xE336, size: 0x8, addend: 0x0, symName: __ZNSt3__122__make_exception_guardB7v160006INS_6vectorIdNS_9allocatorIdEEE16__destroy_vectorEEENS_28__exception_guard_exceptionsIT_EES7_, symObjAddr: 0x869C, symBinAddr: 0x10000BA58, symSize: 0x40 }
  - { offsetInCU: 0xE36B, offset: 0xE36B, size: 0x8, addend: 0x0, symName: __ZNSt3__130__uninitialized_allocator_copyB7v160006INS_9allocatorIdEEPdS3_S3_EET2_RT_T0_T1_S4_, symObjAddr: 0x8908, symBinAddr: 0x10000BCC4, symSize: 0xF4 }
  - { offsetInCU: 0xE409, offset: 0xE409, size: 0x8, addend: 0x0, symName: __ZNSt3__122__make_exception_guardB7v160006INS_29_AllocatorDestroyRangeReverseINS_9allocatorIdEEPdEEEENS_28__exception_guard_exceptionsIT_EES7_, symObjAddr: 0x89FC, symBinAddr: 0x10000BDB8, symSize: 0x4C }
  - { offsetInCU: 0xE43F, offset: 0xE43F, size: 0x8, addend: 0x0, symName: __ZNSt3__119__allocator_destroyB7v160006INS_9allocatorIdEENS_16reverse_iteratorIPdEES5_EEvRT_T0_T1_, symObjAddr: 0x8C84, symBinAddr: 0x10000C040, symSize: 0x70 }
  - { offsetInCU: 0xE4A2, offset: 0xE4A2, size: 0x8, addend: 0x0, symName: __ZNSt3__112__to_addressB7v160006INS_16reverse_iteratorIPdEEvEENS_5decayIDTclsr19__to_address_helperIT_EE6__callclsr3stdE7declvalIRKS5_EEEEE4typeES7_, symObjAddr: 0x8CF4, symBinAddr: 0x10000C0B0, symSize: 0x24 }
  - { offsetInCU: 0xE501, offset: 0xE501, size: 0x8, addend: 0x0, symName: __ZNSt3__118__debug_db_erase_cB7v160006INS_6vectorIdNS_9allocatorIdEEEEEEvPT_, symObjAddr: 0x8E60, symBinAddr: 0x10000C21C, symSize: 0x10 }
  - { offsetInCU: 0xE532, offset: 0xE532, size: 0x8, addend: 0x0, symName: __ZNSt3__118__debug_db_erase_cB7v160006INS_6vectorINS_12basic_stringIcNS_11char_traitsIcEENS_9allocatorIcEEEENS5_IS7_EEEEEEvPT_, symObjAddr: 0x914C, symBinAddr: 0x10000C508, symSize: 0x10 }
  - { offsetInCU: 0xE563, offset: 0xE563, size: 0x8, addend: 0x0, symName: __ZNSt3__118__debug_db_erase_cB7v160006INS_6vectorI5PointNS_9allocatorIS2_EEEEEEvPT_, symObjAddr: 0x9344, symBinAddr: 0x10000C700, symSize: 0x10 }
  - { offsetInCU: 0xE594, offset: 0xE594, size: 0x8, addend: 0x0, symName: __ZNSt3__118__debug_db_erase_cB7v160006INS_6vectorIP6SectorNS_9allocatorIS3_EEEEEEvPT_, symObjAddr: 0x9698, symBinAddr: 0x10000CA54, symSize: 0x10 }
  - { offsetInCU: 0xE5C5, offset: 0xE5C5, size: 0x8, addend: 0x0, symName: __ZNSt3__112__to_addressB7v160006IP6SectorEEPT_S4_, symObjAddr: 0x97DC, symBinAddr: 0x10000CB98, symSize: 0x14 }
  - { offsetInCU: 0xE5FA, offset: 0xE5FA, size: 0x8, addend: 0x0, symName: __ZNSt3__115__debug_db_swapB7v160006INS_6vectorIP6SectorNS_9allocatorIS3_EEEEEEvPT_S8_, symObjAddr: 0x9B20, symBinAddr: 0x10000CEDC, symSize: 0x14 }
  - { offsetInCU: 0xE639, offset: 0xE639, size: 0x8, addend: 0x0, symName: __ZNSt3__125__debug_db_invalidate_allB7v160006INS_6vectorIP6SectorNS_9allocatorIS3_EEEEEEvPT_, symObjAddr: 0x9C3C, symBinAddr: 0x10000CFF8, symSize: 0x10 }
  - { offsetInCU: 0xE66A, offset: 0xE66A, size: 0x8, addend: 0x0, symName: __ZNSt3__130__uninitialized_allocator_copyB7v160006INS_9allocatorIdEEddLPv0EEEPT0_RT_PKS4_S9_S5_, symObjAddr: 0x9EC0, symBinAddr: 0x10000D27C, symSize: 0x38 }
  - { offsetInCU: 0xE6E2, offset: 0xE6E2, size: 0x8, addend: 0x0, symName: __ZNSt3__14copyB7v160006IPKdPdEET0_T_S5_S4_, symObjAddr: 0x9EF8, symBinAddr: 0x10000D2B4, symSize: 0x40 }
  - { offsetInCU: 0xE73C, offset: 0xE73C, size: 0x8, addend: 0x0, symName: __ZNSt3__16__copyB7v160006INS_17_ClassicAlgPolicyEPKdS3_PdEENS_4pairIT0_T2_EES6_T1_S7_, symObjAddr: 0x9F38, symBinAddr: 0x10000D2F4, symSize: 0x44 }
  - { offsetInCU: 0xE7A8, offset: 0xE7A8, size: 0x8, addend: 0x0, symName: __ZNSt3__123__dispatch_copy_or_moveB7v160006INS_17_ClassicAlgPolicyENS_11__copy_loopIS1_EENS_14__copy_trivialEPKdS6_PdEENS_4pairIT2_T4_EES9_T3_SA_, symObjAddr: 0x9F7C, symBinAddr: 0x10000D338, symSize: 0x44 }
  - { offsetInCU: 0xE826, offset: 0xE826, size: 0x8, addend: 0x0, symName: __ZNSt3__121__unwrap_and_dispatchB7v160006INS_10__overloadINS_11__copy_loopINS_17_ClassicAlgPolicyEEENS_14__copy_trivialEEEPKdS8_PdLi0EEENS_4pairIT0_T2_EESB_T1_SC_, symObjAddr: 0x9FC0, symBinAddr: 0x10000D37C, symSize: 0xB4 }
  - { offsetInCU: 0xE8B4, offset: 0xE8B4, size: 0x8, addend: 0x0, symName: __ZNSt3__114__unwrap_rangeB7v160006IPKdS2_EENS_4pairIT0_S4_EET_S6_, symObjAddr: 0xA074, symBinAddr: 0x10000D430, symSize: 0x60 }
  - { offsetInCU: 0xEA49, offset: 0xEA49, size: 0x8, addend: 0x0, symName: __ZNSt3__113__unwrap_iterB7v160006IPdNS_18__unwrap_iter_implIS1_Lb1EEELi0EEEDTclsrT0_8__unwrapclsr3stdE7declvalIT_EEEES5_, symObjAddr: 0xA11C, symBinAddr: 0x10000D4D8, symSize: 0x24 }
  - { offsetInCU: 0xEA8D, offset: 0xEA8D, size: 0x8, addend: 0x0, symName: __ZNSt3__19make_pairB7v160006IPKdPdEENS_4pairINS_18__unwrap_ref_decayIT_E4typeENS5_IT0_E4typeEEEOS6_OS9_, symObjAddr: 0xA140, symBinAddr: 0x10000D4FC, symSize: 0x38 }
  - { offsetInCU: 0xEADC, offset: 0xEADC, size: 0x8, addend: 0x0, symName: __ZNSt3__114__rewrap_rangeB7v160006IPKdS2_EET_S3_T0_, symObjAddr: 0xA178, symBinAddr: 0x10000D534, symSize: 0x2C }
  - { offsetInCU: 0xEB28, offset: 0xEB28, size: 0x8, addend: 0x0, symName: __ZNSt3__113__rewrap_iterB7v160006IPdS1_NS_18__unwrap_iter_implIS1_Lb1EEEEET_S4_T0_, symObjAddr: 0xA1A4, symBinAddr: 0x10000D560, symSize: 0x3C }
  - { offsetInCU: 0xEB7D, offset: 0xEB7D, size: 0x8, addend: 0x0, symName: __ZNSt3__19make_pairB7v160006IPKdS2_EENS_4pairINS_18__unwrap_ref_decayIT_E4typeENS4_IT0_E4typeEEEOS5_OS8_, symObjAddr: 0xA1E0, symBinAddr: 0x10000D59C, symSize: 0x38 }
  - { offsetInCU: 0xEBCC, offset: 0xEBCC, size: 0x8, addend: 0x0, symName: __ZNSt3__113__unwrap_iterB7v160006IPKdNS_18__unwrap_iter_implIS2_Lb1EEELi0EEEDTclsrT0_8__unwrapclsr3stdE7declvalIT_EEEES6_, symObjAddr: 0xA218, symBinAddr: 0x10000D5D4, symSize: 0x24 }
  - { offsetInCU: 0xED37, offset: 0xED37, size: 0x8, addend: 0x0, symName: __ZNSt3__112__to_addressB7v160006IKdEEPT_S3_, symObjAddr: 0xA2D0, symBinAddr: 0x10000D68C, symSize: 0x14 }
  - { offsetInCU: 0xED6C, offset: 0xED6C, size: 0x8, addend: 0x0, symName: __ZNSt3__119__copy_trivial_implB7v160006IKddEENS_4pairIPT_PT0_EES4_S4_S6_, symObjAddr: 0xA2E4, symBinAddr: 0x10000D6A0, symSize: 0x84 }
  - { offsetInCU: 0xEDD4, offset: 0xEDD4, size: 0x8, addend: 0x0, symName: __ZNSt3__19make_pairB7v160006IRPKdPdEENS_4pairINS_18__unwrap_ref_decayIT_E4typeENS6_IT0_E4typeEEEOS7_OSA_, symObjAddr: 0xA368, symBinAddr: 0x10000D724, symSize: 0x38 }
  - { offsetInCU: 0xEE76, offset: 0xEE76, size: 0x8, addend: 0x0, symName: __ZNSt3__113__rewrap_iterB7v160006IPKdS2_NS_18__unwrap_iter_implIS2_Lb1EEEEET_S5_T0_, symObjAddr: 0xA4A4, symBinAddr: 0x10000D860, symSize: 0x3C }
  - { offsetInCU: 0xF455, offset: 0xF455, size: 0x8, addend: 0x0, symName: __ZSt28__throw_bad_array_new_lengthB7v160006v, symObjAddr: 0x4228, symBinAddr: 0x1000075E4, symSize: 0x34 }
  - { offsetInCU: 0xFADF, offset: 0xFADF, size: 0x8, addend: 0x0, symName: __ZNSt3__16vectorINS_12basic_stringIcNS_11char_traitsIcEENS_9allocatorIcEEEENS4_IS6_EEE26__swap_out_circular_bufferERNS_14__split_bufferIS6_RS7_EE, symObjAddr: 0x3A88, symBinAddr: 0x100006E44, symSize: 0x118 }
  - { offsetInCU: 0xFCE7, offset: 0xFCE7, size: 0x8, addend: 0x0, symName: __ZNSt3__16vectorIdNS_9allocatorIdEEE26__swap_out_circular_bufferERNS_14__split_bufferIdRS2_EE, symObjAddr: 0x5924, symBinAddr: 0x100008CE0, symSize: 0x118 }
  - { offsetInCU: 0xFF11, offset: 0xFF11, size: 0x8, addend: 0x0, symName: __ZNSt3__16vectorI5PointNS_9allocatorIS1_EEE26__swap_out_circular_bufferERNS_14__split_bufferIS1_RS3_EE, symObjAddr: 0x6F70, symBinAddr: 0x10000A32C, symSize: 0x118 }
  - { offsetInCU: 0x12478, offset: 0x12478, size: 0x8, addend: 0x0, symName: _main, symObjAddr: 0x0, symBinAddr: 0x1000033BC, symSize: 0x614 }
  - { offsetInCU: 0x12579, offset: 0x12579, size: 0x8, addend: 0x0, symName: __ZNSt3__112basic_stringIcNS_11char_traitsIcEENS_9allocatorIcEEEC1B7v160006IDnEEPKc, symObjAddr: 0x614, symBinAddr: 0x1000039D0, symSize: 0x34 }
  - { offsetInCU: 0x125B6, offset: 0x125B6, size: 0x8, addend: 0x0, symName: __ZNSt3__113basic_ostreamIcNS_11char_traitsIcEEElsB7v160006EPFRS3_S4_E, symObjAddr: 0x648, symBinAddr: 0x100003A04, symSize: 0x2C }
  - { offsetInCU: 0x125E8, offset: 0x125E8, size: 0x8, addend: 0x0, symName: __ZNSt3__16vectorIP6SectorNS_9allocatorIS2_EEEaSB7v160006EOS5_, symObjAddr: 0x6CC, symBinAddr: 0x100003A88, symSize: 0x34 }
  - { offsetInCU: 0x1261E, offset: 0x1261E, size: 0x8, addend: 0x0, symName: __ZNSt3__16vectorIP6SectorNS_9allocatorIS2_EEED1B7v160006Ev, symObjAddr: 0x700, symBinAddr: 0x100003ABC, symSize: 0x2C }
  - { offsetInCU: 0x126D3, offset: 0x126D3, size: 0x8, addend: 0x0, symName: __ZN14kNN_Dat_Parser5parseERKNSt3__112basic_stringIcNS0_11char_traitsIcEENS0_9allocatorIcEEEE, symObjAddr: 0x72C, symBinAddr: 0x100003AE8, symSize: 0x550 }
  - { offsetInCU: 0x127B4, offset: 0x127B4, size: 0x8, addend: 0x0, symName: __ZNSt3__16vectorIdNS_9allocatorIdEEEC1B7v160006ESt16initializer_listIdE, symObjAddr: 0xC7C, symBinAddr: 0x100004038, symSize: 0x3C }
  - { offsetInCU: 0x127EE, offset: 0x127EE, size: 0x8, addend: 0x0, symName: __ZN5PointC1ERKNSt3__16vectorIdNS0_9allocatorIdEEEERKNS0_12basic_stringIcNS0_11char_traitsIcEENS2_IcEEEE, symObjAddr: 0xCB8, symBinAddr: 0x100004074, symSize: 0x3C }
  - { offsetInCU: 0x12833, offset: 0x12833, size: 0x8, addend: 0x0, symName: __ZN5PointD1Ev, symObjAddr: 0xCF4, symBinAddr: 0x1000040B0, symSize: 0x2C }
  - { offsetInCU: 0x1285E, offset: 0x1285E, size: 0x8, addend: 0x0, symName: __ZNSt3__16vectorIdNS_9allocatorIdEEED1B7v160006Ev, symObjAddr: 0xD20, symBinAddr: 0x1000040DC, symSize: 0x2C }
  - { offsetInCU: 0x129FC, offset: 0x129FC, size: 0x8, addend: 0x0, symName: __ZN3KNND1Ev, symObjAddr: 0xD4C, symBinAddr: 0x100004108, symSize: 0x2C }
  - { offsetInCU: 0x12A27, offset: 0x12A27, size: 0x8, addend: 0x0, symName: __ZN7DatasetD1Ev, symObjAddr: 0xD78, symBinAddr: 0x100004134, symSize: 0x2C }
  - { offsetInCU: 0x12AEA, offset: 0x12AEA, size: 0x8, addend: 0x0, symName: __ZNSt3__114basic_ifstreamIcNS_11char_traitsIcEEEC1ERKNS_12basic_stringIcS2_NS_9allocatorIcEEEEj, symObjAddr: 0xDA4, symBinAddr: 0x100004160, symSize: 0x16C }
  - { offsetInCU: 0x12B33, offset: 0x12B33, size: 0x8, addend: 0x0, symName: __ZNSt3__112basic_stringIcNS_11char_traitsIcEENS_9allocatorIcEEEC1B7v160006Ev, symObjAddr: 0xF10, symBinAddr: 0x1000042CC, symSize: 0x2C }
  - { offsetInCU: 0x12B5C, offset: 0x12B5C, size: 0x8, addend: 0x0, symName: __ZN7DatasetC1Ev, symObjAddr: 0xF3C, symBinAddr: 0x1000042F8, symSize: 0x2C }
  - { offsetInCU: 0x12B84, offset: 0x12B84, size: 0x8, addend: 0x0, symName: __ZNKSt3__114basic_ifstreamIcNS_11char_traitsIcEEE7is_openEv, symObjAddr: 0xF68, symBinAddr: 0x100004324, symSize: 0x2C }
  - { offsetInCU: 0x12BAB, offset: 0x12BAB, size: 0x8, addend: 0x0, symName: __ZNKSt3__19basic_iosIcNS_11char_traitsIcEEEcvbB7v160006Ev, symObjAddr: 0x1084, symBinAddr: 0x100004440, symSize: 0x2C }
  - { offsetInCU: 0x12BD0, offset: 0x12BD0, size: 0x8, addend: 0x0, symName: __ZNKSt3__112basic_stringIcNS_11char_traitsIcEENS_9allocatorIcEEE5emptyB7v160006Ev, symObjAddr: 0x10B0, symBinAddr: 0x10000446C, symSize: 0x30 }
  - { offsetInCU: 0x12BF5, offset: 0x12BF5, size: 0x8, addend: 0x0, symName: __ZNSt3__112basic_stringIcNS_11char_traitsIcEENS_9allocatorIcEEEixB7v160006Em, symObjAddr: 0x10E0, symBinAddr: 0x10000449C, symSize: 0x30 }
  - { offsetInCU: 0x12C28, offset: 0x12C28, size: 0x8, addend: 0x0, symName: __ZNKSt3__112basic_stringIcNS_11char_traitsIcEENS_9allocatorIcEEE4findB7v160006EPKcm, symObjAddr: 0x1110, symBinAddr: 0x1000044CC, symSize: 0x74 }
  - { offsetInCU: 0x12C6D, offset: 0x12C6D, size: 0x8, addend: 0x0, symName: __ZNSt3__119basic_istringstreamIcNS_11char_traitsIcEENS_9allocatorIcEEEC1B7v160006ERKNS_12basic_stringIcS2_S4_EEj, symObjAddr: 0x1184, symBinAddr: 0x100004540, symSize: 0xFC }
  - { offsetInCU: 0x12CB3, offset: 0x12CB3, size: 0x8, addend: 0x0, symName: __ZNSt3__16vectorINS_12basic_stringIcNS_11char_traitsIcEENS_9allocatorIcEEEENS4_IS6_EEE9push_backB7v160006ERKS6_, symObjAddr: 0x14B8, symBinAddr: 0x100004874, symSize: 0x6C }
  - { offsetInCU: 0x12CEE, offset: 0x12CEE, size: 0x8, addend: 0x0, symName: __ZNSt3__119basic_istringstreamIcNS_11char_traitsIcEENS_9allocatorIcEEED1Ev, symObjAddr: 0x1524, symBinAddr: 0x1000048E0, symSize: 0x40 }
  - { offsetInCU: 0x12D1A, offset: 0x12D1A, size: 0x8, addend: 0x0, symName: __ZNSt3__16vectorIdNS_9allocatorIdEEEC1B7v160006Ev, symObjAddr: 0x1564, symBinAddr: 0x100004920, symSize: 0x2C }
  - { offsetInCU: 0x12D43, offset: 0x12D43, size: 0x8, addend: 0x0, symName: __ZNSt3__113basic_istreamIcNS_11char_traitsIcEEErsB7v160006EPFRS3_S4_E, symObjAddr: 0x1590, symBinAddr: 0x10000494C, symSize: 0x2C }
  - { offsetInCU: 0x12D76, offset: 0x12D76, size: 0x8, addend: 0x0, symName: __ZNSt3__111char_traitsIcE3eofEv, symObjAddr: 0x17F4, symBinAddr: 0x100004BB0, symSize: 0x8 }
  - { offsetInCU: 0x12D89, offset: 0x12D89, size: 0x8, addend: 0x0, symName: __ZNSt3__16vectorIdNS_9allocatorIdEEE9push_backB7v160006EOd, symObjAddr: 0x17FC, symBinAddr: 0x100004BB8, symSize: 0x6C }
  - { offsetInCU: 0x12DBE, offset: 0x12DBE, size: 0x8, addend: 0x0, symName: __ZNSt3__16vectorI5PointNS_9allocatorIS1_EEE12emplace_backIJRNS0_IdNS2_IdEEEERNS_12basic_stringIcNS_11char_traitsIcEENS2_IcEEEEEEEvDpOT_, symObjAddr: 0x1868, symBinAddr: 0x100004C24, symSize: 0x78 }
  - { offsetInCU: 0x12E12, offset: 0x12E12, size: 0x8, addend: 0x0, symName: __ZNSt3__114basic_ifstreamIcNS_11char_traitsIcEEE5closeEv, symObjAddr: 0x18E0, symBinAddr: 0x100004C9C, symSize: 0x58 }
  - { offsetInCU: 0x12E3E, offset: 0x12E3E, size: 0x8, addend: 0x0, symName: __ZNSt3__114basic_ifstreamIcNS_11char_traitsIcEEED1Ev, symObjAddr: 0x1938, symBinAddr: 0x100004CF4, symSize: 0x40 }
  - { offsetInCU: 0x12E6A, offset: 0x12E6A, size: 0x8, addend: 0x0, symName: __ZNSt3__19basic_iosIcNS_11char_traitsIcEEEC2B7v160006Ev, symObjAddr: 0x1978, symBinAddr: 0x100004D34, symSize: 0x44 }
  - { offsetInCU: 0x12E93, offset: 0x12E93, size: 0x8, addend: 0x0, symName: __ZNSt3__113basic_istreamIcNS_11char_traitsIcEEEC2B7v160006EPNS_15basic_streambufIcS2_EE, symObjAddr: 0x19BC, symBinAddr: 0x100004D78, symSize: 0x64 }
  - { offsetInCU: 0x12ED5, offset: 0x12ED5, size: 0x8, addend: 0x0, symName: __ZNSt3__113basic_filebufIcNS_11char_traitsIcEEE4openERKNS_12basic_stringIcS2_NS_9allocatorIcEEEEj, symObjAddr: 0x1A20, symBinAddr: 0x100004DDC, symSize: 0x44 }
  - { offsetInCU: 0x12F18, offset: 0x12F18, size: 0x8, addend: 0x0, symName: __ZNSt3__19basic_iosIcNS_11char_traitsIcEEE8setstateB7v160006Ej, symObjAddr: 0x1A64, symBinAddr: 0x100004E20, symSize: 0x2C }
  - { offsetInCU: 0x12F4C, offset: 0x12F4C, size: 0x8, addend: 0x0, symName: __ZNSt3__18ios_baseC2B7v160006Ev, symObjAddr: 0x1A90, symBinAddr: 0x100004E4C, symSize: 0x24 }
  - { offsetInCU: 0x12F74, offset: 0x12F74, size: 0x8, addend: 0x0, symName: __ZNSt3__19basic_iosIcNS_11char_traitsIcEEE4initB7v160006EPNS_15basic_streambufIcS2_EE, symObjAddr: 0x1AB4, symBinAddr: 0x100004E70, symSize: 0x44 }
  - { offsetInCU: 0x12FAA, offset: 0x12FAA, size: 0x8, addend: 0x0, symName: __ZNKSt3__112basic_stringIcNS_11char_traitsIcEENS_9allocatorIcEEE5c_strB7v160006Ev, symObjAddr: 0x1AF8, symBinAddr: 0x100004EB4, symSize: 0x24 }
  - { offsetInCU: 0x12FCF, offset: 0x12FCF, size: 0x8, addend: 0x0, symName: __ZNKSt3__112basic_stringIcNS_11char_traitsIcEENS_9allocatorIcEEE4dataB7v160006Ev, symObjAddr: 0x1B1C, symBinAddr: 0x100004ED8, symSize: 0x28 }
  - { offsetInCU: 0x12FF4, offset: 0x12FF4, size: 0x8, addend: 0x0, symName: __ZNKSt3__112basic_stringIcNS_11char_traitsIcEENS_9allocatorIcEEE13__get_pointerB7v160006Ev, symObjAddr: 0x1B58, symBinAddr: 0x100004F14, symSize: 0x54 }
  - { offsetInCU: 0x13019, offset: 0x13019, size: 0x8, addend: 0x0, symName: __ZNKSt3__112basic_stringIcNS_11char_traitsIcEENS_9allocatorIcEEE9__is_longB7v160006Ev, symObjAddr: 0x1BAC, symBinAddr: 0x100004F68, symSize: 0x38 }
  - { offsetInCU: 0x1303E, offset: 0x1303E, size: 0x8, addend: 0x0, symName: __ZNKSt3__112basic_stringIcNS_11char_traitsIcEENS_9allocatorIcEEE18__get_long_pointerB7v160006Ev, symObjAddr: 0x1BE4, symBinAddr: 0x100004FA0, symSize: 0x28 }
  - { offsetInCU: 0x13063, offset: 0x13063, size: 0x8, addend: 0x0, symName: __ZNKSt3__112basic_stringIcNS_11char_traitsIcEENS_9allocatorIcEEE19__get_short_pointerB7v160006Ev, symObjAddr: 0x1C0C, symBinAddr: 0x100004FC8, symSize: 0x28 }
  - { offsetInCU: 0x13088, offset: 0x13088, size: 0x8, addend: 0x0, symName: __ZNKSt3__117__compressed_pairINS_12basic_stringIcNS_11char_traitsIcEENS_9allocatorIcEEE5__repES5_E5firstB7v160006Ev, symObjAddr: 0x1C34, symBinAddr: 0x100004FF0, symSize: 0x24 }
  - { offsetInCU: 0x130AD, offset: 0x130AD, size: 0x8, addend: 0x0, symName: __ZNKSt3__122__compressed_pair_elemINS_12basic_stringIcNS_11char_traitsIcEENS_9allocatorIcEEE5__repELi0ELb0EE5__getB7v160006Ev, symObjAddr: 0x1C58, symBinAddr: 0x100005014, symSize: 0x14 }
  - { offsetInCU: 0x130D2, offset: 0x130D2, size: 0x8, addend: 0x0, symName: __ZNSt3__114pointer_traitsIPKcE10pointer_toB7v160006ERS1_, symObjAddr: 0x1C6C, symBinAddr: 0x100005028, symSize: 0x14 }
  - { offsetInCU: 0x130F4, offset: 0x130F4, size: 0x8, addend: 0x0, symName: __ZNSt3__18ios_base8setstateB7v160006Ej, symObjAddr: 0x1C80, symBinAddr: 0x10000503C, symSize: 0x34 }
  - { offsetInCU: 0x1312A, offset: 0x1312A, size: 0x8, addend: 0x0, symName: __ZNSt3__112basic_stringIcNS_11char_traitsIcEENS_9allocatorIcEEEC2B7v160006Ev, symObjAddr: 0x1CB4, symBinAddr: 0x100005070, symSize: 0x54 }
  - { offsetInCU: 0x13158, offset: 0x13158, size: 0x8, addend: 0x0, symName: __ZNSt3__117__compressed_pairINS_12basic_stringIcNS_11char_traitsIcEENS_9allocatorIcEEE5__repES5_EC1B7v160006INS_18__default_init_tagESA_EEOT_OT0_, symObjAddr: 0x1D08, symBinAddr: 0x1000050C4, symSize: 0x3C }
  - { offsetInCU: 0x131AF, offset: 0x131AF, size: 0x8, addend: 0x0, symName: __ZNSt3__112basic_stringIcNS_11char_traitsIcEENS_9allocatorIcEEE14__default_initB7v160006Ev, symObjAddr: 0x1D60, symBinAddr: 0x10000511C, symSize: 0x40 }
  - { offsetInCU: 0x131D4, offset: 0x131D4, size: 0x8, addend: 0x0, symName: __ZNSt3__117__compressed_pairINS_12basic_stringIcNS_11char_traitsIcEENS_9allocatorIcEEE5__repES5_EC2B7v160006INS_18__default_init_tagESA_EEOT_OT0_, symObjAddr: 0x1DA0, symBinAddr: 0x10000515C, symSize: 0x3C }
  - { offsetInCU: 0x1322B, offset: 0x1322B, size: 0x8, addend: 0x0, symName: __ZNSt3__122__compressed_pair_elemINS_12basic_stringIcNS_11char_traitsIcEENS_9allocatorIcEEE5__repELi0ELb0EEC2B7v160006ENS_18__default_init_tagE, symObjAddr: 0x1DDC, symBinAddr: 0x100005198, symSize: 0x14 }
  - { offsetInCU: 0x1325F, offset: 0x1325F, size: 0x8, addend: 0x0, symName: __ZNSt3__122__compressed_pair_elemINS_9allocatorIcEELi1ELb1EEC2B7v160006ENS_18__default_init_tagE, symObjAddr: 0x1DF0, symBinAddr: 0x1000051AC, symSize: 0x2C }
  - { offsetInCU: 0x13293, offset: 0x13293, size: 0x8, addend: 0x0, symName: __ZNSt3__19allocatorIcEC2B7v160006Ev, symObjAddr: 0x1E1C, symBinAddr: 0x1000051D8, symSize: 0x2C }
  - { offsetInCU: 0x132BC, offset: 0x132BC, size: 0x8, addend: 0x0, symName: __ZNSt3__116__non_trivial_ifILb1ENS_9allocatorIcEEEC2B7v160006Ev, symObjAddr: 0x1E48, symBinAddr: 0x100005204, symSize: 0x14 }
  - { offsetInCU: 0x132E5, offset: 0x132E5, size: 0x8, addend: 0x0, symName: __ZNSt3__117__compressed_pairINS_12basic_stringIcNS_11char_traitsIcEENS_9allocatorIcEEE5__repES5_E5firstB7v160006Ev, symObjAddr: 0x1E5C, symBinAddr: 0x100005218, symSize: 0x24 }
  - { offsetInCU: 0x1330A, offset: 0x1330A, size: 0x8, addend: 0x0, symName: __ZNSt3__122__compressed_pair_elemINS_12basic_stringIcNS_11char_traitsIcEENS_9allocatorIcEEE5__repELi0ELb0EE5__getB7v160006Ev, symObjAddr: 0x1E80, symBinAddr: 0x10000523C, symSize: 0x14 }
  - { offsetInCU: 0x1332F, offset: 0x1332F, size: 0x8, addend: 0x0, symName: __ZN7DatasetC2Ev, symObjAddr: 0x1E94, symBinAddr: 0x100005250, symSize: 0x38 }
  - { offsetInCU: 0x13358, offset: 0x13358, size: 0x8, addend: 0x0, symName: __ZNSt3__16vectorI5PointNS_9allocatorIS1_EEEC1B7v160006Ev, symObjAddr: 0x1ECC, symBinAddr: 0x100005288, symSize: 0x2C }
  - { offsetInCU: 0x13381, offset: 0x13381, size: 0x8, addend: 0x0, symName: __ZNSt3__16vectorINS_12basic_stringIcNS_11char_traitsIcEENS_9allocatorIcEEEENS4_IS6_EEEC1B7v160006Ev, symObjAddr: 0x1EF8, symBinAddr: 0x1000052B4, symSize: 0x2C }
  - { offsetInCU: 0x133AA, offset: 0x133AA, size: 0x8, addend: 0x0, symName: __ZNSt3__16vectorI5PointNS_9allocatorIS1_EEEC2B7v160006Ev, symObjAddr: 0x1F24, symBinAddr: 0x1000052E0, symSize: 0x58 }
  - { offsetInCU: 0x133D8, offset: 0x133D8, size: 0x8, addend: 0x0, symName: __ZNSt3__117__compressed_pairIP5PointNS_9allocatorIS1_EEEC1B7v160006IDnNS_18__default_init_tagEEEOT_OT0_, symObjAddr: 0x1F7C, symBinAddr: 0x100005338, symSize: 0x3C }
  - { offsetInCU: 0x1342F, offset: 0x1342F, size: 0x8, addend: 0x0, symName: __ZNSt3__117__compressed_pairIP5PointNS_9allocatorIS1_EEEC2B7v160006IDnNS_18__default_init_tagEEEOT_OT0_, symObjAddr: 0x1FC8, symBinAddr: 0x100005384, symSize: 0x40 }
  - { offsetInCU: 0x13486, offset: 0x13486, size: 0x8, addend: 0x0, symName: __ZNSt3__122__compressed_pair_elemIP5PointLi0ELb0EEC2B7v160006IDnvEEOT_, symObjAddr: 0x2008, symBinAddr: 0x1000053C4, symSize: 0x1C }
  - { offsetInCU: 0x134C7, offset: 0x134C7, size: 0x8, addend: 0x0, symName: __ZNSt3__122__compressed_pair_elemINS_9allocatorI5PointEELi1ELb1EEC2B7v160006ENS_18__default_init_tagE, symObjAddr: 0x2024, symBinAddr: 0x1000053E0, symSize: 0x2C }
  - { offsetInCU: 0x134FB, offset: 0x134FB, size: 0x8, addend: 0x0, symName: __ZNSt3__19allocatorI5PointEC2B7v160006Ev, symObjAddr: 0x2050, symBinAddr: 0x10000540C, symSize: 0x2C }
  - { offsetInCU: 0x13524, offset: 0x13524, size: 0x8, addend: 0x0, symName: __ZNSt3__116__non_trivial_ifILb1ENS_9allocatorI5PointEEEC2B7v160006Ev, symObjAddr: 0x207C, symBinAddr: 0x100005438, symSize: 0x14 }
  - { offsetInCU: 0x1354D, offset: 0x1354D, size: 0x8, addend: 0x0, symName: __ZNSt3__16vectorINS_12basic_stringIcNS_11char_traitsIcEENS_9allocatorIcEEEENS4_IS6_EEEC2B7v160006Ev, symObjAddr: 0x2090, symBinAddr: 0x10000544C, symSize: 0x58 }
  - { offsetInCU: 0x13576, offset: 0x13576, size: 0x8, addend: 0x0, symName: __ZNSt3__117__compressed_pairIPNS_12basic_stringIcNS_11char_traitsIcEENS_9allocatorIcEEEENS4_IS6_EEEC1B7v160006IDnNS_18__default_init_tagEEEOT_OT0_, symObjAddr: 0x20E8, symBinAddr: 0x1000054A4, symSize: 0x3C }
  - { offsetInCU: 0x135CD, offset: 0x135CD, size: 0x8, addend: 0x0, symName: __ZNSt3__117__compressed_pairIPNS_12basic_stringIcNS_11char_traitsIcEENS_9allocatorIcEEEENS4_IS6_EEEC2B7v160006IDnNS_18__default_init_tagEEEOT_OT0_, symObjAddr: 0x2134, symBinAddr: 0x1000054F0, symSize: 0x40 }
  - { offsetInCU: 0x13624, offset: 0x13624, size: 0x8, addend: 0x0, symName: __ZNSt3__122__compressed_pair_elemIPNS_12basic_stringIcNS_11char_traitsIcEENS_9allocatorIcEEEELi0ELb0EEC2B7v160006IDnvEEOT_, symObjAddr: 0x2174, symBinAddr: 0x100005530, symSize: 0x1C }
  - { offsetInCU: 0x13665, offset: 0x13665, size: 0x8, addend: 0x0, symName: __ZNSt3__122__compressed_pair_elemINS_9allocatorINS_12basic_stringIcNS_11char_traitsIcEENS1_IcEEEEEELi1ELb1EEC2B7v160006ENS_18__default_init_tagE, symObjAddr: 0x2190, symBinAddr: 0x10000554C, symSize: 0x2C }
  - { offsetInCU: 0x13699, offset: 0x13699, size: 0x8, addend: 0x0, symName: __ZNSt3__19allocatorINS_12basic_stringIcNS_11char_traitsIcEENS0_IcEEEEEC2B7v160006Ev, symObjAddr: 0x21BC, symBinAddr: 0x100005578, symSize: 0x2C }
  - { offsetInCU: 0x136C2, offset: 0x136C2, size: 0x8, addend: 0x0, symName: __ZNSt3__116__non_trivial_ifILb1ENS_9allocatorINS_12basic_stringIcNS_11char_traitsIcEENS1_IcEEEEEEEC2B7v160006Ev, symObjAddr: 0x21E8, symBinAddr: 0x1000055A4, symSize: 0x14 }
  - { offsetInCU: 0x136EB, offset: 0x136EB, size: 0x8, addend: 0x0, symName: __ZNKSt3__113basic_filebufIcNS_11char_traitsIcEEE7is_openEv, symObjAddr: 0x21FC, symBinAddr: 0x1000055B8, symSize: 0x24 }
  - { offsetInCU: 0x13712, offset: 0x13712, size: 0x8, addend: 0x0, symName: __ZNKSt3__112basic_stringIcNS_11char_traitsIcEENS_9allocatorIcEEE4sizeB7v160006Ev, symObjAddr: 0x240C, symBinAddr: 0x1000057C8, symSize: 0x54 }
  - { offsetInCU: 0x13755, offset: 0x13755, size: 0x8, addend: 0x0, symName: __ZNKSt3__113basic_ostreamIcNS_11char_traitsIcEEE6sentrycvbB7v160006Ev, symObjAddr: 0x2460, symBinAddr: 0x10000581C, symSize: 0x1C }
  - { offsetInCU: 0x1377A, offset: 0x1377A, size: 0x8, addend: 0x0, symName: __ZNSt3__119ostreambuf_iteratorIcNS_11char_traitsIcEEEC1B7v160006ERNS_13basic_ostreamIcS2_EE, symObjAddr: 0x26BC, symBinAddr: 0x100005A78, symSize: 0x34 }
  - { offsetInCU: 0x137B1, offset: 0x137B1, size: 0x8, addend: 0x0, symName: __ZNKSt3__18ios_base5flagsB7v160006Ev, symObjAddr: 0x26F0, symBinAddr: 0x100005AAC, symSize: 0x18 }
  - { offsetInCU: 0x137D7, offset: 0x137D7, size: 0x8, addend: 0x0, symName: __ZNKSt3__19basic_iosIcNS_11char_traitsIcEEE4fillB7v160006Ev, symObjAddr: 0x2708, symBinAddr: 0x100005AC4, symSize: 0x64 }
  - { offsetInCU: 0x137FE, offset: 0x137FE, size: 0x8, addend: 0x0, symName: __ZNKSt3__119ostreambuf_iteratorIcNS_11char_traitsIcEEE6failedB7v160006Ev, symObjAddr: 0x276C, symBinAddr: 0x100005B28, symSize: 0x24 }
  - { offsetInCU: 0x13823, offset: 0x13823, size: 0x8, addend: 0x0, symName: __ZNKSt3__18ios_base5widthB7v160006Ev, symObjAddr: 0x2790, symBinAddr: 0x100005B4C, symSize: 0x18 }
  - { offsetInCU: 0x1384A, offset: 0x1384A, size: 0x8, addend: 0x0, symName: __ZNSt3__115basic_streambufIcNS_11char_traitsIcEEE5sputnB7v160006EPKcl, symObjAddr: 0x27A8, symBinAddr: 0x100005B64, symSize: 0x3C }
  - { offsetInCU: 0x1388B, offset: 0x1388B, size: 0x8, addend: 0x0, symName: __ZNSt3__112basic_stringIcNS_11char_traitsIcEENS_9allocatorIcEEEC1B7v160006Emc, symObjAddr: 0x27E4, symBinAddr: 0x100005BA0, symSize: 0x3C }
  - { offsetInCU: 0x138D2, offset: 0x138D2, size: 0x8, addend: 0x0, symName: __ZNSt3__18ios_base5widthB7v160006El, symObjAddr: 0x2820, symBinAddr: 0x100005BDC, symSize: 0x2C }
  - { offsetInCU: 0x13917, offset: 0x13917, size: 0x8, addend: 0x0, symName: __ZNSt3__112basic_stringIcNS_11char_traitsIcEENS_9allocatorIcEEEC2B7v160006Emc, symObjAddr: 0x284C, symBinAddr: 0x100005C08, symSize: 0x54 }
  - { offsetInCU: 0x1395E, offset: 0x1395E, size: 0x8, addend: 0x0, symName: __ZNSt3__119ostreambuf_iteratorIcNS_11char_traitsIcEEEC2B7v160006ERNS_13basic_ostreamIcS2_EE, symObjAddr: 0x28A0, symBinAddr: 0x100005C5C, symSize: 0x54 }
  - { offsetInCU: 0x13994, offset: 0x13994, size: 0x8, addend: 0x0, symName: __ZNKSt3__19basic_iosIcNS_11char_traitsIcEEE5rdbufB7v160006Ev, symObjAddr: 0x28F4, symBinAddr: 0x100005CB0, symSize: 0x24 }
  - { offsetInCU: 0x139BB, offset: 0x139BB, size: 0x8, addend: 0x0, symName: __ZNKSt3__18ios_base5rdbufB7v160006Ev, symObjAddr: 0x2918, symBinAddr: 0x100005CD4, symSize: 0x18 }
  - { offsetInCU: 0x139E0, offset: 0x139E0, size: 0x8, addend: 0x0, symName: __ZNSt3__111char_traitsIcE11eq_int_typeEii, symObjAddr: 0x2930, symBinAddr: 0x100005CEC, symSize: 0x28 }
  - { offsetInCU: 0x13A10, offset: 0x13A10, size: 0x8, addend: 0x0, symName: __ZNKSt3__19basic_iosIcNS_11char_traitsIcEEE5widenB7v160006Ec, symObjAddr: 0x2958, symBinAddr: 0x100005D14, symSize: 0x84 }
  - { offsetInCU: 0x13A73, offset: 0x13A73, size: 0x8, addend: 0x0, symName: __ZNKSt3__15ctypeIcE5widenB7v160006Ec, symObjAddr: 0x2A08, symBinAddr: 0x100005DC4, symSize: 0x38 }
  - { offsetInCU: 0x13AA7, offset: 0x13AA7, size: 0x8, addend: 0x0, symName: __ZNKSt3__112basic_stringIcNS_11char_traitsIcEENS_9allocatorIcEEE15__get_long_sizeB7v160006Ev, symObjAddr: 0x2A40, symBinAddr: 0x100005DFC, symSize: 0x28 }
  - { offsetInCU: 0x13ACC, offset: 0x13ACC, size: 0x8, addend: 0x0, symName: __ZNKSt3__112basic_stringIcNS_11char_traitsIcEENS_9allocatorIcEEE16__get_short_sizeB7v160006Ev, symObjAddr: 0x2A68, symBinAddr: 0x100005E24, symSize: 0x34 }
  - { offsetInCU: 0x13AF1, offset: 0x13AF1, size: 0x8, addend: 0x0, symName: __ZNSt3__111char_traitsIcE6lengthEPKc, symObjAddr: 0x2A9C, symBinAddr: 0x100005E58, symSize: 0x34 }
  - { offsetInCU: 0x13B14, offset: 0x13B14, size: 0x8, addend: 0x0, symName: __ZNKSt3__19basic_iosIcNS_11char_traitsIcEEE4failB7v160006Ev, symObjAddr: 0x2AF4, symBinAddr: 0x100005EB0, symSize: 0x28 }
  - { offsetInCU: 0x13B39, offset: 0x13B39, size: 0x8, addend: 0x0, symName: __ZNKSt3__18ios_base4failB7v160006Ev, symObjAddr: 0x2B1C, symBinAddr: 0x100005ED8, symSize: 0x28 }
  - { offsetInCU: 0x13B60, offset: 0x13B60, size: 0x8, addend: 0x0, symName: __ZNSt3__112basic_stringIcNS_11char_traitsIcEENS_9allocatorIcEEE13__get_pointerB7v160006Ev, symObjAddr: 0x2B44, symBinAddr: 0x100005F00, symSize: 0x54 }
  - { offsetInCU: 0x13B85, offset: 0x13B85, size: 0x8, addend: 0x0, symName: __ZNSt3__112basic_stringIcNS_11char_traitsIcEENS_9allocatorIcEEE18__get_long_pointerB7v160006Ev, symObjAddr: 0x2B98, symBinAddr: 0x100005F54, symSize: 0x28 }
  - { offsetInCU: 0x13BAA, offset: 0x13BAA, size: 0x8, addend: 0x0, symName: __ZNSt3__112basic_stringIcNS_11char_traitsIcEENS_9allocatorIcEEE19__get_short_pointerB7v160006Ev, symObjAddr: 0x2BC0, symBinAddr: 0x100005F7C, symSize: 0x28 }
  - { offsetInCU: 0x13BCF, offset: 0x13BCF, size: 0x8, addend: 0x0, symName: __ZNSt3__114pointer_traitsIPcE10pointer_toB7v160006ERc, symObjAddr: 0x2BE8, symBinAddr: 0x100005FA4, symSize: 0x14 }
  - { offsetInCU: 0x13BF2, offset: 0x13BF2, size: 0x8, addend: 0x0, symName: __ZNSt3__111char_traitsIcE4findEPKcmRS2_, symObjAddr: 0x2E34, symBinAddr: 0x1000061F0, symSize: 0x70 }
  - { offsetInCU: 0x13C31, offset: 0x13C31, size: 0x8, addend: 0x0, symName: __ZNSt3__111char_traitsIcE7compareEPKcS3_m, symObjAddr: 0x2EA4, symBinAddr: 0x100006260, symSize: 0x6C }
  - { offsetInCU: 0x13C70, offset: 0x13C70, size: 0x8, addend: 0x0, symName: __ZNSt3__115basic_stringbufIcNS_11char_traitsIcEENS_9allocatorIcEEEC1B7v160006ERKNS_12basic_stringIcS2_S4_EEj, symObjAddr: 0x2F78, symBinAddr: 0x100006334, symSize: 0x3C }
  - { offsetInCU: 0x13CB5, offset: 0x13CB5, size: 0x8, addend: 0x0, symName: __ZNSt3__115basic_stringbufIcNS_11char_traitsIcEENS_9allocatorIcEEEC2B7v160006ERKNS_12basic_stringIcS2_S4_EEj, symObjAddr: 0x2FB4, symBinAddr: 0x100006370, symSize: 0xB4 }
  - { offsetInCU: 0x13CFA, offset: 0x13CFA, size: 0x8, addend: 0x0, symName: __ZNKSt3__112basic_stringIcNS_11char_traitsIcEENS_9allocatorIcEEE13get_allocatorB7v160006Ev, symObjAddr: 0x3068, symBinAddr: 0x100006424, symSize: 0x24 }
  - { offsetInCU: 0x13D1F, offset: 0x13D1F, size: 0x8, addend: 0x0, symName: __ZNSt3__112basic_stringIcNS_11char_traitsIcEENS_9allocatorIcEEEC1B7v160006ERKS4_, symObjAddr: 0x308C, symBinAddr: 0x100006448, symSize: 0x34 }
  - { offsetInCU: 0x13D57, offset: 0x13D57, size: 0x8, addend: 0x0, symName: __ZNKSt3__112basic_stringIcNS_11char_traitsIcEENS_9allocatorIcEEE7__allocB7v160006Ev, symObjAddr: 0x30C0, symBinAddr: 0x10000647C, symSize: 0x24 }
  - { offsetInCU: 0x13D7C, offset: 0x13D7C, size: 0x8, addend: 0x0, symName: __ZNKSt3__117__compressed_pairINS_12basic_stringIcNS_11char_traitsIcEENS_9allocatorIcEEE5__repES5_E6secondB7v160006Ev, symObjAddr: 0x30E4, symBinAddr: 0x1000064A0, symSize: 0x24 }
  - { offsetInCU: 0x13DA1, offset: 0x13DA1, size: 0x8, addend: 0x0, symName: __ZNKSt3__122__compressed_pair_elemINS_9allocatorIcEELi1ELb1EE5__getB7v160006Ev, symObjAddr: 0x3108, symBinAddr: 0x1000064C4, symSize: 0x14 }
  - { offsetInCU: 0x13DC6, offset: 0x13DC6, size: 0x8, addend: 0x0, symName: __ZNSt3__112basic_stringIcNS_11char_traitsIcEENS_9allocatorIcEEEC2B7v160006ERKS4_, symObjAddr: 0x311C, symBinAddr: 0x1000064D8, symSize: 0x50 }
  - { offsetInCU: 0x13DFE, offset: 0x13DFE, size: 0x8, addend: 0x0, symName: __ZNSt3__117__compressed_pairINS_12basic_stringIcNS_11char_traitsIcEENS_9allocatorIcEEE5__repES5_EC1B7v160006INS_18__default_init_tagERKS5_EEOT_OT0_, symObjAddr: 0x316C, symBinAddr: 0x100006528, symSize: 0x3C }
  - { offsetInCU: 0x13E55, offset: 0x13E55, size: 0x8, addend: 0x0, symName: __ZNSt3__117__compressed_pairINS_12basic_stringIcNS_11char_traitsIcEENS_9allocatorIcEEE5__repES5_EC2B7v160006INS_18__default_init_tagERKS5_EEOT_OT0_, symObjAddr: 0x31A8, symBinAddr: 0x100006564, symSize: 0x40 }
  - { offsetInCU: 0x13EAC, offset: 0x13EAC, size: 0x8, addend: 0x0, symName: __ZNSt3__122__compressed_pair_elemINS_9allocatorIcEELi1ELb1EEC2B7v160006IRKS2_vEEOT_, symObjAddr: 0x31E8, symBinAddr: 0x1000065A4, symSize: 0x18 }
  - { offsetInCU: 0x13F0B, offset: 0x13F0B, size: 0x8, addend: 0x0, symName: __ZNKSt3__113basic_istreamIcNS_11char_traitsIcEEE6sentrycvbB7v160006Ev, symObjAddr: 0x3200, symBinAddr: 0x1000065BC, symSize: 0x1C }
  - { offsetInCU: 0x13F2F, offset: 0x13F2F, size: 0x8, addend: 0x0, symName: __ZNSt3__112basic_stringIcNS_11char_traitsIcEENS_9allocatorIcEEE5clearB7v160006Ev, symObjAddr: 0x321C, symBinAddr: 0x1000065D8, symSize: 0x88 }
  - { offsetInCU: 0x13F56, offset: 0x13F56, size: 0x8, addend: 0x0, symName: __ZNSt3__115basic_streambufIcNS_11char_traitsIcEEE6sbumpcB7v160006Ev, symObjAddr: 0x32A4, symBinAddr: 0x100006660, symSize: 0x78 }
  - { offsetInCU: 0x13F7B, offset: 0x13F7B, size: 0x8, addend: 0x0, symName: __ZNSt3__111char_traitsIcE12to_char_typeEi, symObjAddr: 0x331C, symBinAddr: 0x1000066D8, symSize: 0x18 }
  - { offsetInCU: 0x13F9E, offset: 0x13F9E, size: 0x8, addend: 0x0, symName: __ZNSt3__111char_traitsIcE2eqEcc, symObjAddr: 0x3334, symBinAddr: 0x1000066F0, symSize: 0x28 }
  - { offsetInCU: 0x13FCF, offset: 0x13FCF, size: 0x8, addend: 0x0, symName: __ZNKSt3__112basic_stringIcNS_11char_traitsIcEENS_9allocatorIcEEE8max_sizeB7v160006Ev, symObjAddr: 0x335C, symBinAddr: 0x100006718, symSize: 0xAC }
  - { offsetInCU: 0x14021, offset: 0x14021, size: 0x8, addend: 0x0, symName: __ZNSt3__18ios_base18__setstate_nothrowB7v160006Ej, symObjAddr: 0x3408, symBinAddr: 0x1000067C4, symSize: 0x64 }
  - { offsetInCU: 0x14055, offset: 0x14055, size: 0x8, addend: 0x0, symName: __ZNKSt3__19basic_iosIcNS_11char_traitsIcEEE10exceptionsB7v160006Ev, symObjAddr: 0x346C, symBinAddr: 0x100006828, symSize: 0x24 }
  - { offsetInCU: 0x1407A, offset: 0x1407A, size: 0x8, addend: 0x0, symName: __ZNSt3__111char_traitsIcE6assignERcRKc, symObjAddr: 0x34A0, symBinAddr: 0x10000685C, symSize: 0x24 }
  - { offsetInCU: 0x140AB, offset: 0x140AB, size: 0x8, addend: 0x0, symName: __ZNSt3__112basic_stringIcNS_11char_traitsIcEENS_9allocatorIcEEE15__set_long_sizeB7v160006Em, symObjAddr: 0x34C4, symBinAddr: 0x100006880, symSize: 0x38 }
  - { offsetInCU: 0x140DF, offset: 0x140DF, size: 0x8, addend: 0x0, symName: __ZNSt3__112basic_stringIcNS_11char_traitsIcEENS_9allocatorIcEEE16__set_short_sizeB7v160006Em, symObjAddr: 0x34FC, symBinAddr: 0x1000068B8, symSize: 0x78 }
  - { offsetInCU: 0x14113, offset: 0x14113, size: 0x8, addend: 0x0, symName: __ZNSt3__111char_traitsIcE11to_int_typeEc, symObjAddr: 0x3574, symBinAddr: 0x100006930, symSize: 0x14 }
  - { offsetInCU: 0x14140, offset: 0x14140, size: 0x8, addend: 0x0, symName: __ZNSt3__116allocator_traitsINS_9allocatorIcEEE8max_sizeB7v160006IS2_vEEmRKS2_, symObjAddr: 0x3588, symBinAddr: 0x100006944, symSize: 0x24 }
  - { offsetInCU: 0x1416E, offset: 0x1416E, size: 0x8, addend: 0x0, symName: __ZNSt3__114numeric_limitsImE3maxB7v160006Ev, symObjAddr: 0x35AC, symBinAddr: 0x100006968, symSize: 0x14 }
  - { offsetInCU: 0x14182, offset: 0x14182, size: 0x8, addend: 0x0, symName: __ZNKSt3__19allocatorIcE8max_sizeB7v160006Ev, symObjAddr: 0x35C0, symBinAddr: 0x10000697C, symSize: 0x14 }
  - { offsetInCU: 0x141A7, offset: 0x141A7, size: 0x8, addend: 0x0, symName: __ZNSt3__123__libcpp_numeric_limitsImLb1EE3maxB7v160006Ev, symObjAddr: 0x35D4, symBinAddr: 0x100006990, symSize: 0x8 }
  - { offsetInCU: 0x141BB, offset: 0x141BB, size: 0x8, addend: 0x0, symName: __ZNKSt3__18ios_base10exceptionsB7v160006Ev, symObjAddr: 0x35DC, symBinAddr: 0x100006998, symSize: 0x18 }
  - { offsetInCU: 0x141E2, offset: 0x141E2, size: 0x8, addend: 0x0, symName: __ZNSt3__16vectorINS_12basic_stringIcNS_11char_traitsIcEENS_9allocatorIcEEEENS4_IS6_EEE9__end_capB7v160006Ev, symObjAddr: 0x35F4, symBinAddr: 0x1000069B0, symSize: 0x28 }
  - { offsetInCU: 0x14207, offset: 0x14207, size: 0x8, addend: 0x0, symName: __ZNSt3__16vectorINS_12basic_stringIcNS_11char_traitsIcEENS_9allocatorIcEEEENS4_IS6_EEE22__construct_one_at_endB7v160006IJRKS6_EEEvDpOT_, symObjAddr: 0x361C, symBinAddr: 0x1000069D8, symSize: 0x90 }
  - { offsetInCU: 0x14254, offset: 0x14254, size: 0x8, addend: 0x0, symName: __ZNSt3__16vectorINS_12basic_stringIcNS_11char_traitsIcEENS_9allocatorIcEEEENS4_IS6_EEE21__push_back_slow_pathIRKS6_EEvOT_, symObjAddr: 0x36AC, symBinAddr: 0x100006A68, symSize: 0xD8 }
  - { offsetInCU: 0x142B1, offset: 0x142B1, size: 0x8, addend: 0x0, symName: __ZNSt3__117__compressed_pairIPNS_12basic_stringIcNS_11char_traitsIcEENS_9allocatorIcEEEENS4_IS6_EEE5firstB7v160006Ev, symObjAddr: 0x3784, symBinAddr: 0x100006B40, symSize: 0x24 }
  - { offsetInCU: 0x142D6, offset: 0x142D6, size: 0x8, addend: 0x0, symName: __ZNSt3__122__compressed_pair_elemIPNS_12basic_stringIcNS_11char_traitsIcEENS_9allocatorIcEEEELi0ELb0EE5__getB7v160006Ev, symObjAddr: 0x37A8, symBinAddr: 0x100006B64, symSize: 0x14 }
  - { offsetInCU: 0x14314, offset: 0x14314, size: 0x8, addend: 0x0, symName: __ZNSt3__16vectorINS_12basic_stringIcNS_11char_traitsIcEENS_9allocatorIcEEEENS4_IS6_EEE21_ConstructTransactionC1B7v160006ERS8_m, symObjAddr: 0x37BC, symBinAddr: 0x100006B78, symSize: 0x3C }
  - { offsetInCU: 0x1435B, offset: 0x1435B, size: 0x8, addend: 0x0, symName: __ZNSt3__116allocator_traitsINS_9allocatorINS_12basic_stringIcNS_11char_traitsIcEENS1_IcEEEEEEE9constructB7v160006IS6_JRKS6_EvEEvRS7_PT_DpOT0_, symObjAddr: 0x37F8, symBinAddr: 0x100006BB4, symSize: 0x34 }
  - { offsetInCU: 0x143B2, offset: 0x143B2, size: 0x8, addend: 0x0, symName: __ZNSt3__16vectorINS_12basic_stringIcNS_11char_traitsIcEENS_9allocatorIcEEEENS4_IS6_EEE7__allocB7v160006Ev, symObjAddr: 0x382C, symBinAddr: 0x100006BE8, symSize: 0x28 }
  - { offsetInCU: 0x143D7, offset: 0x143D7, size: 0x8, addend: 0x0, symName: __ZNSt3__16vectorINS_12basic_stringIcNS_11char_traitsIcEENS_9allocatorIcEEEENS4_IS6_EEE21_ConstructTransactionD1B7v160006Ev, symObjAddr: 0x3868, symBinAddr: 0x100006C24, symSize: 0x2C }
  - { offsetInCU: 0x14400, offset: 0x14400, size: 0x8, addend: 0x0, symName: __ZNSt3__16vectorINS_12basic_stringIcNS_11char_traitsIcEENS_9allocatorIcEEEENS4_IS6_EEE21_ConstructTransactionC2B7v160006ERS8_m, symObjAddr: 0x3894, symBinAddr: 0x100006C50, symSize: 0x4C }
  - { offsetInCU: 0x14447, offset: 0x14447, size: 0x8, addend: 0x0, symName: __ZNSt3__19allocatorINS_12basic_stringIcNS_11char_traitsIcEENS0_IcEEEEE9constructB7v160006IS5_JRKS5_EEEvPT_DpOT0_, symObjAddr: 0x38E0, symBinAddr: 0x100006C9C, symSize: 0x30 }
  - { offsetInCU: 0x1449C, offset: 0x1449C, size: 0x8, addend: 0x0, symName: __ZNSt3__117__compressed_pairIPNS_12basic_stringIcNS_11char_traitsIcEENS_9allocatorIcEEEENS4_IS6_EEE6secondB7v160006Ev, symObjAddr: 0x3910, symBinAddr: 0x100006CCC, symSize: 0x24 }
  - { offsetInCU: 0x144C1, offset: 0x144C1, size: 0x8, addend: 0x0, symName: __ZNSt3__122__compressed_pair_elemINS_9allocatorINS_12basic_stringIcNS_11char_traitsIcEENS1_IcEEEEEELi1ELb1EE5__getB7v160006Ev, symObjAddr: 0x3934, symBinAddr: 0x100006CF0, symSize: 0x14 }
  - { offsetInCU: 0x144E6, offset: 0x144E6, size: 0x8, addend: 0x0, symName: __ZNSt3__16vectorINS_12basic_stringIcNS_11char_traitsIcEENS_9allocatorIcEEEENS4_IS6_EEE21_ConstructTransactionD2B7v160006Ev, symObjAddr: 0x3948, symBinAddr: 0x100006D04, symSize: 0x20 }
  - { offsetInCU: 0x1450E, offset: 0x1450E, size: 0x8, addend: 0x0, symName: __ZNKSt3__16vectorINS_12basic_stringIcNS_11char_traitsIcEENS_9allocatorIcEEEENS4_IS6_EEE11__recommendB7v160006Em, symObjAddr: 0x3968, symBinAddr: 0x100006D24, symSize: 0xB4 }
  - { offsetInCU: 0x14562, offset: 0x14562, size: 0x8, addend: 0x0, symName: __ZNKSt3__16vectorINS_12basic_stringIcNS_11char_traitsIcEENS_9allocatorIcEEEENS4_IS6_EEE4sizeB7v160006Ev, symObjAddr: 0x3A1C, symBinAddr: 0x100006DD8, symSize: 0x28 }
  - { offsetInCU: 0x14587, offset: 0x14587, size: 0x8, addend: 0x0, symName: __ZNSt3__114__split_bufferINS_12basic_stringIcNS_11char_traitsIcEENS_9allocatorIcEEEERNS4_IS6_EEEC1EmmS8_, symObjAddr: 0x3A44, symBinAddr: 0x100006E00, symSize: 0x44 }
  - { offsetInCU: 0x145DC, offset: 0x145DC, size: 0x8, addend: 0x0, symName: __ZNSt3__114__split_bufferINS_12basic_stringIcNS_11char_traitsIcEENS_9allocatorIcEEEERNS4_IS6_EEED1Ev, symObjAddr: 0x3BA0, symBinAddr: 0x100006F5C, symSize: 0x2C }
  - { offsetInCU: 0x14606, offset: 0x14606, size: 0x8, addend: 0x0, symName: __ZNKSt3__16vectorINS_12basic_stringIcNS_11char_traitsIcEENS_9allocatorIcEEEENS4_IS6_EEE8max_sizeEv, symObjAddr: 0x3BCC, symBinAddr: 0x100006F88, symSize: 0x60 }
  - { offsetInCU: 0x1462D, offset: 0x1462D, size: 0x8, addend: 0x0, symName: __ZNKSt3__16vectorINS_12basic_stringIcNS_11char_traitsIcEENS_9allocatorIcEEEENS4_IS6_EEE20__throw_length_errorB7v160006Ev, symObjAddr: 0x3C2C, symBinAddr: 0x100006FE8, symSize: 0x1C }
  - { offsetInCU: 0x14652, offset: 0x14652, size: 0x8, addend: 0x0, symName: __ZNKSt3__16vectorINS_12basic_stringIcNS_11char_traitsIcEENS_9allocatorIcEEEENS4_IS6_EEE8capacityB7v160006Ev, symObjAddr: 0x3C48, symBinAddr: 0x100007004, symSize: 0x40 }
  - { offsetInCU: 0x14681, offset: 0x14681, size: 0x8, addend: 0x0, symName: __ZNSt3__116allocator_traitsINS_9allocatorINS_12basic_stringIcNS_11char_traitsIcEENS1_IcEEEEEEE8max_sizeB7v160006IS7_vEEmRKS7_, symObjAddr: 0x3CE0, symBinAddr: 0x10000709C, symSize: 0x24 }
  - { offsetInCU: 0x146AF, offset: 0x146AF, size: 0x8, addend: 0x0, symName: __ZNKSt3__16vectorINS_12basic_stringIcNS_11char_traitsIcEENS_9allocatorIcEEEENS4_IS6_EEE7__allocB7v160006Ev, symObjAddr: 0x3D04, symBinAddr: 0x1000070C0, symSize: 0x28 }
  - { offsetInCU: 0x146D4, offset: 0x146D4, size: 0x8, addend: 0x0, symName: __ZNSt3__114numeric_limitsIlE3maxB7v160006Ev, symObjAddr: 0x3D2C, symBinAddr: 0x1000070E8, symSize: 0x14 }
  - { offsetInCU: 0x146FC, offset: 0x146FC, size: 0x8, addend: 0x0, symName: __ZNKSt3__16__lessImmEclB7v160006ERKmS3_, symObjAddr: 0x3D94, symBinAddr: 0x100007150, symSize: 0x34 }
  - { offsetInCU: 0x1473D, offset: 0x1473D, size: 0x8, addend: 0x0, symName: __ZNKSt3__19allocatorINS_12basic_stringIcNS_11char_traitsIcEENS0_IcEEEEE8max_sizeB7v160006Ev, symObjAddr: 0x3DC8, symBinAddr: 0x100007184, symSize: 0x18 }
  - { offsetInCU: 0x14762, offset: 0x14762, size: 0x8, addend: 0x0, symName: __ZNKSt3__117__compressed_pairIPNS_12basic_stringIcNS_11char_traitsIcEENS_9allocatorIcEEEENS4_IS6_EEE6secondB7v160006Ev, symObjAddr: 0x3DE0, symBinAddr: 0x10000719C, symSize: 0x24 }
  - { offsetInCU: 0x14787, offset: 0x14787, size: 0x8, addend: 0x0, symName: __ZNKSt3__122__compressed_pair_elemINS_9allocatorINS_12basic_stringIcNS_11char_traitsIcEENS1_IcEEEEEELi1ELb1EE5__getB7v160006Ev, symObjAddr: 0x3E04, symBinAddr: 0x1000071C0, symSize: 0x14 }
  - { offsetInCU: 0x147AC, offset: 0x147AC, size: 0x8, addend: 0x0, symName: __ZNSt3__123__libcpp_numeric_limitsIlLb1EE3maxB7v160006Ev, symObjAddr: 0x3E18, symBinAddr: 0x1000071D4, symSize: 0x8 }
  - { offsetInCU: 0x147C0, offset: 0x147C0, size: 0x8, addend: 0x0, symName: __ZNSt12length_errorC1B7v160006EPKc, symObjAddr: 0x3E84, symBinAddr: 0x100007240, symSize: 0x34 }
  - { offsetInCU: 0x147F7, offset: 0x147F7, size: 0x8, addend: 0x0, symName: __ZNSt12length_errorC2B7v160006EPKc, symObjAddr: 0x3EB8, symBinAddr: 0x100007274, symSize: 0x4C }
  - { offsetInCU: 0x1482E, offset: 0x1482E, size: 0x8, addend: 0x0, symName: __ZNKSt3__16vectorINS_12basic_stringIcNS_11char_traitsIcEENS_9allocatorIcEEEENS4_IS6_EEE9__end_capB7v160006Ev, symObjAddr: 0x3F04, symBinAddr: 0x1000072C0, symSize: 0x28 }
  - { offsetInCU: 0x14853, offset: 0x14853, size: 0x8, addend: 0x0, symName: __ZNKSt3__117__compressed_pairIPNS_12basic_stringIcNS_11char_traitsIcEENS_9allocatorIcEEEENS4_IS6_EEE5firstB7v160006Ev, symObjAddr: 0x3F2C, symBinAddr: 0x1000072E8, symSize: 0x24 }
  - { offsetInCU: 0x14878, offset: 0x14878, size: 0x8, addend: 0x0, symName: __ZNKSt3__122__compressed_pair_elemIPNS_12basic_stringIcNS_11char_traitsIcEENS_9allocatorIcEEEELi0ELb0EE5__getB7v160006Ev, symObjAddr: 0x3F50, symBinAddr: 0x10000730C, symSize: 0x14 }
  - { offsetInCU: 0x1489D, offset: 0x1489D, size: 0x8, addend: 0x0, symName: __ZNSt3__114__split_bufferINS_12basic_stringIcNS_11char_traitsIcEENS_9allocatorIcEEEERNS4_IS6_EEEC2EmmS8_, symObjAddr: 0x3FB8, symBinAddr: 0x100007374, symSize: 0xE0 }
  - { offsetInCU: 0x14910, offset: 0x14910, size: 0x8, addend: 0x0, symName: __ZNSt3__117__compressed_pairIPNS_12basic_stringIcNS_11char_traitsIcEENS_9allocatorIcEEEERNS4_IS6_EEEC1B7v160006IDnS9_EEOT_OT0_, symObjAddr: 0x4098, symBinAddr: 0x100007454, symSize: 0x3C }
  - { offsetInCU: 0x14967, offset: 0x14967, size: 0x8, addend: 0x0, symName: __ZNSt3__114__split_bufferINS_12basic_stringIcNS_11char_traitsIcEENS_9allocatorIcEEEERNS4_IS6_EEE7__allocB7v160006Ev, symObjAddr: 0x4114, symBinAddr: 0x1000074D0, symSize: 0x28 }
  - { offsetInCU: 0x1498C, offset: 0x1498C, size: 0x8, addend: 0x0, symName: __ZNSt3__114__split_bufferINS_12basic_stringIcNS_11char_traitsIcEENS_9allocatorIcEEEERNS4_IS6_EEE9__end_capB7v160006Ev, symObjAddr: 0x413C, symBinAddr: 0x1000074F8, symSize: 0x28 }
  - { offsetInCU: 0x149B1, offset: 0x149B1, size: 0x8, addend: 0x0, symName: __ZNSt3__117__compressed_pairIPNS_12basic_stringIcNS_11char_traitsIcEENS_9allocatorIcEEEERNS4_IS6_EEEC2B7v160006IDnS9_EEOT_OT0_, symObjAddr: 0x4164, symBinAddr: 0x100007520, symSize: 0x48 }
  - { offsetInCU: 0x14A08, offset: 0x14A08, size: 0x8, addend: 0x0, symName: __ZNSt3__122__compressed_pair_elemIRNS_9allocatorINS_12basic_stringIcNS_11char_traitsIcEENS1_IcEEEEEELi1ELb0EEC2B7v160006IS8_vEEOT_, symObjAddr: 0x41AC, symBinAddr: 0x100007568, symSize: 0x20 }
  - { offsetInCU: 0x14A49, offset: 0x14A49, size: 0x8, addend: 0x0, symName: __ZNSt3__19allocatorINS_12basic_stringIcNS_11char_traitsIcEENS0_IcEEEEE8allocateB7v160006Em, symObjAddr: 0x41CC, symBinAddr: 0x100007588, symSize: 0x5C }
  - { offsetInCU: 0x14A7C, offset: 0x14A7C, size: 0x8, addend: 0x0, symName: __ZNSt3__117__compressed_pairIPNS_12basic_stringIcNS_11char_traitsIcEENS_9allocatorIcEEEERNS4_IS6_EEE6secondB7v160006Ev, symObjAddr: 0x42A8, symBinAddr: 0x100007664, symSize: 0x28 }
  - { offsetInCU: 0x14AA1, offset: 0x14AA1, size: 0x8, addend: 0x0, symName: __ZNSt3__122__compressed_pair_elemIRNS_9allocatorINS_12basic_stringIcNS_11char_traitsIcEENS1_IcEEEEEELi1ELb0EE5__getB7v160006Ev, symObjAddr: 0x42D0, symBinAddr: 0x10000768C, symSize: 0x18 }
  - { offsetInCU: 0x14AC6, offset: 0x14AC6, size: 0x8, addend: 0x0, symName: __ZNSt3__117__compressed_pairIPNS_12basic_stringIcNS_11char_traitsIcEENS_9allocatorIcEEEERNS4_IS6_EEE5firstB7v160006Ev, symObjAddr: 0x42E8, symBinAddr: 0x1000076A4, symSize: 0x24 }
  - { offsetInCU: 0x14AEB, offset: 0x14AEB, size: 0x8, addend: 0x0, symName: __ZNKSt3__16vectorINS_12basic_stringIcNS_11char_traitsIcEENS_9allocatorIcEEEENS4_IS6_EEE17__annotate_deleteB7v160006Ev, symObjAddr: 0x430C, symBinAddr: 0x1000076C8, symSize: 0xD4 }
  - { offsetInCU: 0x14B10, offset: 0x14B10, size: 0x8, addend: 0x0, symName: __ZNSt3__116reverse_iteratorIPNS_12basic_stringIcNS_11char_traitsIcEENS_9allocatorIcEEEEEC1B7v160006ES7_, symObjAddr: 0x450C, symBinAddr: 0x1000078C8, symSize: 0x34 }
  - { offsetInCU: 0x14B47, offset: 0x14B47, size: 0x8, addend: 0x0, symName: __ZNKSt3__116reverse_iteratorIPNS_12basic_stringIcNS_11char_traitsIcEENS_9allocatorIcEEEEE4baseB7v160006Ev, symObjAddr: 0x4540, symBinAddr: 0x1000078FC, symSize: 0x18 }
  - { offsetInCU: 0x14B6C, offset: 0x14B6C, size: 0x8, addend: 0x0, symName: __ZNKSt3__16vectorINS_12basic_stringIcNS_11char_traitsIcEENS_9allocatorIcEEEENS4_IS6_EEE14__annotate_newB7v160006Em, symObjAddr: 0x4594, symBinAddr: 0x100007950, symSize: 0xC8 }
  - { offsetInCU: 0x14BA0, offset: 0x14BA0, size: 0x8, addend: 0x0, symName: __ZNKSt3__16vectorINS_12basic_stringIcNS_11char_traitsIcEENS_9allocatorIcEEEENS4_IS6_EEE31__annotate_contiguous_containerB7v160006EPKvSA_SA_SA_, symObjAddr: 0x466C, symBinAddr: 0x100007A28, symSize: 0x20 }
  - { offsetInCU: 0x14BF1, offset: 0x14BF1, size: 0x8, addend: 0x0, symName: __ZNKSt3__16vectorINS_12basic_stringIcNS_11char_traitsIcEENS_9allocatorIcEEEENS4_IS6_EEE4dataB7v160006Ev, symObjAddr: 0x468C, symBinAddr: 0x100007A48, symSize: 0x28 }
  - { offsetInCU: 0x14C16, offset: 0x14C16, size: 0x8, addend: 0x0, symName: __ZNSt3__129_AllocatorDestroyRangeReverseINS_9allocatorINS_12basic_stringIcNS_11char_traitsIcEENS1_IcEEEEEENS_16reverse_iteratorIPS6_EEEC1B7v160006ERS7_RSA_SD_, symObjAddr: 0x4700, symBinAddr: 0x100007ABC, symSize: 0x44 }
  - { offsetInCU: 0x14C71, offset: 0x14C71, size: 0x8, addend: 0x0, symName: __ZNSt3__116allocator_traitsINS_9allocatorINS_12basic_stringIcNS_11char_traitsIcEENS1_IcEEEEEEE9constructB7v160006IS6_JS6_EvEEvRS7_PT_DpOT0_, symObjAddr: 0x478C, symBinAddr: 0x100007B48, symSize: 0x34 }
  - { offsetInCU: 0x14CC8, offset: 0x14CC8, size: 0x8, addend: 0x0, symName: __ZNKSt3__116reverse_iteratorIPNS_12basic_stringIcNS_11char_traitsIcEENS_9allocatorIcEEEEEdeB7v160006Ev, symObjAddr: 0x47E4, symBinAddr: 0x100007BA0, symSize: 0x28 }
  - { offsetInCU: 0x14CFB, offset: 0x14CFB, size: 0x8, addend: 0x0, symName: __ZNSt3__116reverse_iteratorIPNS_12basic_stringIcNS_11char_traitsIcEENS_9allocatorIcEEEEEppB7v160006Ev, symObjAddr: 0x480C, symBinAddr: 0x100007BC8, symSize: 0x20 }
  - { offsetInCU: 0x14D20, offset: 0x14D20, size: 0x8, addend: 0x0, symName: __ZNSt3__128__exception_guard_exceptionsINS_29_AllocatorDestroyRangeReverseINS_9allocatorINS_12basic_stringIcNS_11char_traitsIcEENS2_IcEEEEEENS_16reverse_iteratorIPS7_EEEEE10__completeB7v160006Ev, symObjAddr: 0x482C, symBinAddr: 0x100007BE8, symSize: 0x1C }
  - { offsetInCU: 0x14D45, offset: 0x14D45, size: 0x8, addend: 0x0, symName: __ZNSt3__128__exception_guard_exceptionsINS_29_AllocatorDestroyRangeReverseINS_9allocatorINS_12basic_stringIcNS_11char_traitsIcEENS2_IcEEEEEENS_16reverse_iteratorIPS7_EEEEED1B7v160006Ev, symObjAddr: 0x4848, symBinAddr: 0x100007C04, symSize: 0x2C }
  - { offsetInCU: 0x14D6E, offset: 0x14D6E, size: 0x8, addend: 0x0, symName: __ZNSt3__128__exception_guard_exceptionsINS_29_AllocatorDestroyRangeReverseINS_9allocatorINS_12basic_stringIcNS_11char_traitsIcEENS2_IcEEEEEENS_16reverse_iteratorIPS7_EEEEEC1B7v160006ESC_, symObjAddr: 0x4874, symBinAddr: 0x100007C30, symSize: 0x34 }
  - { offsetInCU: 0x14DA6, offset: 0x14DA6, size: 0x8, addend: 0x0, symName: __ZNSt3__128__exception_guard_exceptionsINS_29_AllocatorDestroyRangeReverseINS_9allocatorINS_12basic_stringIcNS_11char_traitsIcEENS2_IcEEEEEENS_16reverse_iteratorIPS7_EEEEEC2B7v160006ESC_, symObjAddr: 0x48A8, symBinAddr: 0x100007C64, symSize: 0x30 }
  - { offsetInCU: 0x14DDE, offset: 0x14DDE, size: 0x8, addend: 0x0, symName: __ZNSt3__129_AllocatorDestroyRangeReverseINS_9allocatorINS_12basic_stringIcNS_11char_traitsIcEENS1_IcEEEEEENS_16reverse_iteratorIPS6_EEEC2B7v160006ERS7_RSA_SD_, symObjAddr: 0x48D8, symBinAddr: 0x100007C94, symSize: 0x38 }
  - { offsetInCU: 0x14E34, offset: 0x14E34, size: 0x8, addend: 0x0, symName: __ZNSt3__19allocatorINS_12basic_stringIcNS_11char_traitsIcEENS0_IcEEEEE9constructB7v160006IS5_JS5_EEEvPT_DpOT0_, symObjAddr: 0x4910, symBinAddr: 0x100007CCC, symSize: 0x30 }
  - { offsetInCU: 0x14E89, offset: 0x14E89, size: 0x8, addend: 0x0, symName: __ZNSt3__112basic_stringIcNS_11char_traitsIcEENS_9allocatorIcEEEC1B7v160006EOS5_, symObjAddr: 0x4940, symBinAddr: 0x100007CFC, symSize: 0x34 }
  - { offsetInCU: 0x14EC1, offset: 0x14EC1, size: 0x8, addend: 0x0, symName: __ZNSt3__112basic_stringIcNS_11char_traitsIcEENS_9allocatorIcEEEC2B7v160006EOS5_, symObjAddr: 0x4974, symBinAddr: 0x100007D30, symSize: 0x80 }
  - { offsetInCU: 0x14EFE, offset: 0x14EFE, size: 0x8, addend: 0x0, symName: __ZNSt3__119__to_address_helperINS_16reverse_iteratorIPNS_12basic_stringIcNS_11char_traitsIcEENS_9allocatorIcEEEEEEvE6__callB7v160006ERKS9_, symObjAddr: 0x4A08, symBinAddr: 0x100007DC4, symSize: 0x38 }
  - { offsetInCU: 0x14F21, offset: 0x14F21, size: 0x8, addend: 0x0, symName: __ZNKSt3__116reverse_iteratorIPNS_12basic_stringIcNS_11char_traitsIcEENS_9allocatorIcEEEEEptB7v160006Ev, symObjAddr: 0x4A40, symBinAddr: 0x100007DFC, symSize: 0x24 }
  - { offsetInCU: 0x14F46, offset: 0x14F46, size: 0x8, addend: 0x0, symName: __ZNSt3__128__exception_guard_exceptionsINS_29_AllocatorDestroyRangeReverseINS_9allocatorINS_12basic_stringIcNS_11char_traitsIcEENS2_IcEEEEEENS_16reverse_iteratorIPS7_EEEEED2B7v160006Ev, symObjAddr: 0x4A64, symBinAddr: 0x100007E20, symSize: 0x50 }
  - { offsetInCU: 0x14F6F, offset: 0x14F6F, size: 0x8, addend: 0x0, symName: __ZNKSt3__129_AllocatorDestroyRangeReverseINS_9allocatorINS_12basic_stringIcNS_11char_traitsIcEENS1_IcEEEEEENS_16reverse_iteratorIPS6_EEEclB7v160006Ev, symObjAddr: 0x4AB4, symBinAddr: 0x100007E70, symSize: 0xB4 }
  - { offsetInCU: 0x14F95, offset: 0x14F95, size: 0x8, addend: 0x0, symName: __ZNSt3__116reverse_iteratorINS0_IPNS_12basic_stringIcNS_11char_traitsIcEENS_9allocatorIcEEEEEEEC1B7v160006ES8_, symObjAddr: 0x4BD8, symBinAddr: 0x100007F94, symSize: 0x3C }
  - { offsetInCU: 0x14FCC, offset: 0x14FCC, size: 0x8, addend: 0x0, symName: __ZNSt3__116allocator_traitsINS_9allocatorINS_12basic_stringIcNS_11char_traitsIcEENS1_IcEEEEEEE7destroyB7v160006IS6_vEEvRS7_PT_, symObjAddr: 0x4C74, symBinAddr: 0x100008030, symSize: 0x2C }
  - { offsetInCU: 0x15009, offset: 0x15009, size: 0x8, addend: 0x0, symName: __ZNSt3__116reverse_iteratorINS0_IPNS_12basic_stringIcNS_11char_traitsIcEENS_9allocatorIcEEEEEEEppB7v160006Ev, symObjAddr: 0x4CC4, symBinAddr: 0x100008080, symSize: 0x30 }
  - { offsetInCU: 0x1502E, offset: 0x1502E, size: 0x8, addend: 0x0, symName: __ZNKSt3__116reverse_iteratorINS0_IPNS_12basic_stringIcNS_11char_traitsIcEENS_9allocatorIcEEEEEEE4baseB7v160006Ev, symObjAddr: 0x4CF4, symBinAddr: 0x1000080B0, symSize: 0x24 }
  - { offsetInCU: 0x15053, offset: 0x15053, size: 0x8, addend: 0x0, symName: __ZNSt3__19allocatorINS_12basic_stringIcNS_11char_traitsIcEENS0_IcEEEEE7destroyB7v160006EPS5_, symObjAddr: 0x4D18, symBinAddr: 0x1000080D4, symSize: 0x28 }
  - { offsetInCU: 0x1508B, offset: 0x1508B, size: 0x8, addend: 0x0, symName: __ZNSt3__119__to_address_helperINS_16reverse_iteratorINS1_IPNS_12basic_stringIcNS_11char_traitsIcEENS_9allocatorIcEEEEEEEEvE6__callB7v160006ERKSA_, symObjAddr: 0x4D40, symBinAddr: 0x1000080FC, symSize: 0x38 }
  - { offsetInCU: 0x150AE, offset: 0x150AE, size: 0x8, addend: 0x0, symName: __ZNKSt3__116reverse_iteratorINS0_IPNS_12basic_stringIcNS_11char_traitsIcEENS_9allocatorIcEEEEEEEptB7v160006Ev, symObjAddr: 0x4D78, symBinAddr: 0x100008134, symSize: 0x24 }
  - { offsetInCU: 0x150D3, offset: 0x150D3, size: 0x8, addend: 0x0, symName: __ZNKSt3__116reverse_iteratorINS0_IPNS_12basic_stringIcNS_11char_traitsIcEENS_9allocatorIcEEEEEEEdeB7v160006Ev, symObjAddr: 0x4D9C, symBinAddr: 0x100008158, symSize: 0x34 }
  - { offsetInCU: 0x15106, offset: 0x15106, size: 0x8, addend: 0x0, symName: __ZNSt3__116reverse_iteratorIPNS_12basic_stringIcNS_11char_traitsIcEENS_9allocatorIcEEEEEmmB7v160006Ev, symObjAddr: 0x4DD0, symBinAddr: 0x10000818C, symSize: 0x20 }
  - { offsetInCU: 0x1512B, offset: 0x1512B, size: 0x8, addend: 0x0, symName: __ZNSt3__116reverse_iteratorINS0_IPNS_12basic_stringIcNS_11char_traitsIcEENS_9allocatorIcEEEEEEEC2B7v160006ES8_, symObjAddr: 0x4DF0, symBinAddr: 0x1000081AC, symSize: 0x2C }
  - { offsetInCU: 0x15162, offset: 0x15162, size: 0x8, addend: 0x0, symName: __ZNSt3__116reverse_iteratorIPNS_12basic_stringIcNS_11char_traitsIcEENS_9allocatorIcEEEEEC2B7v160006ES7_, symObjAddr: 0x4E1C, symBinAddr: 0x1000081D8, symSize: 0x28 }
  - { offsetInCU: 0x15199, offset: 0x15199, size: 0x8, addend: 0x0, symName: __ZNSt3__114__split_bufferINS_12basic_stringIcNS_11char_traitsIcEENS_9allocatorIcEEEERNS4_IS6_EEED2Ev, symObjAddr: 0x4E44, symBinAddr: 0x100008200, symSize: 0x8C }
  - { offsetInCU: 0x151C4, offset: 0x151C4, size: 0x8, addend: 0x0, symName: __ZNSt3__114__split_bufferINS_12basic_stringIcNS_11char_traitsIcEENS_9allocatorIcEEEERNS4_IS6_EEE5clearB7v160006Ev, symObjAddr: 0x4ED0, symBinAddr: 0x10000828C, symSize: 0x28 }
  - { offsetInCU: 0x151E9, offset: 0x151E9, size: 0x8, addend: 0x0, symName: __ZNSt3__116allocator_traitsINS_9allocatorINS_12basic_stringIcNS_11char_traitsIcEENS1_IcEEEEEEE10deallocateB7v160006ERS7_PS6_m, symObjAddr: 0x4EF8, symBinAddr: 0x1000082B4, symSize: 0x34 }
  - { offsetInCU: 0x1522B, offset: 0x1522B, size: 0x8, addend: 0x0, symName: __ZNKSt3__114__split_bufferINS_12basic_stringIcNS_11char_traitsIcEENS_9allocatorIcEEEERNS4_IS6_EEE8capacityB7v160006Ev, symObjAddr: 0x4F2C, symBinAddr: 0x1000082E8, symSize: 0x40 }
  - { offsetInCU: 0x15250, offset: 0x15250, size: 0x8, addend: 0x0, symName: __ZNSt3__114__split_bufferINS_12basic_stringIcNS_11char_traitsIcEENS_9allocatorIcEEEERNS4_IS6_EEE17__destruct_at_endB7v160006EPS6_, symObjAddr: 0x4F6C, symBinAddr: 0x100008328, symSize: 0x2C }
  - { offsetInCU: 0x15282, offset: 0x15282, size: 0x8, addend: 0x0, symName: __ZNSt3__114__split_bufferINS_12basic_stringIcNS_11char_traitsIcEENS_9allocatorIcEEEERNS4_IS6_EEE17__destruct_at_endB7v160006EPS6_NS_17integral_constantIbLb0EEE, symObjAddr: 0x4F98, symBinAddr: 0x100008354, symSize: 0x80 }
  - { offsetInCU: 0x152C2, offset: 0x152C2, size: 0x8, addend: 0x0, symName: __ZNSt3__19allocatorINS_12basic_stringIcNS_11char_traitsIcEENS0_IcEEEEE10deallocateB7v160006EPS5_m, symObjAddr: 0x5018, symBinAddr: 0x1000083D4, symSize: 0x44 }
  - { offsetInCU: 0x15303, offset: 0x15303, size: 0x8, addend: 0x0, symName: __ZNKSt3__114__split_bufferINS_12basic_stringIcNS_11char_traitsIcEENS_9allocatorIcEEEERNS4_IS6_EEE9__end_capB7v160006Ev, symObjAddr: 0x50D8, symBinAddr: 0x100008494, symSize: 0x28 }
  - { offsetInCU: 0x15328, offset: 0x15328, size: 0x8, addend: 0x0, symName: __ZNKSt3__117__compressed_pairIPNS_12basic_stringIcNS_11char_traitsIcEENS_9allocatorIcEEEERNS4_IS6_EEE5firstB7v160006Ev, symObjAddr: 0x5100, symBinAddr: 0x1000084BC, symSize: 0x24 }
  - { offsetInCU: 0x1534D, offset: 0x1534D, size: 0x8, addend: 0x0, symName: __ZNSt3__119basic_istringstreamIcNS_11char_traitsIcEENS_9allocatorIcEEED2Ev, symObjAddr: 0x5124, symBinAddr: 0x1000084E0, symSize: 0x64 }
  - { offsetInCU: 0x15385, offset: 0x15385, size: 0x8, addend: 0x0, symName: __ZTv0_n24_NSt3__119basic_istringstreamIcNS_11char_traitsIcEENS_9allocatorIcEEED1Ev, symObjAddr: 0x5188, symBinAddr: 0x100008544, symSize: 0x28 }
  - { offsetInCU: 0x153A1, offset: 0x153A1, size: 0x8, addend: 0x0, symName: __ZNSt3__115basic_stringbufIcNS_11char_traitsIcEENS_9allocatorIcEEED1Ev, symObjAddr: 0x51B0, symBinAddr: 0x10000856C, symSize: 0x2C }
  - { offsetInCU: 0x153CD, offset: 0x153CD, size: 0x8, addend: 0x0, symName: __ZNSt3__115basic_stringbufIcNS_11char_traitsIcEENS_9allocatorIcEEED2Ev, symObjAddr: 0x51DC, symBinAddr: 0x100008598, symSize: 0x48 }
  - { offsetInCU: 0x153F9, offset: 0x153F9, size: 0x8, addend: 0x0, symName: __ZNSt3__16vectorIdNS_9allocatorIdEEEC2B7v160006Ev, symObjAddr: 0x5224, symBinAddr: 0x1000085E0, symSize: 0x58 }
  - { offsetInCU: 0x15422, offset: 0x15422, size: 0x8, addend: 0x0, symName: __ZNSt3__117__compressed_pairIPdNS_9allocatorIdEEEC1B7v160006IDnNS_18__default_init_tagEEEOT_OT0_, symObjAddr: 0x527C, symBinAddr: 0x100008638, symSize: 0x3C }
  - { offsetInCU: 0x15479, offset: 0x15479, size: 0x8, addend: 0x0, symName: __ZNSt3__117__compressed_pairIPdNS_9allocatorIdEEEC2B7v160006IDnNS_18__default_init_tagEEEOT_OT0_, symObjAddr: 0x52C8, symBinAddr: 0x100008684, symSize: 0x40 }
  - { offsetInCU: 0x154D0, offset: 0x154D0, size: 0x8, addend: 0x0, symName: __ZNSt3__122__compressed_pair_elemIPdLi0ELb0EEC2B7v160006IDnvEEOT_, symObjAddr: 0x5308, symBinAddr: 0x1000086C4, symSize: 0x1C }
  - { offsetInCU: 0x15511, offset: 0x15511, size: 0x8, addend: 0x0, symName: __ZNSt3__122__compressed_pair_elemINS_9allocatorIdEELi1ELb1EEC2B7v160006ENS_18__default_init_tagE, symObjAddr: 0x5324, symBinAddr: 0x1000086E0, symSize: 0x2C }
  - { offsetInCU: 0x15545, offset: 0x15545, size: 0x8, addend: 0x0, symName: __ZNSt3__19allocatorIdEC2B7v160006Ev, symObjAddr: 0x5350, symBinAddr: 0x10000870C, symSize: 0x2C }
  - { offsetInCU: 0x1556E, offset: 0x1556E, size: 0x8, addend: 0x0, symName: __ZNSt3__116__non_trivial_ifILb1ENS_9allocatorIdEEEC2B7v160006Ev, symObjAddr: 0x537C, symBinAddr: 0x100008738, symSize: 0x14 }
  - { offsetInCU: 0x15597, offset: 0x15597, size: 0x8, addend: 0x0, symName: __ZNSt3__115basic_streambufIcNS_11char_traitsIcEEE5sgetcB7v160006Ev, symObjAddr: 0x5390, symBinAddr: 0x10000874C, symSize: 0x70 }
  - { offsetInCU: 0x155BC, offset: 0x155BC, size: 0x8, addend: 0x0, symName: __ZNKSt3__15ctypeIcE2isB7v160006Ejc, symObjAddr: 0x5400, symBinAddr: 0x1000087BC, symSize: 0x7C }
  - { offsetInCU: 0x155FE, offset: 0x155FE, size: 0x8, addend: 0x0, symName: __Z7isasciii, symObjAddr: 0x547C, symBinAddr: 0x100008838, symSize: 0x24 }
  - { offsetInCU: 0x1562B, offset: 0x1562B, size: 0x8, addend: 0x0, symName: __ZNSt3__16vectorIdNS_9allocatorIdEEE9__end_capB7v160006Ev, symObjAddr: 0x54A0, symBinAddr: 0x10000885C, symSize: 0x28 }
  - { offsetInCU: 0x15655, offset: 0x15655, size: 0x8, addend: 0x0, symName: __ZNSt3__16vectorIdNS_9allocatorIdEEE22__construct_one_at_endB7v160006IJdEEEvDpOT_, symObjAddr: 0x54C8, symBinAddr: 0x100008884, symSize: 0x90 }
  - { offsetInCU: 0x156A2, offset: 0x156A2, size: 0x8, addend: 0x0, symName: __ZNSt3__16vectorIdNS_9allocatorIdEEE21__push_back_slow_pathIdEEvOT_, symObjAddr: 0x5558, symBinAddr: 0x100008914, symSize: 0xD8 }
  - { offsetInCU: 0x156FF, offset: 0x156FF, size: 0x8, addend: 0x0, symName: __ZNSt3__117__compressed_pairIPdNS_9allocatorIdEEE5firstB7v160006Ev, symObjAddr: 0x5630, symBinAddr: 0x1000089EC, symSize: 0x24 }
  - { offsetInCU: 0x15724, offset: 0x15724, size: 0x8, addend: 0x0, symName: __ZNSt3__122__compressed_pair_elemIPdLi0ELb0EE5__getB7v160006Ev, symObjAddr: 0x5654, symBinAddr: 0x100008A10, symSize: 0x14 }
  - { offsetInCU: 0x15762, offset: 0x15762, size: 0x8, addend: 0x0, symName: __ZNSt3__16vectorIdNS_9allocatorIdEEE21_ConstructTransactionC1B7v160006ERS3_m, symObjAddr: 0x5668, symBinAddr: 0x100008A24, symSize: 0x3C }
  - { offsetInCU: 0x157A9, offset: 0x157A9, size: 0x8, addend: 0x0, symName: __ZNSt3__116allocator_traitsINS_9allocatorIdEEE9constructB7v160006IdJdEvEEvRS2_PT_DpOT0_, symObjAddr: 0x56A4, symBinAddr: 0x100008A60, symSize: 0x34 }
  - { offsetInCU: 0x15800, offset: 0x15800, size: 0x8, addend: 0x0, symName: __ZNSt3__16vectorIdNS_9allocatorIdEEE7__allocB7v160006Ev, symObjAddr: 0x56D8, symBinAddr: 0x100008A94, symSize: 0x28 }
  - { offsetInCU: 0x15825, offset: 0x15825, size: 0x8, addend: 0x0, symName: __ZNSt3__16vectorIdNS_9allocatorIdEEE21_ConstructTransactionD1B7v160006Ev, symObjAddr: 0x5714, symBinAddr: 0x100008AD0, symSize: 0x2C }
  - { offsetInCU: 0x1584E, offset: 0x1584E, size: 0x8, addend: 0x0, symName: __ZNSt3__16vectorIdNS_9allocatorIdEEE21_ConstructTransactionC2B7v160006ERS3_m, symObjAddr: 0x5740, symBinAddr: 0x100008AFC, symSize: 0x44 }
  - { offsetInCU: 0x15895, offset: 0x15895, size: 0x8, addend: 0x0, symName: __ZNSt3__19allocatorIdE9constructB7v160006IdJdEEEvPT_DpOT0_, symObjAddr: 0x5784, symBinAddr: 0x100008B40, symSize: 0x28 }
  - { offsetInCU: 0x158EA, offset: 0x158EA, size: 0x8, addend: 0x0, symName: __ZNSt3__117__compressed_pairIPdNS_9allocatorIdEEE6secondB7v160006Ev, symObjAddr: 0x57AC, symBinAddr: 0x100008B68, symSize: 0x24 }
  - { offsetInCU: 0x1590F, offset: 0x1590F, size: 0x8, addend: 0x0, symName: __ZNSt3__122__compressed_pair_elemINS_9allocatorIdEELi1ELb1EE5__getB7v160006Ev, symObjAddr: 0x57D0, symBinAddr: 0x100008B8C, symSize: 0x14 }
  - { offsetInCU: 0x15934, offset: 0x15934, size: 0x8, addend: 0x0, symName: __ZNSt3__16vectorIdNS_9allocatorIdEEE21_ConstructTransactionD2B7v160006Ev, symObjAddr: 0x57E4, symBinAddr: 0x100008BA0, symSize: 0x20 }
  - { offsetInCU: 0x1595C, offset: 0x1595C, size: 0x8, addend: 0x0, symName: __ZNKSt3__16vectorIdNS_9allocatorIdEEE11__recommendB7v160006Em, symObjAddr: 0x5804, symBinAddr: 0x100008BC0, symSize: 0xB4 }
  - { offsetInCU: 0x159B0, offset: 0x159B0, size: 0x8, addend: 0x0, symName: __ZNKSt3__16vectorIdNS_9allocatorIdEEE4sizeB7v160006Ev, symObjAddr: 0x58B8, symBinAddr: 0x100008C74, symSize: 0x28 }
  - { offsetInCU: 0x159D5, offset: 0x159D5, size: 0x8, addend: 0x0, symName: __ZNSt3__114__split_bufferIdRNS_9allocatorIdEEEC1EmmS3_, symObjAddr: 0x58E0, symBinAddr: 0x100008C9C, symSize: 0x44 }
  - { offsetInCU: 0x15A2A, offset: 0x15A2A, size: 0x8, addend: 0x0, symName: __ZNSt3__114__split_bufferIdRNS_9allocatorIdEEED1Ev, symObjAddr: 0x5A3C, symBinAddr: 0x100008DF8, symSize: 0x2C }
  - { offsetInCU: 0x15A54, offset: 0x15A54, size: 0x8, addend: 0x0, symName: __ZNKSt3__16vectorIdNS_9allocatorIdEEE8max_sizeEv, symObjAddr: 0x5A68, symBinAddr: 0x100008E24, symSize: 0x60 }
  - { offsetInCU: 0x15A7B, offset: 0x15A7B, size: 0x8, addend: 0x0, symName: __ZNKSt3__16vectorIdNS_9allocatorIdEEE20__throw_length_errorB7v160006Ev, symObjAddr: 0x5AC8, symBinAddr: 0x100008E84, symSize: 0x1C }
  - { offsetInCU: 0x15AA0, offset: 0x15AA0, size: 0x8, addend: 0x0, symName: __ZNKSt3__16vectorIdNS_9allocatorIdEEE8capacityB7v160006Ev, symObjAddr: 0x5AE4, symBinAddr: 0x100008EA0, symSize: 0x40 }
  - { offsetInCU: 0x15ACF, offset: 0x15ACF, size: 0x8, addend: 0x0, symName: __ZNSt3__116allocator_traitsINS_9allocatorIdEEE8max_sizeB7v160006IS2_vEEmRKS2_, symObjAddr: 0x5B24, symBinAddr: 0x100008EE0, symSize: 0x24 }
  - { offsetInCU: 0x15AFD, offset: 0x15AFD, size: 0x8, addend: 0x0, symName: __ZNKSt3__16vectorIdNS_9allocatorIdEEE7__allocB7v160006Ev, symObjAddr: 0x5B48, symBinAddr: 0x100008F04, symSize: 0x28 }
  - { offsetInCU: 0x15B22, offset: 0x15B22, size: 0x8, addend: 0x0, symName: __ZNKSt3__19allocatorIdE8max_sizeB7v160006Ev, symObjAddr: 0x5B70, symBinAddr: 0x100008F2C, symSize: 0x14 }
  - { offsetInCU: 0x15B47, offset: 0x15B47, size: 0x8, addend: 0x0, symName: __ZNKSt3__117__compressed_pairIPdNS_9allocatorIdEEE6secondB7v160006Ev, symObjAddr: 0x5B84, symBinAddr: 0x100008F40, symSize: 0x24 }
  - { offsetInCU: 0x15B6C, offset: 0x15B6C, size: 0x8, addend: 0x0, symName: __ZNKSt3__122__compressed_pair_elemINS_9allocatorIdEELi1ELb1EE5__getB7v160006Ev, symObjAddr: 0x5BA8, symBinAddr: 0x100008F64, symSize: 0x14 }
  - { offsetInCU: 0x15B91, offset: 0x15B91, size: 0x8, addend: 0x0, symName: __ZNKSt3__16vectorIdNS_9allocatorIdEEE9__end_capB7v160006Ev, symObjAddr: 0x5BBC, symBinAddr: 0x100008F78, symSize: 0x28 }
  - { offsetInCU: 0x15BB6, offset: 0x15BB6, size: 0x8, addend: 0x0, symName: __ZNKSt3__117__compressed_pairIPdNS_9allocatorIdEEE5firstB7v160006Ev, symObjAddr: 0x5BE4, symBinAddr: 0x100008FA0, symSize: 0x24 }
  - { offsetInCU: 0x15BDB, offset: 0x15BDB, size: 0x8, addend: 0x0, symName: __ZNKSt3__122__compressed_pair_elemIPdLi0ELb0EE5__getB7v160006Ev, symObjAddr: 0x5C08, symBinAddr: 0x100008FC4, symSize: 0x14 }
  - { offsetInCU: 0x15C00, offset: 0x15C00, size: 0x8, addend: 0x0, symName: __ZNSt3__114__split_bufferIdRNS_9allocatorIdEEEC2EmmS3_, symObjAddr: 0x5C1C, symBinAddr: 0x100008FD8, symSize: 0xD4 }
  - { offsetInCU: 0x15C73, offset: 0x15C73, size: 0x8, addend: 0x0, symName: __ZNSt3__117__compressed_pairIPdRNS_9allocatorIdEEEC1B7v160006IDnS4_EEOT_OT0_, symObjAddr: 0x5CF0, symBinAddr: 0x1000090AC, symSize: 0x3C }
  - { offsetInCU: 0x15CCA, offset: 0x15CCA, size: 0x8, addend: 0x0, symName: __ZNSt3__114__split_bufferIdRNS_9allocatorIdEEE7__allocB7v160006Ev, symObjAddr: 0x5D6C, symBinAddr: 0x100009128, symSize: 0x28 }
  - { offsetInCU: 0x15CEF, offset: 0x15CEF, size: 0x8, addend: 0x0, symName: __ZNSt3__114__split_bufferIdRNS_9allocatorIdEEE9__end_capB7v160006Ev, symObjAddr: 0x5D94, symBinAddr: 0x100009150, symSize: 0x28 }
  - { offsetInCU: 0x15D14, offset: 0x15D14, size: 0x8, addend: 0x0, symName: __ZNSt3__117__compressed_pairIPdRNS_9allocatorIdEEEC2B7v160006IDnS4_EEOT_OT0_, symObjAddr: 0x5DBC, symBinAddr: 0x100009178, symSize: 0x48 }
  - { offsetInCU: 0x15D6B, offset: 0x15D6B, size: 0x8, addend: 0x0, symName: __ZNSt3__122__compressed_pair_elemIRNS_9allocatorIdEELi1ELb0EEC2B7v160006IS3_vEEOT_, symObjAddr: 0x5E04, symBinAddr: 0x1000091C0, symSize: 0x20 }
  - { offsetInCU: 0x15DAC, offset: 0x15DAC, size: 0x8, addend: 0x0, symName: __ZNSt3__19allocatorIdE8allocateB7v160006Em, symObjAddr: 0x5E24, symBinAddr: 0x1000091E0, symSize: 0x58 }
  - { offsetInCU: 0x15DDF, offset: 0x15DDF, size: 0x8, addend: 0x0, symName: __ZNSt3__117__compressed_pairIPdRNS_9allocatorIdEEE6secondB7v160006Ev, symObjAddr: 0x5E7C, symBinAddr: 0x100009238, symSize: 0x28 }
  - { offsetInCU: 0x15E04, offset: 0x15E04, size: 0x8, addend: 0x0, symName: __ZNSt3__122__compressed_pair_elemIRNS_9allocatorIdEELi1ELb0EE5__getB7v160006Ev, symObjAddr: 0x5EA4, symBinAddr: 0x100009260, symSize: 0x18 }
  - { offsetInCU: 0x15E29, offset: 0x15E29, size: 0x8, addend: 0x0, symName: __ZNSt3__117__compressed_pairIPdRNS_9allocatorIdEEE5firstB7v160006Ev, symObjAddr: 0x5EBC, symBinAddr: 0x100009278, symSize: 0x24 }
  - { offsetInCU: 0x15E4E, offset: 0x15E4E, size: 0x8, addend: 0x0, symName: __ZNKSt3__16vectorIdNS_9allocatorIdEEE17__annotate_deleteB7v160006Ev, symObjAddr: 0x5EE0, symBinAddr: 0x10000929C, symSize: 0xB8 }
  - { offsetInCU: 0x15E73, offset: 0x15E73, size: 0x8, addend: 0x0, symName: __ZNSt3__116reverse_iteratorIPdEC1B7v160006ES1_, symObjAddr: 0x6010, symBinAddr: 0x1000093CC, symSize: 0x34 }
  - { offsetInCU: 0x15EAA, offset: 0x15EAA, size: 0x8, addend: 0x0, symName: __ZNKSt3__116reverse_iteratorIPdE4baseB7v160006Ev, symObjAddr: 0x6044, symBinAddr: 0x100009400, symSize: 0x18 }
  - { offsetInCU: 0x15ECF, offset: 0x15ECF, size: 0x8, addend: 0x0, symName: __ZNKSt3__16vectorIdNS_9allocatorIdEEE14__annotate_newB7v160006Em, symObjAddr: 0x6098, symBinAddr: 0x100009454, symSize: 0xAC }
  - { offsetInCU: 0x15F03, offset: 0x15F03, size: 0x8, addend: 0x0, symName: __ZNKSt3__16vectorIdNS_9allocatorIdEEE31__annotate_contiguous_containerB7v160006EPKvS5_S5_S5_, symObjAddr: 0x6154, symBinAddr: 0x100009510, symSize: 0x20 }
  - { offsetInCU: 0x15F54, offset: 0x15F54, size: 0x8, addend: 0x0, symName: __ZNKSt3__16vectorIdNS_9allocatorIdEEE4dataB7v160006Ev, symObjAddr: 0x6174, symBinAddr: 0x100009530, symSize: 0x28 }
  - { offsetInCU: 0x15F9C, offset: 0x15F9C, size: 0x8, addend: 0x0, symName: __ZNKSt3__111__move_loopINS_17_ClassicAlgPolicyEEclB7v160006INS_16reverse_iteratorIPdEES6_S6_EENS_4pairIT_T1_EES8_T0_S9_, symObjAddr: 0x648C, symBinAddr: 0x100009848, symSize: 0xA0 }
  - { offsetInCU: 0x16006, offset: 0x16006, size: 0x8, addend: 0x0, symName: __ZNSt3__18_IterOpsINS_17_ClassicAlgPolicyEE11__iter_moveB7v160006IRNS_16reverse_iteratorIPdEEEENS_9enable_ifIXsr12is_referenceIDTdeclsr3stdE7declvalIRT_EEEEE5valueEDTclsr3stdE4movedeclsr3stdE7declvalISA_EEEEE4typeEOS9_, symObjAddr: 0x66C0, symBinAddr: 0x100009A7C, symSize: 0x28 }
  - { offsetInCU: 0x16032, offset: 0x16032, size: 0x8, addend: 0x0, symName: __ZNKSt3__116reverse_iteratorIPdEdeB7v160006Ev, symObjAddr: 0x66E8, symBinAddr: 0x100009AA4, symSize: 0x28 }
  - { offsetInCU: 0x16065, offset: 0x16065, size: 0x8, addend: 0x0, symName: __ZNSt3__116reverse_iteratorIPdEppB7v160006Ev, symObjAddr: 0x6710, symBinAddr: 0x100009ACC, symSize: 0x20 }
  - { offsetInCU: 0x1608A, offset: 0x1608A, size: 0x8, addend: 0x0, symName: __ZNSt3__18_IterOpsINS_17_ClassicAlgPolicyEE25__validate_iter_referenceB7v160006IRNS_16reverse_iteratorIPdEEEEvv, symObjAddr: 0x6730, symBinAddr: 0x100009AEC, symSize: 0x4 }
  - { offsetInCU: 0x160A8, offset: 0x160A8, size: 0x8, addend: 0x0, symName: __ZNSt3__118__unwrap_iter_implINS_16reverse_iteratorIPdEELb0EE8__unwrapB7v160006ES3_, symObjAddr: 0x6734, symBinAddr: 0x100009AF0, symSize: 0x24 }
  - { offsetInCU: 0x160D0, offset: 0x160D0, size: 0x8, addend: 0x0, symName: __ZNSt3__14pairINS_16reverse_iteratorIPdEES3_EC1B7v160006IS3_S3_LPv0EEEOT_OT0_, symObjAddr: 0x6758, symBinAddr: 0x100009B14, symSize: 0x3C }
  - { offsetInCU: 0x1612D, offset: 0x1612D, size: 0x8, addend: 0x0, symName: __ZNSt3__14pairINS_16reverse_iteratorIPdEES3_EC2B7v160006IS3_S3_LPv0EEEOT_OT0_, symObjAddr: 0x6794, symBinAddr: 0x100009B50, symSize: 0x34 }
  - { offsetInCU: 0x1618A, offset: 0x1618A, size: 0x8, addend: 0x0, symName: __ZNSt3__118__unwrap_iter_implINS_16reverse_iteratorIPdEELb0EE8__rewrapB7v160006ES3_S3_, symObjAddr: 0x67C8, symBinAddr: 0x100009B84, symSize: 0x2C }
  - { offsetInCU: 0x161B8, offset: 0x161B8, size: 0x8, addend: 0x0, symName: __ZNSt3__116reverse_iteratorIPdEC2B7v160006ES1_, symObjAddr: 0x67F4, symBinAddr: 0x100009BB0, symSize: 0x28 }
  - { offsetInCU: 0x161EF, offset: 0x161EF, size: 0x8, addend: 0x0, symName: __ZNSt3__114__split_bufferIdRNS_9allocatorIdEEED2Ev, symObjAddr: 0x681C, symBinAddr: 0x100009BD8, symSize: 0x8C }
  - { offsetInCU: 0x1621A, offset: 0x1621A, size: 0x8, addend: 0x0, symName: __ZNSt3__114__split_bufferIdRNS_9allocatorIdEEE5clearB7v160006Ev, symObjAddr: 0x68A8, symBinAddr: 0x100009C64, symSize: 0x28 }
  - { offsetInCU: 0x1623F, offset: 0x1623F, size: 0x8, addend: 0x0, symName: __ZNSt3__116allocator_traitsINS_9allocatorIdEEE10deallocateB7v160006ERS2_Pdm, symObjAddr: 0x68D0, symBinAddr: 0x100009C8C, symSize: 0x34 }
  - { offsetInCU: 0x16281, offset: 0x16281, size: 0x8, addend: 0x0, symName: __ZNKSt3__114__split_bufferIdRNS_9allocatorIdEEE8capacityB7v160006Ev, symObjAddr: 0x6904, symBinAddr: 0x100009CC0, symSize: 0x40 }
  - { offsetInCU: 0x162A6, offset: 0x162A6, size: 0x8, addend: 0x0, symName: __ZNSt3__114__split_bufferIdRNS_9allocatorIdEEE17__destruct_at_endB7v160006EPd, symObjAddr: 0x6944, symBinAddr: 0x100009D00, symSize: 0x2C }
  - { offsetInCU: 0x162D8, offset: 0x162D8, size: 0x8, addend: 0x0, symName: __ZNSt3__114__split_bufferIdRNS_9allocatorIdEEE17__destruct_at_endB7v160006EPdNS_17integral_constantIbLb0EEE, symObjAddr: 0x6970, symBinAddr: 0x100009D2C, symSize: 0x80 }
  - { offsetInCU: 0x16318, offset: 0x16318, size: 0x8, addend: 0x0, symName: __ZNSt3__116allocator_traitsINS_9allocatorIdEEE7destroyB7v160006IdvEEvRS2_PT_, symObjAddr: 0x69F0, symBinAddr: 0x100009DAC, symSize: 0x2C }
  - { offsetInCU: 0x16355, offset: 0x16355, size: 0x8, addend: 0x0, symName: __ZNSt3__19allocatorIdE7destroyB7v160006EPd, symObjAddr: 0x6A1C, symBinAddr: 0x100009DD8, symSize: 0x14 }
  - { offsetInCU: 0x16388, offset: 0x16388, size: 0x8, addend: 0x0, symName: __ZNSt3__19allocatorIdE10deallocateB7v160006EPdm, symObjAddr: 0x6A30, symBinAddr: 0x100009DEC, symSize: 0x40 }
  - { offsetInCU: 0x163C9, offset: 0x163C9, size: 0x8, addend: 0x0, symName: __ZNKSt3__114__split_bufferIdRNS_9allocatorIdEEE9__end_capB7v160006Ev, symObjAddr: 0x6A70, symBinAddr: 0x100009E2C, symSize: 0x28 }
  - { offsetInCU: 0x163EE, offset: 0x163EE, size: 0x8, addend: 0x0, symName: __ZNKSt3__117__compressed_pairIPdRNS_9allocatorIdEEE5firstB7v160006Ev, symObjAddr: 0x6A98, symBinAddr: 0x100009E54, symSize: 0x24 }
  - { offsetInCU: 0x16413, offset: 0x16413, size: 0x8, addend: 0x0, symName: __ZNSt3__16vectorI5PointNS_9allocatorIS1_EEE9__end_capB7v160006Ev, symObjAddr: 0x6ABC, symBinAddr: 0x100009E78, symSize: 0x28 }
  - { offsetInCU: 0x16438, offset: 0x16438, size: 0x8, addend: 0x0, symName: __ZNSt3__16vectorI5PointNS_9allocatorIS1_EEE22__construct_one_at_endB7v160006IJRNS0_IdNS2_IdEEEERNS_12basic_stringIcNS_11char_traitsIcEENS2_IcEEEEEEEvDpOT_, symObjAddr: 0x6AE4, symBinAddr: 0x100009EA0, symSize: 0x98 }
  - { offsetInCU: 0x16499, offset: 0x16499, size: 0x8, addend: 0x0, symName: __ZNSt3__16vectorI5PointNS_9allocatorIS1_EEE24__emplace_back_slow_pathIJRNS0_IdNS2_IdEEEERNS_12basic_stringIcNS_11char_traitsIcEENS2_IcEEEEEEEvDpOT_, symObjAddr: 0x6B7C, symBinAddr: 0x100009F38, symSize: 0xE0 }
  - { offsetInCU: 0x1650C, offset: 0x1650C, size: 0x8, addend: 0x0, symName: __ZNSt3__117__compressed_pairIP5PointNS_9allocatorIS1_EEE5firstB7v160006Ev, symObjAddr: 0x6C5C, symBinAddr: 0x10000A018, symSize: 0x24 }
  - { offsetInCU: 0x16531, offset: 0x16531, size: 0x8, addend: 0x0, symName: __ZNSt3__122__compressed_pair_elemIP5PointLi0ELb0EE5__getB7v160006Ev, symObjAddr: 0x6C80, symBinAddr: 0x10000A03C, symSize: 0x14 }
  - { offsetInCU: 0x1656F, offset: 0x1656F, size: 0x8, addend: 0x0, symName: __ZNSt3__16vectorI5PointNS_9allocatorIS1_EEE21_ConstructTransactionC1B7v160006ERS4_m, symObjAddr: 0x6C94, symBinAddr: 0x10000A050, symSize: 0x3C }
  - { offsetInCU: 0x165B6, offset: 0x165B6, size: 0x8, addend: 0x0, symName: __ZNSt3__116allocator_traitsINS_9allocatorI5PointEEE9constructB7v160006IS2_JRNS_6vectorIdNS1_IdEEEERNS_12basic_stringIcNS_11char_traitsIcEENS1_IcEEEEEvEEvRS3_PT_DpOT0_, symObjAddr: 0x6CD0, symBinAddr: 0x10000A08C, symSize: 0x3C }
  - { offsetInCU: 0x16621, offset: 0x16621, size: 0x8, addend: 0x0, symName: __ZNSt3__16vectorI5PointNS_9allocatorIS1_EEE7__allocB7v160006Ev, symObjAddr: 0x6D0C, symBinAddr: 0x10000A0C8, symSize: 0x28 }
  - { offsetInCU: 0x16646, offset: 0x16646, size: 0x8, addend: 0x0, symName: __ZNSt3__16vectorI5PointNS_9allocatorIS1_EEE21_ConstructTransactionD1B7v160006Ev, symObjAddr: 0x6D48, symBinAddr: 0x10000A104, symSize: 0x2C }
  - { offsetInCU: 0x1666F, offset: 0x1666F, size: 0x8, addend: 0x0, symName: __ZNSt3__16vectorI5PointNS_9allocatorIS1_EEE21_ConstructTransactionC2B7v160006ERS4_m, symObjAddr: 0x6D74, symBinAddr: 0x10000A130, symSize: 0x4C }
  - { offsetInCU: 0x166B6, offset: 0x166B6, size: 0x8, addend: 0x0, symName: __ZNSt3__19allocatorI5PointE9constructB7v160006IS1_JRNS_6vectorIdNS0_IdEEEERNS_12basic_stringIcNS_11char_traitsIcEENS0_IcEEEEEEEvPT_DpOT0_, symObjAddr: 0x6DC0, symBinAddr: 0x10000A17C, symSize: 0x38 }
  - { offsetInCU: 0x1671E, offset: 0x1671E, size: 0x8, addend: 0x0, symName: __ZNSt3__117__compressed_pairIP5PointNS_9allocatorIS1_EEE6secondB7v160006Ev, symObjAddr: 0x6DF8, symBinAddr: 0x10000A1B4, symSize: 0x24 }
  - { offsetInCU: 0x16743, offset: 0x16743, size: 0x8, addend: 0x0, symName: __ZNSt3__122__compressed_pair_elemINS_9allocatorI5PointEELi1ELb1EE5__getB7v160006Ev, symObjAddr: 0x6E1C, symBinAddr: 0x10000A1D8, symSize: 0x14 }
  - { offsetInCU: 0x16768, offset: 0x16768, size: 0x8, addend: 0x0, symName: __ZNSt3__16vectorI5PointNS_9allocatorIS1_EEE21_ConstructTransactionD2B7v160006Ev, symObjAddr: 0x6E30, symBinAddr: 0x10000A1EC, symSize: 0x20 }
  - { offsetInCU: 0x16790, offset: 0x16790, size: 0x8, addend: 0x0, symName: __ZNKSt3__16vectorI5PointNS_9allocatorIS1_EEE11__recommendB7v160006Em, symObjAddr: 0x6E50, symBinAddr: 0x10000A20C, symSize: 0xB4 }
  - { offsetInCU: 0x167E4, offset: 0x167E4, size: 0x8, addend: 0x0, symName: __ZNKSt3__16vectorI5PointNS_9allocatorIS1_EEE4sizeB7v160006Ev, symObjAddr: 0x6F04, symBinAddr: 0x10000A2C0, symSize: 0x28 }
  - { offsetInCU: 0x16809, offset: 0x16809, size: 0x8, addend: 0x0, symName: __ZNSt3__114__split_bufferI5PointRNS_9allocatorIS1_EEEC1EmmS4_, symObjAddr: 0x6F2C, symBinAddr: 0x10000A2E8, symSize: 0x44 }
  - { offsetInCU: 0x1685E, offset: 0x1685E, size: 0x8, addend: 0x0, symName: __ZNSt3__114__split_bufferI5PointRNS_9allocatorIS1_EEED1Ev, symObjAddr: 0x7088, symBinAddr: 0x10000A444, symSize: 0x2C }
  - { offsetInCU: 0x16888, offset: 0x16888, size: 0x8, addend: 0x0, symName: __ZNKSt3__16vectorI5PointNS_9allocatorIS1_EEE8max_sizeEv, symObjAddr: 0x70B4, symBinAddr: 0x10000A470, symSize: 0x60 }
  - { offsetInCU: 0x168AF, offset: 0x168AF, size: 0x8, addend: 0x0, symName: __ZNKSt3__16vectorI5PointNS_9allocatorIS1_EEE20__throw_length_errorB7v160006Ev, symObjAddr: 0x7114, symBinAddr: 0x10000A4D0, symSize: 0x1C }
  - { offsetInCU: 0x168D4, offset: 0x168D4, size: 0x8, addend: 0x0, symName: __ZNKSt3__16vectorI5PointNS_9allocatorIS1_EEE8capacityB7v160006Ev, symObjAddr: 0x7130, symBinAddr: 0x10000A4EC, symSize: 0x40 }
  - { offsetInCU: 0x16903, offset: 0x16903, size: 0x8, addend: 0x0, symName: __ZNSt3__116allocator_traitsINS_9allocatorI5PointEEE8max_sizeB7v160006IS3_vEEmRKS3_, symObjAddr: 0x7170, symBinAddr: 0x10000A52C, symSize: 0x24 }
  - { offsetInCU: 0x16931, offset: 0x16931, size: 0x8, addend: 0x0, symName: __ZNKSt3__16vectorI5PointNS_9allocatorIS1_EEE7__allocB7v160006Ev, symObjAddr: 0x7194, symBinAddr: 0x10000A550, symSize: 0x28 }
  - { offsetInCU: 0x16956, offset: 0x16956, size: 0x8, addend: 0x0, symName: __ZNKSt3__19allocatorI5PointE8max_sizeB7v160006Ev, symObjAddr: 0x71BC, symBinAddr: 0x10000A578, symSize: 0x18 }
  - { offsetInCU: 0x1697B, offset: 0x1697B, size: 0x8, addend: 0x0, symName: __ZNKSt3__117__compressed_pairIP5PointNS_9allocatorIS1_EEE6secondB7v160006Ev, symObjAddr: 0x71D4, symBinAddr: 0x10000A590, symSize: 0x24 }
  - { offsetInCU: 0x169A0, offset: 0x169A0, size: 0x8, addend: 0x0, symName: __ZNKSt3__122__compressed_pair_elemINS_9allocatorI5PointEELi1ELb1EE5__getB7v160006Ev, symObjAddr: 0x71F8, symBinAddr: 0x10000A5B4, symSize: 0x14 }
  - { offsetInCU: 0x169C5, offset: 0x169C5, size: 0x8, addend: 0x0, symName: __ZNKSt3__16vectorI5PointNS_9allocatorIS1_EEE9__end_capB7v160006Ev, symObjAddr: 0x720C, symBinAddr: 0x10000A5C8, symSize: 0x28 }
  - { offsetInCU: 0x169EA, offset: 0x169EA, size: 0x8, addend: 0x0, symName: __ZNKSt3__117__compressed_pairIP5PointNS_9allocatorIS1_EEE5firstB7v160006Ev, symObjAddr: 0x7234, symBinAddr: 0x10000A5F0, symSize: 0x24 }
  - { offsetInCU: 0x16A0F, offset: 0x16A0F, size: 0x8, addend: 0x0, symName: __ZNKSt3__122__compressed_pair_elemIP5PointLi0ELb0EE5__getB7v160006Ev, symObjAddr: 0x7258, symBinAddr: 0x10000A614, symSize: 0x14 }
  - { offsetInCU: 0x16A34, offset: 0x16A34, size: 0x8, addend: 0x0, symName: __ZNSt3__114__split_bufferI5PointRNS_9allocatorIS1_EEEC2EmmS4_, symObjAddr: 0x726C, symBinAddr: 0x10000A628, symSize: 0xE0 }
  - { offsetInCU: 0x16AA7, offset: 0x16AA7, size: 0x8, addend: 0x0, symName: __ZNSt3__117__compressed_pairIP5PointRNS_9allocatorIS1_EEEC1B7v160006IDnS5_EEOT_OT0_, symObjAddr: 0x734C, symBinAddr: 0x10000A708, symSize: 0x3C }
  - { offsetInCU: 0x16AFE, offset: 0x16AFE, size: 0x8, addend: 0x0, symName: __ZNSt3__114__split_bufferI5PointRNS_9allocatorIS1_EEE7__allocB7v160006Ev, symObjAddr: 0x73C8, symBinAddr: 0x10000A784, symSize: 0x28 }
  - { offsetInCU: 0x16B23, offset: 0x16B23, size: 0x8, addend: 0x0, symName: __ZNSt3__114__split_bufferI5PointRNS_9allocatorIS1_EEE9__end_capB7v160006Ev, symObjAddr: 0x73F0, symBinAddr: 0x10000A7AC, symSize: 0x28 }
  - { offsetInCU: 0x16B48, offset: 0x16B48, size: 0x8, addend: 0x0, symName: __ZNSt3__117__compressed_pairIP5PointRNS_9allocatorIS1_EEEC2B7v160006IDnS5_EEOT_OT0_, symObjAddr: 0x7418, symBinAddr: 0x10000A7D4, symSize: 0x48 }
  - { offsetInCU: 0x16B9F, offset: 0x16B9F, size: 0x8, addend: 0x0, symName: __ZNSt3__122__compressed_pair_elemIRNS_9allocatorI5PointEELi1ELb0EEC2B7v160006IS4_vEEOT_, symObjAddr: 0x7460, symBinAddr: 0x10000A81C, symSize: 0x20 }
  - { offsetInCU: 0x16BE0, offset: 0x16BE0, size: 0x8, addend: 0x0, symName: __ZNSt3__19allocatorI5PointE8allocateB7v160006Em, symObjAddr: 0x7480, symBinAddr: 0x10000A83C, symSize: 0x5C }
  - { offsetInCU: 0x16C13, offset: 0x16C13, size: 0x8, addend: 0x0, symName: __ZNSt3__117__compressed_pairIP5PointRNS_9allocatorIS1_EEE6secondB7v160006Ev, symObjAddr: 0x74DC, symBinAddr: 0x10000A898, symSize: 0x28 }
  - { offsetInCU: 0x16C38, offset: 0x16C38, size: 0x8, addend: 0x0, symName: __ZNSt3__122__compressed_pair_elemIRNS_9allocatorI5PointEELi1ELb0EE5__getB7v160006Ev, symObjAddr: 0x7504, symBinAddr: 0x10000A8C0, symSize: 0x18 }
  - { offsetInCU: 0x16C5D, offset: 0x16C5D, size: 0x8, addend: 0x0, symName: __ZNSt3__117__compressed_pairIP5PointRNS_9allocatorIS1_EEE5firstB7v160006Ev, symObjAddr: 0x751C, symBinAddr: 0x10000A8D8, symSize: 0x24 }
  - { offsetInCU: 0x16C82, offset: 0x16C82, size: 0x8, addend: 0x0, symName: __ZNKSt3__16vectorI5PointNS_9allocatorIS1_EEE17__annotate_deleteB7v160006Ev, symObjAddr: 0x7540, symBinAddr: 0x10000A8FC, symSize: 0xD4 }
  - { offsetInCU: 0x16CA7, offset: 0x16CA7, size: 0x8, addend: 0x0, symName: __ZNSt3__116reverse_iteratorIP5PointEC1B7v160006ES2_, symObjAddr: 0x7740, symBinAddr: 0x10000AAFC, symSize: 0x34 }
  - { offsetInCU: 0x16CDE, offset: 0x16CDE, size: 0x8, addend: 0x0, symName: __ZNKSt3__116reverse_iteratorIP5PointE4baseB7v160006Ev, symObjAddr: 0x7774, symBinAddr: 0x10000AB30, symSize: 0x18 }
  - { offsetInCU: 0x16D03, offset: 0x16D03, size: 0x8, addend: 0x0, symName: __ZNKSt3__16vectorI5PointNS_9allocatorIS1_EEE14__annotate_newB7v160006Em, symObjAddr: 0x77C8, symBinAddr: 0x10000AB84, symSize: 0xC8 }
  - { offsetInCU: 0x16D37, offset: 0x16D37, size: 0x8, addend: 0x0, symName: __ZNKSt3__16vectorI5PointNS_9allocatorIS1_EEE31__annotate_contiguous_containerB7v160006EPKvS6_S6_S6_, symObjAddr: 0x78A0, symBinAddr: 0x10000AC5C, symSize: 0x20 }
  - { offsetInCU: 0x16D88, offset: 0x16D88, size: 0x8, addend: 0x0, symName: __ZNKSt3__16vectorI5PointNS_9allocatorIS1_EEE4dataB7v160006Ev, symObjAddr: 0x78C0, symBinAddr: 0x10000AC7C, symSize: 0x28 }
  - { offsetInCU: 0x16DAD, offset: 0x16DAD, size: 0x8, addend: 0x0, symName: __ZNSt3__129_AllocatorDestroyRangeReverseINS_9allocatorI5PointEENS_16reverse_iteratorIPS2_EEEC1B7v160006ERS3_RS6_S9_, symObjAddr: 0x7934, symBinAddr: 0x10000ACF0, symSize: 0x44 }
  - { offsetInCU: 0x16E08, offset: 0x16E08, size: 0x8, addend: 0x0, symName: __ZNSt3__116allocator_traitsINS_9allocatorI5PointEEE9constructB7v160006IS2_JS2_EvEEvRS3_PT_DpOT0_, symObjAddr: 0x79C0, symBinAddr: 0x10000AD7C, symSize: 0x34 }
  - { offsetInCU: 0x16E5F, offset: 0x16E5F, size: 0x8, addend: 0x0, symName: __ZNKSt3__116reverse_iteratorIP5PointEdeB7v160006Ev, symObjAddr: 0x7A18, symBinAddr: 0x10000ADD4, symSize: 0x28 }
  - { offsetInCU: 0x16E92, offset: 0x16E92, size: 0x8, addend: 0x0, symName: __ZNSt3__116reverse_iteratorIP5PointEppB7v160006Ev, symObjAddr: 0x7A40, symBinAddr: 0x10000ADFC, symSize: 0x20 }
  - { offsetInCU: 0x16EB7, offset: 0x16EB7, size: 0x8, addend: 0x0, symName: __ZNSt3__128__exception_guard_exceptionsINS_29_AllocatorDestroyRangeReverseINS_9allocatorI5PointEENS_16reverse_iteratorIPS3_EEEEE10__completeB7v160006Ev, symObjAddr: 0x7A60, symBinAddr: 0x10000AE1C, symSize: 0x1C }
  - { offsetInCU: 0x16EDC, offset: 0x16EDC, size: 0x8, addend: 0x0, symName: __ZNSt3__128__exception_guard_exceptionsINS_29_AllocatorDestroyRangeReverseINS_9allocatorI5PointEENS_16reverse_iteratorIPS3_EEEEED1B7v160006Ev, symObjAddr: 0x7A7C, symBinAddr: 0x10000AE38, symSize: 0x2C }
  - { offsetInCU: 0x16F05, offset: 0x16F05, size: 0x8, addend: 0x0, symName: __ZNSt3__128__exception_guard_exceptionsINS_29_AllocatorDestroyRangeReverseINS_9allocatorI5PointEENS_16reverse_iteratorIPS3_EEEEEC1B7v160006ES8_, symObjAddr: 0x7AA8, symBinAddr: 0x10000AE64, symSize: 0x34 }
  - { offsetInCU: 0x16F3D, offset: 0x16F3D, size: 0x8, addend: 0x0, symName: __ZNSt3__128__exception_guard_exceptionsINS_29_AllocatorDestroyRangeReverseINS_9allocatorI5PointEENS_16reverse_iteratorIPS3_EEEEEC2B7v160006ES8_, symObjAddr: 0x7ADC, symBinAddr: 0x10000AE98, symSize: 0x30 }
  - { offsetInCU: 0x16F75, offset: 0x16F75, size: 0x8, addend: 0x0, symName: __ZNSt3__129_AllocatorDestroyRangeReverseINS_9allocatorI5PointEENS_16reverse_iteratorIPS2_EEEC2B7v160006ERS3_RS6_S9_, symObjAddr: 0x7B0C, symBinAddr: 0x10000AEC8, symSize: 0x38 }
  - { offsetInCU: 0x16FCB, offset: 0x16FCB, size: 0x8, addend: 0x0, symName: __ZNSt3__19allocatorI5PointE9constructB7v160006IS1_JS1_EEEvPT_DpOT0_, symObjAddr: 0x7B44, symBinAddr: 0x10000AF00, symSize: 0x30 }
  - { offsetInCU: 0x17020, offset: 0x17020, size: 0x8, addend: 0x0, symName: __ZN5PointC1EOS_, symObjAddr: 0x7B74, symBinAddr: 0x10000AF30, symSize: 0x34 }
  - { offsetInCU: 0x17054, offset: 0x17054, size: 0x8, addend: 0x0, symName: __ZN5PointC2EOS_, symObjAddr: 0x7BA8, symBinAddr: 0x10000AF64, symSize: 0x48 }
  - { offsetInCU: 0x17088, offset: 0x17088, size: 0x8, addend: 0x0, symName: __ZNSt3__16vectorIdNS_9allocatorIdEEEC1B7v160006EOS3_, symObjAddr: 0x7BF0, symBinAddr: 0x10000AFAC, symSize: 0x34 }
  - { offsetInCU: 0x170C2, offset: 0x170C2, size: 0x8, addend: 0x0, symName: __ZNSt3__16vectorIdNS_9allocatorIdEEEC2B7v160006EOS3_, symObjAddr: 0x7C24, symBinAddr: 0x10000AFE0, symSize: 0xDC }
  - { offsetInCU: 0x17101, offset: 0x17101, size: 0x8, addend: 0x0, symName: __ZNSt3__117__compressed_pairIPdNS_9allocatorIdEEEC1B7v160006IDnS3_EEOT_OT0_, symObjAddr: 0x7D00, symBinAddr: 0x10000B0BC, symSize: 0x3C }
  - { offsetInCU: 0x17158, offset: 0x17158, size: 0x8, addend: 0x0, symName: __ZNSt3__117__compressed_pairIPdNS_9allocatorIdEEEC2B7v160006IDnS3_EEOT_OT0_, symObjAddr: 0x7D50, symBinAddr: 0x10000B10C, symSize: 0x44 }
  - { offsetInCU: 0x171AF, offset: 0x171AF, size: 0x8, addend: 0x0, symName: __ZNSt3__122__compressed_pair_elemINS_9allocatorIdEELi1ELb1EEC2B7v160006IS2_vEEOT_, symObjAddr: 0x7D94, symBinAddr: 0x10000B150, symSize: 0x18 }
  - { offsetInCU: 0x171F5, offset: 0x171F5, size: 0x8, addend: 0x0, symName: __ZNSt3__119__to_address_helperINS_16reverse_iteratorIP5PointEEvE6__callB7v160006ERKS4_, symObjAddr: 0x7DAC, symBinAddr: 0x10000B168, symSize: 0x38 }
  - { offsetInCU: 0x17218, offset: 0x17218, size: 0x8, addend: 0x0, symName: __ZNKSt3__116reverse_iteratorIP5PointEptB7v160006Ev, symObjAddr: 0x7DE4, symBinAddr: 0x10000B1A0, symSize: 0x24 }
  - { offsetInCU: 0x1723D, offset: 0x1723D, size: 0x8, addend: 0x0, symName: __ZNSt3__128__exception_guard_exceptionsINS_29_AllocatorDestroyRangeReverseINS_9allocatorI5PointEENS_16reverse_iteratorIPS3_EEEEED2B7v160006Ev, symObjAddr: 0x7E08, symBinAddr: 0x10000B1C4, symSize: 0x50 }
  - { offsetInCU: 0x17266, offset: 0x17266, size: 0x8, addend: 0x0, symName: __ZNKSt3__129_AllocatorDestroyRangeReverseINS_9allocatorI5PointEENS_16reverse_iteratorIPS2_EEEclB7v160006Ev, symObjAddr: 0x7E58, symBinAddr: 0x10000B214, symSize: 0xB4 }
  - { offsetInCU: 0x1728C, offset: 0x1728C, size: 0x8, addend: 0x0, symName: __ZNSt3__116reverse_iteratorINS0_IP5PointEEEC1B7v160006ES3_, symObjAddr: 0x7F7C, symBinAddr: 0x10000B338, symSize: 0x3C }
  - { offsetInCU: 0x172C3, offset: 0x172C3, size: 0x8, addend: 0x0, symName: __ZNSt3__116allocator_traitsINS_9allocatorI5PointEEE7destroyB7v160006IS2_vEEvRS3_PT_, symObjAddr: 0x8018, symBinAddr: 0x10000B3D4, symSize: 0x2C }
  - { offsetInCU: 0x17300, offset: 0x17300, size: 0x8, addend: 0x0, symName: __ZNSt3__116reverse_iteratorINS0_IP5PointEEEppB7v160006Ev, symObjAddr: 0x8068, symBinAddr: 0x10000B424, symSize: 0x30 }
  - { offsetInCU: 0x17325, offset: 0x17325, size: 0x8, addend: 0x0, symName: __ZNKSt3__116reverse_iteratorINS0_IP5PointEEE4baseB7v160006Ev, symObjAddr: 0x8098, symBinAddr: 0x10000B454, symSize: 0x24 }
  - { offsetInCU: 0x1734A, offset: 0x1734A, size: 0x8, addend: 0x0, symName: __ZNSt3__19allocatorI5PointE7destroyB7v160006EPS1_, symObjAddr: 0x80BC, symBinAddr: 0x10000B478, symSize: 0x28 }
  - { offsetInCU: 0x17382, offset: 0x17382, size: 0x8, addend: 0x0, symName: __ZNSt3__119__to_address_helperINS_16reverse_iteratorINS1_IP5PointEEEEvE6__callB7v160006ERKS5_, symObjAddr: 0x80E4, symBinAddr: 0x10000B4A0, symSize: 0x38 }
  - { offsetInCU: 0x173A5, offset: 0x173A5, size: 0x8, addend: 0x0, symName: __ZNKSt3__116reverse_iteratorINS0_IP5PointEEEptB7v160006Ev, symObjAddr: 0x811C, symBinAddr: 0x10000B4D8, symSize: 0x24 }
  - { offsetInCU: 0x173CA, offset: 0x173CA, size: 0x8, addend: 0x0, symName: __ZNKSt3__116reverse_iteratorINS0_IP5PointEEEdeB7v160006Ev, symObjAddr: 0x8140, symBinAddr: 0x10000B4FC, symSize: 0x34 }
  - { offsetInCU: 0x173FD, offset: 0x173FD, size: 0x8, addend: 0x0, symName: __ZNSt3__116reverse_iteratorIP5PointEmmB7v160006Ev, symObjAddr: 0x8174, symBinAddr: 0x10000B530, symSize: 0x20 }
  - { offsetInCU: 0x17422, offset: 0x17422, size: 0x8, addend: 0x0, symName: __ZNSt3__116reverse_iteratorINS0_IP5PointEEEC2B7v160006ES3_, symObjAddr: 0x8194, symBinAddr: 0x10000B550, symSize: 0x2C }
  - { offsetInCU: 0x17459, offset: 0x17459, size: 0x8, addend: 0x0, symName: __ZNSt3__116reverse_iteratorIP5PointEC2B7v160006ES2_, symObjAddr: 0x81C0, symBinAddr: 0x10000B57C, symSize: 0x28 }
  - { offsetInCU: 0x17490, offset: 0x17490, size: 0x8, addend: 0x0, symName: __ZNSt3__114__split_bufferI5PointRNS_9allocatorIS1_EEED2Ev, symObjAddr: 0x81E8, symBinAddr: 0x10000B5A4, symSize: 0x8C }
  - { offsetInCU: 0x174BB, offset: 0x174BB, size: 0x8, addend: 0x0, symName: __ZNSt3__114__split_bufferI5PointRNS_9allocatorIS1_EEE5clearB7v160006Ev, symObjAddr: 0x8274, symBinAddr: 0x10000B630, symSize: 0x28 }
  - { offsetInCU: 0x174E0, offset: 0x174E0, size: 0x8, addend: 0x0, symName: __ZNSt3__116allocator_traitsINS_9allocatorI5PointEEE10deallocateB7v160006ERS3_PS2_m, symObjAddr: 0x829C, symBinAddr: 0x10000B658, symSize: 0x34 }
  - { offsetInCU: 0x17522, offset: 0x17522, size: 0x8, addend: 0x0, symName: __ZNKSt3__114__split_bufferI5PointRNS_9allocatorIS1_EEE8capacityB7v160006Ev, symObjAddr: 0x82D0, symBinAddr: 0x10000B68C, symSize: 0x40 }
  - { offsetInCU: 0x17547, offset: 0x17547, size: 0x8, addend: 0x0, symName: __ZNSt3__114__split_bufferI5PointRNS_9allocatorIS1_EEE17__destruct_at_endB7v160006EPS1_, symObjAddr: 0x8310, symBinAddr: 0x10000B6CC, symSize: 0x2C }
  - { offsetInCU: 0x17579, offset: 0x17579, size: 0x8, addend: 0x0, symName: __ZNSt3__114__split_bufferI5PointRNS_9allocatorIS1_EEE17__destruct_at_endB7v160006EPS1_NS_17integral_constantIbLb0EEE, symObjAddr: 0x833C, symBinAddr: 0x10000B6F8, symSize: 0x80 }
  - { offsetInCU: 0x175B9, offset: 0x175B9, size: 0x8, addend: 0x0, symName: __ZNSt3__19allocatorI5PointE10deallocateB7v160006EPS1_m, symObjAddr: 0x83BC, symBinAddr: 0x10000B778, symSize: 0x44 }
  - { offsetInCU: 0x175FA, offset: 0x175FA, size: 0x8, addend: 0x0, symName: __ZNKSt3__114__split_bufferI5PointRNS_9allocatorIS1_EEE9__end_capB7v160006Ev, symObjAddr: 0x8400, symBinAddr: 0x10000B7BC, symSize: 0x28 }
  - { offsetInCU: 0x1761F, offset: 0x1761F, size: 0x8, addend: 0x0, symName: __ZNKSt3__117__compressed_pairIP5PointRNS_9allocatorIS1_EEE5firstB7v160006Ev, symObjAddr: 0x8428, symBinAddr: 0x10000B7E4, symSize: 0x24 }
  - { offsetInCU: 0x17644, offset: 0x17644, size: 0x8, addend: 0x0, symName: __ZNSt3__114basic_ifstreamIcNS_11char_traitsIcEEED2Ev, symObjAddr: 0x844C, symBinAddr: 0x10000B808, symSize: 0x64 }
  - { offsetInCU: 0x1767C, offset: 0x1767C, size: 0x8, addend: 0x0, symName: __ZTv0_n24_NSt3__114basic_ifstreamIcNS_11char_traitsIcEEED1Ev, symObjAddr: 0x84B0, symBinAddr: 0x10000B86C, symSize: 0x28 }
  - { offsetInCU: 0x17693, offset: 0x17693, size: 0x8, addend: 0x0, symName: __ZN5PointC2ERKNSt3__16vectorIdNS0_9allocatorIdEEEERKNS0_12basic_stringIcNS0_11char_traitsIcEENS2_IcEEEE, symObjAddr: 0x84D8, symBinAddr: 0x10000B894, symSize: 0x70 }
  - { offsetInCU: 0x176D8, offset: 0x176D8, size: 0x8, addend: 0x0, symName: __ZNSt3__16vectorIdNS_9allocatorIdEEEC1ERKS3_, symObjAddr: 0x8548, symBinAddr: 0x10000B904, symSize: 0x34 }
  - { offsetInCU: 0x17712, offset: 0x17712, size: 0x8, addend: 0x0, symName: __ZNSt3__16vectorIdNS_9allocatorIdEEEC2ERKS3_, symObjAddr: 0x857C, symBinAddr: 0x10000B938, symSize: 0x110 }
  - { offsetInCU: 0x17770, offset: 0x17770, size: 0x8, addend: 0x0, symName: __ZNSt3__116allocator_traitsINS_9allocatorIdEEE37select_on_container_copy_constructionB7v160006IS2_vvEES2_RKS2_, symObjAddr: 0x868C, symBinAddr: 0x10000BA48, symSize: 0x10 }
  - { offsetInCU: 0x1779F, offset: 0x1779F, size: 0x8, addend: 0x0, symName: __ZNSt3__16vectorIdNS_9allocatorIdEEE16__destroy_vectorC1ERS3_, symObjAddr: 0x86DC, symBinAddr: 0x10000BA98, symSize: 0x34 }
  - { offsetInCU: 0x177D7, offset: 0x177D7, size: 0x8, addend: 0x0, symName: __ZNSt3__16vectorIdNS_9allocatorIdEEE11__vallocateB7v160006Em, symObjAddr: 0x8710, symBinAddr: 0x10000BACC, symSize: 0xAC }
  - { offsetInCU: 0x17819, offset: 0x17819, size: 0x8, addend: 0x0, symName: __ZNSt3__16vectorIdNS_9allocatorIdEEE18__construct_at_endIPdLi0EEEvT_S6_m, symObjAddr: 0x87BC, symBinAddr: 0x10000BB78, symSize: 0x8C }
  - { offsetInCU: 0x1788B, offset: 0x1788B, size: 0x8, addend: 0x0, symName: __ZNSt3__128__exception_guard_exceptionsINS_6vectorIdNS_9allocatorIdEEE16__destroy_vectorEE10__completeB7v160006Ev, symObjAddr: 0x8848, symBinAddr: 0x10000BC04, symSize: 0x1C }
  - { offsetInCU: 0x178B0, offset: 0x178B0, size: 0x8, addend: 0x0, symName: __ZNSt3__128__exception_guard_exceptionsINS_6vectorIdNS_9allocatorIdEEE16__destroy_vectorEED1B7v160006Ev, symObjAddr: 0x8864, symBinAddr: 0x10000BC20, symSize: 0x2C }
  - { offsetInCU: 0x178D9, offset: 0x178D9, size: 0x8, addend: 0x0, symName: __ZNSt3__128__exception_guard_exceptionsINS_6vectorIdNS_9allocatorIdEEE16__destroy_vectorEEC1B7v160006ES5_, symObjAddr: 0x8890, symBinAddr: 0x10000BC4C, symSize: 0x34 }
  - { offsetInCU: 0x17910, offset: 0x17910, size: 0x8, addend: 0x0, symName: __ZNSt3__128__exception_guard_exceptionsINS_6vectorIdNS_9allocatorIdEEE16__destroy_vectorEEC2B7v160006ES5_, symObjAddr: 0x88C4, symBinAddr: 0x10000BC80, symSize: 0x24 }
  - { offsetInCU: 0x17947, offset: 0x17947, size: 0x8, addend: 0x0, symName: __ZNSt3__16vectorIdNS_9allocatorIdEEE16__destroy_vectorC2ERS3_, symObjAddr: 0x88E8, symBinAddr: 0x10000BCA4, symSize: 0x20 }
  - { offsetInCU: 0x1797F, offset: 0x1797F, size: 0x8, addend: 0x0, symName: __ZNSt3__129_AllocatorDestroyRangeReverseINS_9allocatorIdEEPdEC1B7v160006ERS2_RS3_S6_, symObjAddr: 0x8A48, symBinAddr: 0x10000BE04, symSize: 0x44 }
  - { offsetInCU: 0x179D5, offset: 0x179D5, size: 0x8, addend: 0x0, symName: __ZNSt3__116allocator_traitsINS_9allocatorIdEEE9constructB7v160006IdJRdEvEEvRS2_PT_DpOT0_, symObjAddr: 0x8A8C, symBinAddr: 0x10000BE48, symSize: 0x34 }
  - { offsetInCU: 0x17A2C, offset: 0x17A2C, size: 0x8, addend: 0x0, symName: __ZNSt3__128__exception_guard_exceptionsINS_29_AllocatorDestroyRangeReverseINS_9allocatorIdEEPdEEE10__completeB7v160006Ev, symObjAddr: 0x8AC0, symBinAddr: 0x10000BE7C, symSize: 0x1C }
  - { offsetInCU: 0x17A51, offset: 0x17A51, size: 0x8, addend: 0x0, symName: __ZNSt3__128__exception_guard_exceptionsINS_29_AllocatorDestroyRangeReverseINS_9allocatorIdEEPdEEED1B7v160006Ev, symObjAddr: 0x8ADC, symBinAddr: 0x10000BE98, symSize: 0x2C }
  - { offsetInCU: 0x17A7A, offset: 0x17A7A, size: 0x8, addend: 0x0, symName: __ZNSt3__128__exception_guard_exceptionsINS_29_AllocatorDestroyRangeReverseINS_9allocatorIdEEPdEEEC1B7v160006ES5_, symObjAddr: 0x8B08, symBinAddr: 0x10000BEC4, symSize: 0x34 }
  - { offsetInCU: 0x17AB2, offset: 0x17AB2, size: 0x8, addend: 0x0, symName: __ZNSt3__128__exception_guard_exceptionsINS_29_AllocatorDestroyRangeReverseINS_9allocatorIdEEPdEEEC2B7v160006ES5_, symObjAddr: 0x8B3C, symBinAddr: 0x10000BEF8, symSize: 0x30 }
  - { offsetInCU: 0x17AEA, offset: 0x17AEA, size: 0x8, addend: 0x0, symName: __ZNSt3__129_AllocatorDestroyRangeReverseINS_9allocatorIdEEPdEC2B7v160006ERS2_RS3_S6_, symObjAddr: 0x8B6C, symBinAddr: 0x10000BF28, symSize: 0x38 }
  - { offsetInCU: 0x17B40, offset: 0x17B40, size: 0x8, addend: 0x0, symName: __ZNSt3__19allocatorIdE9constructB7v160006IdJRdEEEvPT_DpOT0_, symObjAddr: 0x8BA4, symBinAddr: 0x10000BF60, symSize: 0x28 }
  - { offsetInCU: 0x17B95, offset: 0x17B95, size: 0x8, addend: 0x0, symName: __ZNSt3__128__exception_guard_exceptionsINS_29_AllocatorDestroyRangeReverseINS_9allocatorIdEEPdEEED2B7v160006Ev, symObjAddr: 0x8BCC, symBinAddr: 0x10000BF88, symSize: 0x50 }
  - { offsetInCU: 0x17BBE, offset: 0x17BBE, size: 0x8, addend: 0x0, symName: __ZNKSt3__129_AllocatorDestroyRangeReverseINS_9allocatorIdEEPdEclB7v160006Ev, symObjAddr: 0x8C1C, symBinAddr: 0x10000BFD8, symSize: 0x68 }
  - { offsetInCU: 0x17BE8, offset: 0x17BE8, size: 0x8, addend: 0x0, symName: __ZNSt3__119__to_address_helperINS_16reverse_iteratorIPdEEvE6__callB7v160006ERKS3_, symObjAddr: 0x8D18, symBinAddr: 0x10000C0D4, symSize: 0x38 }
  - { offsetInCU: 0x17C0B, offset: 0x17C0B, size: 0x8, addend: 0x0, symName: __ZNKSt3__116reverse_iteratorIPdEptB7v160006Ev, symObjAddr: 0x8D50, symBinAddr: 0x10000C10C, symSize: 0x24 }
  - { offsetInCU: 0x17C30, offset: 0x17C30, size: 0x8, addend: 0x0, symName: __ZNSt3__128__exception_guard_exceptionsINS_6vectorIdNS_9allocatorIdEEE16__destroy_vectorEED2B7v160006Ev, symObjAddr: 0x8D74, symBinAddr: 0x10000C130, symSize: 0x50 }
  - { offsetInCU: 0x17C59, offset: 0x17C59, size: 0x8, addend: 0x0, symName: __ZNSt3__16vectorIdNS_9allocatorIdEEE16__destroy_vectorclB7v160006Ev, symObjAddr: 0x8DC4, symBinAddr: 0x10000C180, symSize: 0x9C }
  - { offsetInCU: 0x17C7E, offset: 0x17C7E, size: 0x8, addend: 0x0, symName: __ZNSt3__16vectorIdNS_9allocatorIdEEE7__clearB7v160006Ev, symObjAddr: 0x8E70, symBinAddr: 0x10000C22C, symSize: 0x28 }
  - { offsetInCU: 0x17CA3, offset: 0x17CA3, size: 0x8, addend: 0x0, symName: __ZNSt3__16vectorIdNS_9allocatorIdEEE22__base_destruct_at_endB7v160006EPd, symObjAddr: 0x8E98, symBinAddr: 0x10000C254, symSize: 0x8C }
  - { offsetInCU: 0x17CE6, offset: 0x17CE6, size: 0x8, addend: 0x0, symName: __ZN5PointD2Ev, symObjAddr: 0x8F24, symBinAddr: 0x10000C2E0, symSize: 0x38 }
  - { offsetInCU: 0x17D11, offset: 0x17D11, size: 0x8, addend: 0x0, symName: __ZN3KNND2Ev, symObjAddr: 0x8F5C, symBinAddr: 0x10000C318, symSize: 0x2C }
  - { offsetInCU: 0x17D3C, offset: 0x17D3C, size: 0x8, addend: 0x0, symName: __ZN7DatasetD2Ev, symObjAddr: 0x8F88, symBinAddr: 0x10000C344, symSize: 0x38 }
  - { offsetInCU: 0x17D67, offset: 0x17D67, size: 0x8, addend: 0x0, symName: __ZNSt3__16vectorINS_12basic_stringIcNS_11char_traitsIcEENS_9allocatorIcEEEENS4_IS6_EEED1B7v160006Ev, symObjAddr: 0x8FC0, symBinAddr: 0x10000C37C, symSize: 0x2C }
  - { offsetInCU: 0x17D90, offset: 0x17D90, size: 0x8, addend: 0x0, symName: __ZNSt3__16vectorI5PointNS_9allocatorIS1_EEED1B7v160006Ev, symObjAddr: 0x8FEC, symBinAddr: 0x10000C3A8, symSize: 0x2C }
  - { offsetInCU: 0x17DB9, offset: 0x17DB9, size: 0x8, addend: 0x0, symName: __ZNSt3__16vectorINS_12basic_stringIcNS_11char_traitsIcEENS_9allocatorIcEEEENS4_IS6_EEED2B7v160006Ev, symObjAddr: 0x9018, symBinAddr: 0x10000C3D4, symSize: 0x44 }
  - { offsetInCU: 0x17DE2, offset: 0x17DE2, size: 0x8, addend: 0x0, symName: __ZNSt3__16vectorINS_12basic_stringIcNS_11char_traitsIcEENS_9allocatorIcEEEENS4_IS6_EEE16__destroy_vectorC1ERS8_, symObjAddr: 0x905C, symBinAddr: 0x10000C418, symSize: 0x34 }
  - { offsetInCU: 0x17E1A, offset: 0x17E1A, size: 0x8, addend: 0x0, symName: __ZNSt3__16vectorINS_12basic_stringIcNS_11char_traitsIcEENS_9allocatorIcEEEENS4_IS6_EEE16__destroy_vectorclB7v160006Ev, symObjAddr: 0x9090, symBinAddr: 0x10000C44C, symSize: 0x9C }
  - { offsetInCU: 0x17E3F, offset: 0x17E3F, size: 0x8, addend: 0x0, symName: __ZNSt3__16vectorINS_12basic_stringIcNS_11char_traitsIcEENS_9allocatorIcEEEENS4_IS6_EEE16__destroy_vectorC2ERS8_, symObjAddr: 0x912C, symBinAddr: 0x10000C4E8, symSize: 0x20 }
  - { offsetInCU: 0x17E77, offset: 0x17E77, size: 0x8, addend: 0x0, symName: __ZNSt3__16vectorINS_12basic_stringIcNS_11char_traitsIcEENS_9allocatorIcEEEENS4_IS6_EEE7__clearB7v160006Ev, symObjAddr: 0x915C, symBinAddr: 0x10000C518, symSize: 0x28 }
  - { offsetInCU: 0x17E9C, offset: 0x17E9C, size: 0x8, addend: 0x0, symName: __ZNSt3__16vectorINS_12basic_stringIcNS_11char_traitsIcEENS_9allocatorIcEEEENS4_IS6_EEE22__base_destruct_at_endB7v160006EPS6_, symObjAddr: 0x9184, symBinAddr: 0x10000C540, symSize: 0x8C }
  - { offsetInCU: 0x17EDF, offset: 0x17EDF, size: 0x8, addend: 0x0, symName: __ZNSt3__16vectorI5PointNS_9allocatorIS1_EEED2B7v160006Ev, symObjAddr: 0x9210, symBinAddr: 0x10000C5CC, symSize: 0x44 }
  - { offsetInCU: 0x17F08, offset: 0x17F08, size: 0x8, addend: 0x0, symName: __ZNSt3__16vectorI5PointNS_9allocatorIS1_EEE16__destroy_vectorC1ERS4_, symObjAddr: 0x9254, symBinAddr: 0x10000C610, symSize: 0x34 }
  - { offsetInCU: 0x17F40, offset: 0x17F40, size: 0x8, addend: 0x0, symName: __ZNSt3__16vectorI5PointNS_9allocatorIS1_EEE16__destroy_vectorclB7v160006Ev, symObjAddr: 0x9288, symBinAddr: 0x10000C644, symSize: 0x9C }
  - { offsetInCU: 0x17F65, offset: 0x17F65, size: 0x8, addend: 0x0, symName: __ZNSt3__16vectorI5PointNS_9allocatorIS1_EEE16__destroy_vectorC2ERS4_, symObjAddr: 0x9324, symBinAddr: 0x10000C6E0, symSize: 0x20 }
  - { offsetInCU: 0x17F9D, offset: 0x17F9D, size: 0x8, addend: 0x0, symName: __ZNSt3__16vectorI5PointNS_9allocatorIS1_EEE7__clearB7v160006Ev, symObjAddr: 0x9354, symBinAddr: 0x10000C710, symSize: 0x28 }
  - { offsetInCU: 0x17FC2, offset: 0x17FC2, size: 0x8, addend: 0x0, symName: __ZNSt3__16vectorI5PointNS_9allocatorIS1_EEE22__base_destruct_at_endB7v160006EPS1_, symObjAddr: 0x937C, symBinAddr: 0x10000C738, symSize: 0x8C }
  - { offsetInCU: 0x18005, offset: 0x18005, size: 0x8, addend: 0x0, symName: __ZNSt3__16vectorIdNS_9allocatorIdEEED2B7v160006Ev, symObjAddr: 0x9408, symBinAddr: 0x10000C7C4, symSize: 0x44 }
  - { offsetInCU: 0x1802E, offset: 0x1802E, size: 0x8, addend: 0x0, symName: __ZNSt3__112basic_stringIcNS_11char_traitsIcEENS_9allocatorIcEEEC2B7v160006IDnEEPKc, symObjAddr: 0x944C, symBinAddr: 0x10000C808, symSize: 0x60 }
  - { offsetInCU: 0x1806B, offset: 0x1806B, size: 0x8, addend: 0x0, symName: __ZNSt3__16vectorIP6SectorNS_9allocatorIS2_EEED2B7v160006Ev, symObjAddr: 0x94AC, symBinAddr: 0x10000C868, symSize: 0x44 }
  - { offsetInCU: 0x18094, offset: 0x18094, size: 0x8, addend: 0x0, symName: __ZNSt3__16vectorIP6SectorNS_9allocatorIS2_EEE16__destroy_vectorC1ERS5_, symObjAddr: 0x94F0, symBinAddr: 0x10000C8AC, symSize: 0x34 }
  - { offsetInCU: 0x180CC, offset: 0x180CC, size: 0x8, addend: 0x0, symName: __ZNSt3__16vectorIP6SectorNS_9allocatorIS2_EEE16__destroy_vectorclB7v160006Ev, symObjAddr: 0x9524, symBinAddr: 0x10000C8E0, symSize: 0x9C }
  - { offsetInCU: 0x180F1, offset: 0x180F1, size: 0x8, addend: 0x0, symName: __ZNSt3__16vectorIP6SectorNS_9allocatorIS2_EEE16__destroy_vectorC2ERS5_, symObjAddr: 0x95C0, symBinAddr: 0x10000C97C, symSize: 0x20 }
  - { offsetInCU: 0x18129, offset: 0x18129, size: 0x8, addend: 0x0, symName: __ZNKSt3__16vectorIP6SectorNS_9allocatorIS2_EEE17__annotate_deleteB7v160006Ev, symObjAddr: 0x95E0, symBinAddr: 0x10000C99C, symSize: 0xB8 }
  - { offsetInCU: 0x1814E, offset: 0x1814E, size: 0x8, addend: 0x0, symName: __ZNSt3__16vectorIP6SectorNS_9allocatorIS2_EEE7__clearB7v160006Ev, symObjAddr: 0x96A8, symBinAddr: 0x10000CA64, symSize: 0x28 }
  - { offsetInCU: 0x18173, offset: 0x18173, size: 0x8, addend: 0x0, symName: __ZNSt3__116allocator_traitsINS_9allocatorIP6SectorEEE10deallocateB7v160006ERS4_PS3_m, symObjAddr: 0x96D0, symBinAddr: 0x10000CA8C, symSize: 0x34 }
  - { offsetInCU: 0x181B5, offset: 0x181B5, size: 0x8, addend: 0x0, symName: __ZNSt3__16vectorIP6SectorNS_9allocatorIS2_EEE7__allocB7v160006Ev, symObjAddr: 0x9704, symBinAddr: 0x10000CAC0, symSize: 0x28 }
  - { offsetInCU: 0x181DA, offset: 0x181DA, size: 0x8, addend: 0x0, symName: __ZNKSt3__16vectorIP6SectorNS_9allocatorIS2_EEE8capacityB7v160006Ev, symObjAddr: 0x972C, symBinAddr: 0x10000CAE8, symSize: 0x40 }
  - { offsetInCU: 0x181FF, offset: 0x181FF, size: 0x8, addend: 0x0, symName: __ZNKSt3__16vectorIP6SectorNS_9allocatorIS2_EEE31__annotate_contiguous_containerB7v160006EPKvS7_S7_S7_, symObjAddr: 0x976C, symBinAddr: 0x10000CB28, symSize: 0x20 }
  - { offsetInCU: 0x18250, offset: 0x18250, size: 0x8, addend: 0x0, symName: __ZNKSt3__16vectorIP6SectorNS_9allocatorIS2_EEE4dataB7v160006Ev, symObjAddr: 0x978C, symBinAddr: 0x10000CB48, symSize: 0x28 }
  - { offsetInCU: 0x18275, offset: 0x18275, size: 0x8, addend: 0x0, symName: __ZNKSt3__16vectorIP6SectorNS_9allocatorIS2_EEE4sizeB7v160006Ev, symObjAddr: 0x97B4, symBinAddr: 0x10000CB70, symSize: 0x28 }
  - { offsetInCU: 0x1829A, offset: 0x1829A, size: 0x8, addend: 0x0, symName: __ZNSt3__16vectorIP6SectorNS_9allocatorIS2_EEE22__base_destruct_at_endB7v160006EPS2_, symObjAddr: 0x97F0, symBinAddr: 0x10000CBAC, symSize: 0x8C }
  - { offsetInCU: 0x182DD, offset: 0x182DD, size: 0x8, addend: 0x0, symName: __ZNSt3__116allocator_traitsINS_9allocatorIP6SectorEEE7destroyB7v160006IS3_vEEvRS4_PT_, symObjAddr: 0x987C, symBinAddr: 0x10000CC38, symSize: 0x2C }
  - { offsetInCU: 0x1831A, offset: 0x1831A, size: 0x8, addend: 0x0, symName: __ZNSt3__19allocatorIP6SectorE7destroyB7v160006EPS2_, symObjAddr: 0x98A8, symBinAddr: 0x10000CC64, symSize: 0x14 }
  - { offsetInCU: 0x1834D, offset: 0x1834D, size: 0x8, addend: 0x0, symName: __ZNSt3__19allocatorIP6SectorE10deallocateB7v160006EPS2_m, symObjAddr: 0x98BC, symBinAddr: 0x10000CC78, symSize: 0x40 }
  - { offsetInCU: 0x1838E, offset: 0x1838E, size: 0x8, addend: 0x0, symName: __ZNSt3__117__compressed_pairIPP6SectorNS_9allocatorIS2_EEE6secondB7v160006Ev, symObjAddr: 0x98FC, symBinAddr: 0x10000CCB8, symSize: 0x24 }
  - { offsetInCU: 0x183B3, offset: 0x183B3, size: 0x8, addend: 0x0, symName: __ZNSt3__122__compressed_pair_elemINS_9allocatorIP6SectorEELi1ELb1EE5__getB7v160006Ev, symObjAddr: 0x9920, symBinAddr: 0x10000CCDC, symSize: 0x14 }
  - { offsetInCU: 0x183D8, offset: 0x183D8, size: 0x8, addend: 0x0, symName: __ZNKSt3__16vectorIP6SectorNS_9allocatorIS2_EEE9__end_capB7v160006Ev, symObjAddr: 0x9934, symBinAddr: 0x10000CCF0, symSize: 0x28 }
  - { offsetInCU: 0x183FD, offset: 0x183FD, size: 0x8, addend: 0x0, symName: __ZNKSt3__117__compressed_pairIPP6SectorNS_9allocatorIS2_EEE5firstB7v160006Ev, symObjAddr: 0x995C, symBinAddr: 0x10000CD18, symSize: 0x24 }
  - { offsetInCU: 0x18422, offset: 0x18422, size: 0x8, addend: 0x0, symName: __ZNKSt3__122__compressed_pair_elemIPP6SectorLi0ELb0EE5__getB7v160006Ev, symObjAddr: 0x9980, symBinAddr: 0x10000CD3C, symSize: 0x14 }
  - { offsetInCU: 0x18446, offset: 0x18446, size: 0x8, addend: 0x0, symName: __ZNSt3__16vectorIP6SectorNS_9allocatorIS2_EEE13__move_assignERS5_NS_17integral_constantIbLb1EEE, symObjAddr: 0x9994, symBinAddr: 0x10000CD50, symSize: 0xAC }
  - { offsetInCU: 0x18486, offset: 0x18486, size: 0x8, addend: 0x0, symName: __ZNSt3__16vectorIP6SectorNS_9allocatorIS2_EEE13__vdeallocateEv, symObjAddr: 0x9A40, symBinAddr: 0x10000CDFC, symSize: 0x8C }
  - { offsetInCU: 0x184AD, offset: 0x184AD, size: 0x8, addend: 0x0, symName: __ZNSt3__16vectorIP6SectorNS_9allocatorIS2_EEE19__move_assign_allocB7v160006ERS5_, symObjAddr: 0x9ACC, symBinAddr: 0x10000CE88, symSize: 0x2C }
  - { offsetInCU: 0x184E1, offset: 0x184E1, size: 0x8, addend: 0x0, symName: __ZNSt3__16vectorIP6SectorNS_9allocatorIS2_EEE9__end_capB7v160006Ev, symObjAddr: 0x9AF8, symBinAddr: 0x10000CEB4, symSize: 0x28 }
  - { offsetInCU: 0x18506, offset: 0x18506, size: 0x8, addend: 0x0, symName: __ZNSt3__16vectorIP6SectorNS_9allocatorIS2_EEE5clearB7v160006Ev, symObjAddr: 0x9B34, symBinAddr: 0x10000CEF0, symSize: 0x54 }
  - { offsetInCU: 0x1853A, offset: 0x1853A, size: 0x8, addend: 0x0, symName: __ZNKSt3__16vectorIP6SectorNS_9allocatorIS2_EEE17__annotate_shrinkB7v160006Em, symObjAddr: 0x9B88, symBinAddr: 0x10000CF44, symSize: 0xB4 }
  - { offsetInCU: 0x1856E, offset: 0x1856E, size: 0x8, addend: 0x0, symName: __ZNSt3__16vectorIP6SectorNS_9allocatorIS2_EEE19__move_assign_allocB7v160006ERS5_NS_17integral_constantIbLb1EEE, symObjAddr: 0x9C4C, symBinAddr: 0x10000D008, symSize: 0x38 }
  - { offsetInCU: 0x185AD, offset: 0x185AD, size: 0x8, addend: 0x0, symName: __ZNSt3__117__compressed_pairIPP6SectorNS_9allocatorIS2_EEE5firstB7v160006Ev, symObjAddr: 0x9C84, symBinAddr: 0x10000D040, symSize: 0x24 }
  - { offsetInCU: 0x185D2, offset: 0x185D2, size: 0x8, addend: 0x0, symName: __ZNSt3__122__compressed_pair_elemIPP6SectorLi0ELb0EE5__getB7v160006Ev, symObjAddr: 0x9CA8, symBinAddr: 0x10000D064, symSize: 0x14 }
  - { offsetInCU: 0x185F7, offset: 0x185F7, size: 0x8, addend: 0x0, symName: __ZNSt3__16vectorIdNS_9allocatorIdEEEC2B7v160006ESt16initializer_listIdE, symObjAddr: 0x9CBC, symBinAddr: 0x10000D078, symSize: 0x128 }
  - { offsetInCU: 0x18646, offset: 0x18646, size: 0x8, addend: 0x0, symName: __ZNKSt16initializer_listIdE4sizeB7v160006Ev, symObjAddr: 0x9DE4, symBinAddr: 0x10000D1A0, symSize: 0x18 }
  - { offsetInCU: 0x1866A, offset: 0x1866A, size: 0x8, addend: 0x0, symName: __ZNSt3__16vectorIdNS_9allocatorIdEEE18__construct_at_endIPKdLi0EEEvT_S7_m, symObjAddr: 0x9DFC, symBinAddr: 0x10000D1B8, symSize: 0x8C }
  - { offsetInCU: 0x186DC, offset: 0x186DC, size: 0x8, addend: 0x0, symName: __ZNKSt16initializer_listIdE5beginB7v160006Ev, symObjAddr: 0x9E88, symBinAddr: 0x10000D244, symSize: 0x18 }
  - { offsetInCU: 0x18701, offset: 0x18701, size: 0x8, addend: 0x0, symName: __ZNKSt16initializer_listIdE3endB7v160006Ev, symObjAddr: 0x9EA0, symBinAddr: 0x10000D25C, symSize: 0x20 }
  - { offsetInCU: 0x18749, offset: 0x18749, size: 0x8, addend: 0x0, symName: __ZNKSt3__114__copy_trivialclB7v160006IKddLi0EEENS_4pairIPT_PT0_EES5_S5_S7_, symObjAddr: 0xA0D4, symBinAddr: 0x10000D490, symSize: 0x48 }
  - { offsetInCU: 0x187CE, offset: 0x187CE, size: 0x8, addend: 0x0, symName: __ZNSt3__14pairIPKdS2_EC1B7v160006IS2_S2_LPv0EEEOT_OT0_, symObjAddr: 0xA23C, symBinAddr: 0x10000D5F8, symSize: 0x3C }
  - { offsetInCU: 0x1882B, offset: 0x1882B, size: 0x8, addend: 0x0, symName: __ZNSt3__14pairIPKdS2_EC2B7v160006IS2_S2_LPv0EEEOT_OT0_, symObjAddr: 0xA278, symBinAddr: 0x10000D634, symSize: 0x34 }
  - { offsetInCU: 0x18888, offset: 0x18888, size: 0x8, addend: 0x0, symName: __ZNSt3__118__unwrap_iter_implIPKdLb1EE8__unwrapB7v160006ES2_, symObjAddr: 0xA2AC, symBinAddr: 0x10000D668, symSize: 0x24 }
  - { offsetInCU: 0x188B5, offset: 0x188B5, size: 0x8, addend: 0x0, symName: __ZNSt3__14pairIPKdPdEC1B7v160006IRS2_S3_LPv0EEEOT_OT0_, symObjAddr: 0xA3A0, symBinAddr: 0x10000D75C, symSize: 0x3C }
  - { offsetInCU: 0x18912, offset: 0x18912, size: 0x8, addend: 0x0, symName: __ZNSt3__14pairIPKdPdEC2B7v160006IRS2_S3_LPv0EEEOT_OT0_, symObjAddr: 0xA3DC, symBinAddr: 0x10000D798, symSize: 0x34 }
  - { offsetInCU: 0x1896F, offset: 0x1896F, size: 0x8, addend: 0x0, symName: __ZNSt3__118__unwrap_iter_implIPdLb1EE8__unwrapB7v160006ES1_, symObjAddr: 0xA410, symBinAddr: 0x10000D7CC, symSize: 0x24 }
  - { offsetInCU: 0x18992, offset: 0x18992, size: 0x8, addend: 0x0, symName: __ZNSt3__14pairIPKdPdEC1B7v160006IS2_S3_LPv0EEEOT_OT0_, symObjAddr: 0xA434, symBinAddr: 0x10000D7F0, symSize: 0x3C }
  - { offsetInCU: 0x189EF, offset: 0x189EF, size: 0x8, addend: 0x0, symName: __ZNSt3__14pairIPKdPdEC2B7v160006IS2_S3_LPv0EEEOT_OT0_, symObjAddr: 0xA470, symBinAddr: 0x10000D82C, symSize: 0x34 }
  - { offsetInCU: 0x18A4C, offset: 0x18A4C, size: 0x8, addend: 0x0, symName: __ZNSt3__118__unwrap_iter_implIPKdLb1EE8__rewrapB7v160006ES2_S2_, symObjAddr: 0xA4E0, symBinAddr: 0x10000D89C, symSize: 0x50 }
  - { offsetInCU: 0x18A7D, offset: 0x18A7D, size: 0x8, addend: 0x0, symName: __ZNSt3__118__unwrap_iter_implIPdLb1EE8__rewrapB7v160006ES1_S1_, symObjAddr: 0xA530, symBinAddr: 0x10000D8EC, symSize: 0x50 }
  - { offsetInCU: 0x2BE9, offset: 0x1BA5B, size: 0x8, addend: 0x0, symName: __ZNSt3__1plB7v160006IcNS_11char_traitsIcEENS_9allocatorIcEEEENS_12basic_stringIT_T0_T1_EEOS9_RKS9_, symObjAddr: 0x440, symBinAddr: 0x10000DD1C, symSize: 0x40 }
  - { offsetInCU: 0x2D3D, offset: 0x1BBAF, size: 0x8, addend: 0x0, symName: __Z3powB7v160006IiiENSt3__19enable_ifIXaasr3std13is_arithmeticIT_EE5valuesr3std13is_arithmeticIT0_EE5valueENS0_9__promoteIS2_S3_vEEE4type4typeES2_S3_, symObjAddr: 0x3C8, symBinAddr: 0x10000DCD8, symSize: 0x44 }
  - { offsetInCU: 0x4DB6, offset: 0x1DC28, size: 0x8, addend: 0x0, symName: __ZN6SectorC2Eiii, symObjAddr: 0x0, symBinAddr: 0x10000D93C, symSize: 0x39C }
  - { offsetInCU: 0x4E51, offset: 0x1DCC3, size: 0x8, addend: 0x0, symName: __ZNSt3__112basic_stringIcNS_11char_traitsIcEENS_9allocatorIcEEEaSB7v160006EOS5_, symObjAddr: 0x480, symBinAddr: 0x10000DD5C, symSize: 0x34 }
  - { offsetInCU: 0x4E85, offset: 0x1DCF7, size: 0x8, addend: 0x0, symName: __ZN6SectorC1Eiii, symObjAddr: 0x4B4, symBinAddr: 0x10000DD90, symSize: 0x44 }
  - { offsetInCU: 0x4EDA, offset: 0x1DD4C, size: 0x8, addend: 0x0, symName: __ZN6SectorD2Ev, symObjAddr: 0x4F8, symBinAddr: 0x10000DDD4, symSize: 0x30 }
  - { offsetInCU: 0x4F04, offset: 0x1DD76, size: 0x8, addend: 0x0, symName: __ZN6SectorD1Ev, symObjAddr: 0x528, symBinAddr: 0x10000DE04, symSize: 0x2C }
  - { offsetInCU: 0x4F2E, offset: 0x1DDA0, size: 0x8, addend: 0x0, symName: __ZN6SectoraSERKS_, symObjAddr: 0x554, symBinAddr: 0x10000DE30, symSize: 0xC0 }
  - { offsetInCU: 0x4F63, offset: 0x1DDD5, size: 0x8, addend: 0x0, symName: __ZNK6SectoreqERKS_, symObjAddr: 0x614, symBinAddr: 0x10000DEF0, symSize: 0x90 }
  - { offsetInCU: 0x4F98, offset: 0x1DE0A, size: 0x8, addend: 0x0, symName: __ZNK6SectorneERKS_, symObjAddr: 0x6A4, symBinAddr: 0x10000DF80, symSize: 0x34 }
  - { offsetInCU: 0x4FCD, offset: 0x1DE3F, size: 0x8, addend: 0x0, symName: __ZNK6SectorltERKS_, symObjAddr: 0x6D8, symBinAddr: 0x10000DFB4, symSize: 0x10C }
  - { offsetInCU: 0x5002, offset: 0x1DE74, size: 0x8, addend: 0x0, symName: __ZNK6SectorgtERKS_, symObjAddr: 0x7E4, symBinAddr: 0x10000E0C0, symSize: 0x10C }
  - { offsetInCU: 0x5037, offset: 0x1DEA9, size: 0x8, addend: 0x0, symName: __ZNK6SectorleERKS_, symObjAddr: 0x8F0, symBinAddr: 0x10000E1CC, symSize: 0x5C }
  - { offsetInCU: 0x506C, offset: 0x1DEDE, size: 0x8, addend: 0x0, symName: __ZNK6SectorgeERKS_, symObjAddr: 0x94C, symBinAddr: 0x10000E228, symSize: 0x5C }
  - { offsetInCU: 0x50A1, offset: 0x1DF13, size: 0x8, addend: 0x0, symName: __ZNSt3__112basic_stringIcNS_11char_traitsIcEENS_9allocatorIcEEE6appendB7v160006ERKS5_, symObjAddr: 0xC40, symBinAddr: 0x10000E284, symSize: 0x4C }
  - { offsetInCU: 0x50D5, offset: 0x1DF47, size: 0x8, addend: 0x0, symName: __ZNSt3__112basic_stringIcNS_11char_traitsIcEENS_9allocatorIcEEE13__move_assignB7v160006ERS5_NS_17integral_constantIbLb1EEE, symObjAddr: 0xF68, symBinAddr: 0x10000E2D0, symSize: 0xC8 }
  - { offsetInCU: 0x5115, offset: 0x1DF87, size: 0x8, addend: 0x0, symName: __ZNSt3__116allocator_traitsINS_9allocatorIcEEE10deallocateB7v160006ERS2_Pcm, symObjAddr: 0x1030, symBinAddr: 0x10000E398, symSize: 0x34 }
  - { offsetInCU: 0x5157, offset: 0x1DFC9, size: 0x8, addend: 0x0, symName: __ZNSt3__112basic_stringIcNS_11char_traitsIcEENS_9allocatorIcEEE7__allocB7v160006Ev, symObjAddr: 0x1064, symBinAddr: 0x10000E3CC, symSize: 0x24 }
  - { offsetInCU: 0x517C, offset: 0x1DFEE, size: 0x8, addend: 0x0, symName: __ZNKSt3__112basic_stringIcNS_11char_traitsIcEENS_9allocatorIcEEE14__get_long_capB7v160006Ev, symObjAddr: 0x10B0, symBinAddr: 0x10000E3F0, symSize: 0x30 }
  - { offsetInCU: 0x51A1, offset: 0x1E013, size: 0x8, addend: 0x0, symName: __ZNSt3__112basic_stringIcNS_11char_traitsIcEENS_9allocatorIcEEE19__move_assign_allocB7v160006ERS5_, symObjAddr: 0x10E0, symBinAddr: 0x10000E420, symSize: 0x2C }
  - { offsetInCU: 0x51D5, offset: 0x1E047, size: 0x8, addend: 0x0, symName: __ZNSt3__19allocatorIcE10deallocateB7v160006EPcm, symObjAddr: 0x11D0, symBinAddr: 0x10000E44C, symSize: 0x40 }
  - { offsetInCU: 0x5216, offset: 0x1E088, size: 0x8, addend: 0x0, symName: __ZNSt3__117__compressed_pairINS_12basic_stringIcNS_11char_traitsIcEENS_9allocatorIcEEE5__repES5_E6secondB7v160006Ev, symObjAddr: 0x128C, symBinAddr: 0x10000E48C, symSize: 0x24 }
  - { offsetInCU: 0x523B, offset: 0x1E0AD, size: 0x8, addend: 0x0, symName: __ZNSt3__122__compressed_pair_elemINS_9allocatorIcEELi1ELb1EE5__getB7v160006Ev, symObjAddr: 0x12B0, symBinAddr: 0x10000E4B0, symSize: 0x14 }
  - { offsetInCU: 0x5260, offset: 0x1E0D2, size: 0x8, addend: 0x0, symName: __ZNSt3__112basic_stringIcNS_11char_traitsIcEENS_9allocatorIcEEE19__move_assign_allocB7v160006ERS5_NS_17integral_constantIbLb1EEE, symObjAddr: 0x12C4, symBinAddr: 0x10000E4C4, symSize: 0x38 }
  - { offsetInCU: 0x3690, offset: 0x217BA, size: 0x8, addend: 0x0, symName: __ZNSt3__119__debug_db_insert_cB7v160006INS_6vectorIP6SectorNS_9allocatorIS3_EEEEEEvPT_, symObjAddr: 0x27C, symBinAddr: 0x10000E740, symSize: 0x10 }
  - { offsetInCU: 0x59A1, offset: 0x23ACB, size: 0x8, addend: 0x0, symName: __ZN14SpaceSectorBSTC2Ev, symObjAddr: 0x0, symBinAddr: 0x10000E4FC, symSize: 0x18 }
  - { offsetInCU: 0x59CC, offset: 0x23AF6, size: 0x8, addend: 0x0, symName: __ZN14SpaceSectorBSTC1Ev, symObjAddr: 0x18, symBinAddr: 0x10000E514, symSize: 0x2C }
  - { offsetInCU: 0x59F7, offset: 0x23B21, size: 0x8, addend: 0x0, symName: __ZN14SpaceSectorBSTD2Ev, symObjAddr: 0x44, symBinAddr: 0x10000E540, symSize: 0x14 }
  - { offsetInCU: 0x5A22, offset: 0x23B4C, size: 0x8, addend: 0x0, symName: __ZN14SpaceSectorBSTD1Ev, symObjAddr: 0x58, symBinAddr: 0x10000E554, symSize: 0x2C }
  - { offsetInCU: 0x5A4D, offset: 0x23B77, size: 0x8, addend: 0x0, symName: __ZN14SpaceSectorBST19readSectorsFromFileERKNSt3__112basic_stringIcNS0_11char_traitsIcEENS0_9allocatorIcEEEE, symObjAddr: 0x84, symBinAddr: 0x10000E580, symSize: 0x14 }
  - { offsetInCU: 0x5A82, offset: 0x23BAC, size: 0x8, addend: 0x0, symName: __ZN14SpaceSectorBST25insertSectorByCoordinatesEiii, symObjAddr: 0x98, symBinAddr: 0x10000E594, symSize: 0x1C }
  - { offsetInCU: 0x5AD3, offset: 0x23BFD, size: 0x8, addend: 0x0, symName: __ZN14SpaceSectorBST12deleteSectorERKNSt3__112basic_stringIcNS0_11char_traitsIcEENS0_9allocatorIcEEEE, symObjAddr: 0xB4, symBinAddr: 0x10000E5B0, symSize: 0x14 }
  - { offsetInCU: 0x5B08, offset: 0x23C32, size: 0x8, addend: 0x0, symName: __ZN14SpaceSectorBST21displaySectorsInOrderEv, symObjAddr: 0xC8, symBinAddr: 0x10000E5C4, symSize: 0x10 }
  - { offsetInCU: 0x5B2F, offset: 0x23C59, size: 0x8, addend: 0x0, symName: __ZN14SpaceSectorBST22displaySectorsPreOrderEv, symObjAddr: 0xD8, symBinAddr: 0x10000E5D4, symSize: 0x10 }
  - { offsetInCU: 0x5B56, offset: 0x23C80, size: 0x8, addend: 0x0, symName: __ZN14SpaceSectorBST23displaySectorsPostOrderEv, symObjAddr: 0xE8, symBinAddr: 0x10000E5E4, symSize: 0x10 }
  - { offsetInCU: 0x5B7D, offset: 0x23CA7, size: 0x8, addend: 0x0, symName: __ZN14SpaceSectorBST14getStellarPathERKNSt3__112basic_stringIcNS0_11char_traitsIcEENS0_9allocatorIcEEEE, symObjAddr: 0xF8, symBinAddr: 0x10000E5F4, symSize: 0x78 }
  - { offsetInCU: 0x5BC1, offset: 0x23CEB, size: 0x8, addend: 0x0, symName: __ZNSt3__16vectorIP6SectorNS_9allocatorIS2_EEEC1B7v160006Ev, symObjAddr: 0x170, symBinAddr: 0x10000E66C, symSize: 0x2C }
  - { offsetInCU: 0x5BEA, offset: 0x23D14, size: 0x8, addend: 0x0, symName: __ZN14SpaceSectorBST16printStellarPathERKNSt3__16vectorIP6SectorNS0_9allocatorIS3_EEEE, symObjAddr: 0x1C8, symBinAddr: 0x10000E698, symSize: 0x14 }
  - { offsetInCU: 0x5C1F, offset: 0x23D49, size: 0x8, addend: 0x0, symName: __ZNSt3__16vectorIP6SectorNS_9allocatorIS2_EEEC2B7v160006Ev, symObjAddr: 0x1DC, symBinAddr: 0x10000E6AC, symSize: 0x58 }
  - { offsetInCU: 0x5C52, offset: 0x23D7C, size: 0x8, addend: 0x0, symName: __ZNSt3__117__compressed_pairIPP6SectorNS_9allocatorIS2_EEEC1B7v160006IDnNS_18__default_init_tagEEEOT_OT0_, symObjAddr: 0x234, symBinAddr: 0x10000E704, symSize: 0x3C }
  - { offsetInCU: 0x5CA9, offset: 0x23DD3, size: 0x8, addend: 0x0, symName: __ZNSt3__117__compressed_pairIPP6SectorNS_9allocatorIS2_EEEC2B7v160006IDnNS_18__default_init_tagEEEOT_OT0_, symObjAddr: 0x28C, symBinAddr: 0x10000E750, symSize: 0x40 }
  - { offsetInCU: 0x5D00, offset: 0x23E2A, size: 0x8, addend: 0x0, symName: __ZNSt3__122__compressed_pair_elemIPP6SectorLi0ELb0EEC2B7v160006IDnvEEOT_, symObjAddr: 0x2CC, symBinAddr: 0x10000E790, symSize: 0x1C }
  - { offsetInCU: 0x5D41, offset: 0x23E6B, size: 0x8, addend: 0x0, symName: __ZNSt3__122__compressed_pair_elemINS_9allocatorIP6SectorEELi1ELb1EEC2B7v160006ENS_18__default_init_tagE, symObjAddr: 0x2E8, symBinAddr: 0x10000E7AC, symSize: 0x2C }
  - { offsetInCU: 0x5D75, offset: 0x23E9F, size: 0x8, addend: 0x0, symName: __ZNSt3__19allocatorIP6SectorEC2B7v160006Ev, symObjAddr: 0x314, symBinAddr: 0x10000E7D8, symSize: 0x2C }
  - { offsetInCU: 0x5D9E, offset: 0x23EC8, size: 0x8, addend: 0x0, symName: __ZNSt3__116__non_trivial_ifILb1ENS_9allocatorIP6SectorEEEC2B7v160006Ev, symObjAddr: 0x340, symBinAddr: 0x10000E804, symSize: 0x14 }
  - { offsetInCU: 0x56BA, offset: 0x295BF, size: 0x8, addend: 0x0, symName: __ZN16SpaceSectorLLRBTC2Ev, symObjAddr: 0x0, symBinAddr: 0x10000E818, symSize: 0x18 }
  - { offsetInCU: 0x56E5, offset: 0x295EA, size: 0x8, addend: 0x0, symName: __ZN16SpaceSectorLLRBTC1Ev, symObjAddr: 0x18, symBinAddr: 0x10000E830, symSize: 0x2C }
  - { offsetInCU: 0x5710, offset: 0x29615, size: 0x8, addend: 0x0, symName: __ZN16SpaceSectorLLRBT19readSectorsFromFileERKNSt3__112basic_stringIcNS0_11char_traitsIcEENS0_9allocatorIcEEEE, symObjAddr: 0x44, symBinAddr: 0x10000E85C, symSize: 0x14 }
  - { offsetInCU: 0x5745, offset: 0x2964A, size: 0x8, addend: 0x0, symName: __ZN16SpaceSectorLLRBTD2Ev, symObjAddr: 0x58, symBinAddr: 0x10000E870, symSize: 0x14 }
  - { offsetInCU: 0x5770, offset: 0x29675, size: 0x8, addend: 0x0, symName: __ZN16SpaceSectorLLRBTD1Ev, symObjAddr: 0x6C, symBinAddr: 0x10000E884, symSize: 0x2C }
  - { offsetInCU: 0x579B, offset: 0x296A0, size: 0x8, addend: 0x0, symName: __ZN16SpaceSectorLLRBT25insertSectorByCoordinatesEiii, symObjAddr: 0x98, symBinAddr: 0x10000E8B0, symSize: 0x1C }
  - { offsetInCU: 0x57EC, offset: 0x296F1, size: 0x8, addend: 0x0, symName: __ZN16SpaceSectorLLRBT21displaySectorsInOrderEv, symObjAddr: 0xB4, symBinAddr: 0x10000E8CC, symSize: 0x10 }
  - { offsetInCU: 0x5813, offset: 0x29718, size: 0x8, addend: 0x0, symName: __ZN16SpaceSectorLLRBT22displaySectorsPreOrderEv, symObjAddr: 0xC4, symBinAddr: 0x10000E8DC, symSize: 0x10 }
  - { offsetInCU: 0x583A, offset: 0x2973F, size: 0x8, addend: 0x0, symName: __ZN16SpaceSectorLLRBT23displaySectorsPostOrderEv, symObjAddr: 0xD4, symBinAddr: 0x10000E8EC, symSize: 0x10 }
  - { offsetInCU: 0x5861, offset: 0x29766, size: 0x8, addend: 0x0, symName: __ZN16SpaceSectorLLRBT14getStellarPathERKNSt3__112basic_stringIcNS0_11char_traitsIcEENS0_9allocatorIcEEEE, symObjAddr: 0xE4, symBinAddr: 0x10000E8FC, symSize: 0x78 }
  - { offsetInCU: 0x58A5, offset: 0x297AA, size: 0x8, addend: 0x0, symName: __ZN16SpaceSectorLLRBT16printStellarPathERKNSt3__16vectorIP6SectorNS0_9allocatorIS3_EEEE, symObjAddr: 0x1B4, symBinAddr: 0x10000E974, symSize: 0x14 }
  - { offsetInCU: 0x26, offset: 0x2980A, size: 0x8, addend: 0x0, symName: __ZN7KD_TreeC2Ev, symObjAddr: 0x0, symBinAddr: 0x10000E988, symSize: 0x24 }
  - { offsetInCU: 0x6B00, offset: 0x302E4, size: 0x8, addend: 0x0, symName: __ZN7KD_TreeC2Ev, symObjAddr: 0x0, symBinAddr: 0x10000E988, symSize: 0x24 }
  - { offsetInCU: 0x6B2B, offset: 0x3030F, size: 0x8, addend: 0x0, symName: __ZN7KD_TreeC1Ev, symObjAddr: 0x24, symBinAddr: 0x10000E9AC, symSize: 0x2C }
  - { offsetInCU: 0x6B56, offset: 0x3033A, size: 0x8, addend: 0x0, symName: __ZN7KD_TreeC2Ed, symObjAddr: 0x50, symBinAddr: 0x10000E9D8, symSize: 0x24 }
  - { offsetInCU: 0x6B8F, offset: 0x30373, size: 0x8, addend: 0x0, symName: __ZN7KD_TreeC1Ed, symObjAddr: 0x74, symBinAddr: 0x10000E9FC, symSize: 0x34 }
  - { offsetInCU: 0x6BC8, offset: 0x303AC, size: 0x8, addend: 0x0, symName: __ZN7KD_TreeD2Ev, symObjAddr: 0xA8, symBinAddr: 0x10000EA30, symSize: 0x14 }
  - { offsetInCU: 0x6BF3, offset: 0x303D7, size: 0x8, addend: 0x0, symName: __ZN7KD_TreeD1Ev, symObjAddr: 0xBC, symBinAddr: 0x10000EA44, symSize: 0x2C }
  - { offsetInCU: 0x6C1E, offset: 0x30402, size: 0x8, addend: 0x0, symName: __ZN7KD_Tree5buildER7Dataset, symObjAddr: 0xE8, symBinAddr: 0x10000EA70, symSize: 0x14 }
  - { offsetInCU: 0x6C53, offset: 0x30437, size: 0x8, addend: 0x0, symName: __ZN7KD_Tree7getRootEv, symObjAddr: 0xFC, symBinAddr: 0x10000EA84, symSize: 0x14 }
  - { offsetInCU: 0x26, offset: 0x30489, size: 0x8, addend: 0x0, symName: __ZN3KNNC2Eid, symObjAddr: 0x0, symBinAddr: 0x10000EA98, symSize: 0x44 }
  - { offsetInCU: 0x6B00, offset: 0x36F63, size: 0x8, addend: 0x0, symName: __ZN3KNNC2Eid, symObjAddr: 0x0, symBinAddr: 0x10000EA98, symSize: 0x44 }
  - { offsetInCU: 0x6B47, offset: 0x36FAA, size: 0x8, addend: 0x0, symName: __ZN3KNNC1Eid, symObjAddr: 0x44, symBinAddr: 0x10000EADC, symSize: 0x3C }
  - { offsetInCU: 0x6B8E, offset: 0x36FF1, size: 0x8, addend: 0x0, symName: __ZN3KNN5trainER7Dataset, symObjAddr: 0x80, symBinAddr: 0x10000EB18, symSize: 0x14 }
  - { offsetInCU: 0x6BC3, offset: 0x37026, size: 0x8, addend: 0x0, symName: __ZN3KNN7predictERK5Point, symObjAddr: 0x94, symBinAddr: 0x10000EB2C, symSize: 0x18 }
...
