---
triple:          'arm64-apple-darwin'
binary-path:     Test
relocations:
  - { offsetInCU: 0x26, offset: 0x26, size: 0x8, addend: 0x0, symName: __ZN7KD_TreeC2Ev, symObjAddr: 0x0, symBinAddr: 0x100000B34, symSize: 0x24 }
  - { offsetInCU: 0x8149, offset: 0x8149, size: 0x8, addend: 0x0, symName: __ZN7KD_TreeC2Ev, symObjAddr: 0x0, symBinAddr: 0x100000B34, symSize: 0x24 }
  - { offsetInCU: 0x8173, offset: 0x8173, size: 0x8, addend: 0x0, symName: __ZN7KD_TreeC1Ev, symObjAddr: 0x24, symBinAddr: 0x100000B58, symSize: 0x2C }
  - { offsetInCU: 0x819D, offset: 0x819D, size: 0x8, addend: 0x0, symName: __ZN7KD_TreeC2Ed, symObjAddr: 0x50, symBinAddr: 0x100000B84, symSize: 0x24 }
  - { offsetInCU: 0x81D5, offset: 0x81D5, size: 0x8, addend: 0x0, symName: __ZN7KD_TreeC1Ed, symObjAddr: 0x74, symBinAddr: 0x100000BA8, symSize: 0x34 }
  - { offsetInCU: 0x820D, offset: 0x820D, size: 0x8, addend: 0x0, symName: __ZN7KD_TreeD2Ev, symObjAddr: 0xA8, symBinAddr: 0x100000BDC, symSize: 0x14 }
  - { offsetInCU: 0x8237, offset: 0x8237, size: 0x8, addend: 0x0, symName: __ZN7KD_TreeD1Ev, symObjAddr: 0xBC, symBinAddr: 0x100000BF0, symSize: 0x2C }
  - { offsetInCU: 0x8261, offset: 0x8261, size: 0x8, addend: 0x0, symName: __ZN7KD_Tree5buildER7Dataset, symObjAddr: 0xE8, symBinAddr: 0x100000C1C, symSize: 0x14 }
  - { offsetInCU: 0x8295, offset: 0x8295, size: 0x8, addend: 0x0, symName: __ZN7KD_Tree7getRootEv, symObjAddr: 0xFC, symBinAddr: 0x100000C30, symSize: 0x14 }
  - { offsetInCU: 0x2B48, offset: 0xAE08, size: 0x8, addend: 0x0, symName: __ZNSt3__1plB7v160006IcNS_11char_traitsIcEENS_9allocatorIcEEEENS_12basic_stringIT_T0_T1_EEOS9_RKS9_, symObjAddr: 0x440, symBinAddr: 0x100001084, symSize: 0x40 }
  - { offsetInCU: 0x2BA0, offset: 0xAE60, size: 0x8, addend: 0x0, symName: __ZNSt3__119__debug_db_insert_cB7v160006INS_12basic_stringIcNS_11char_traitsIcEENS_9allocatorIcEEEEEEvPT_, symObjAddr: 0xA44, symBinAddr: 0x100001688, symSize: 0x10 }
  - { offsetInCU: 0x2BD1, offset: 0xAE91, size: 0x8, addend: 0x0, symName: __ZNSt3__118__constexpr_strlenB7v160006EPKc, symObjAddr: 0xC1C, symBinAddr: 0x100001860, symSize: 0x24 }
  - { offsetInCU: 0x2BFD, offset: 0xAEBD, size: 0x8, addend: 0x0, symName: __ZNSt3__112__to_addressB7v160006IKcEEPT_S3_, symObjAddr: 0xD3C, symBinAddr: 0x100001980, symSize: 0x14 }
  - { offsetInCU: 0x2C65, offset: 0xAF25, size: 0x8, addend: 0x0, symName: __ZNSt3__115__debug_db_swapB7v160006INS_12basic_stringIcNS_11char_traitsIcEENS_9allocatorIcEEEEEEvPT_S8_, symObjAddr: 0xF54, symBinAddr: 0x100001B98, symSize: 0x14 }
  - { offsetInCU: 0x2CA4, offset: 0xAF64, size: 0x8, addend: 0x0, symName: __ZNSt3__119__libcpp_deallocateB7v160006EPvmm, symObjAddr: 0x1210, symBinAddr: 0x100001E54, symSize: 0x30 }
  - { offsetInCU: 0x2CEC, offset: 0xAFAC, size: 0x8, addend: 0x0, symName: __ZNSt3__127__do_deallocate_handle_sizeB7v160006IJEEEvPvmDpT_, symObjAddr: 0x1240, symBinAddr: 0x100001E84, symSize: 0x28 }
  - { offsetInCU: 0x2D2A, offset: 0xAFEA, size: 0x8, addend: 0x0, symName: __ZNSt3__124__libcpp_operator_deleteB7v160006IJPvEEEvDpT_, symObjAddr: 0x1268, symBinAddr: 0x100001EAC, symSize: 0x24 }
  - { offsetInCU: 0x2EAC, offset: 0xB16C, size: 0x8, addend: 0x0, symName: __Z3powB7v160006IiiENSt3__19enable_ifIXaasr3std13is_arithmeticIT_EE5valuesr3std13is_arithmeticIT0_EE5valueENS0_9__promoteIS2_S3_vEEE4type4typeES2_S3_, symObjAddr: 0x3C8, symBinAddr: 0x10000100C, symSize: 0x44 }
  - { offsetInCU: 0x4E12, offset: 0xD0D2, size: 0x8, addend: 0x0, symName: __ZN6SectorC2Eiii, symObjAddr: 0x0, symBinAddr: 0x100000C44, symSize: 0x39C }
  - { offsetInCU: 0x4EA7, offset: 0xD167, size: 0x8, addend: 0x0, symName: __ZNSt3__112basic_stringIcNS_11char_traitsIcEENS_9allocatorIcEEEC1B7v160006Ev, symObjAddr: 0x39C, symBinAddr: 0x100000FE0, symSize: 0x2C }
  - { offsetInCU: 0x4ED4, offset: 0xD194, size: 0x8, addend: 0x0, symName: __ZNSt3__112basic_stringIcNS_11char_traitsIcEENS_9allocatorIcEEEC1B7v160006IDnEEPKc, symObjAddr: 0x40C, symBinAddr: 0x100001050, symSize: 0x34 }
  - { offsetInCU: 0x4F10, offset: 0xD1D0, size: 0x8, addend: 0x0, symName: __ZNSt3__112basic_stringIcNS_11char_traitsIcEENS_9allocatorIcEEEaSB7v160006EOS5_, symObjAddr: 0x480, symBinAddr: 0x1000010C4, symSize: 0x34 }
  - { offsetInCU: 0x4F43, offset: 0xD203, size: 0x8, addend: 0x0, symName: __ZN6SectorC1Eiii, symObjAddr: 0x4B4, symBinAddr: 0x1000010F8, symSize: 0x44 }
  - { offsetInCU: 0x4F97, offset: 0xD257, size: 0x8, addend: 0x0, symName: __ZN6SectorD2Ev, symObjAddr: 0x4F8, symBinAddr: 0x10000113C, symSize: 0x30 }
  - { offsetInCU: 0x4FC1, offset: 0xD281, size: 0x8, addend: 0x0, symName: __ZN6SectorD1Ev, symObjAddr: 0x528, symBinAddr: 0x10000116C, symSize: 0x2C }
  - { offsetInCU: 0x4FEB, offset: 0xD2AB, size: 0x8, addend: 0x0, symName: __ZN6SectoraSERKS_, symObjAddr: 0x554, symBinAddr: 0x100001198, symSize: 0xC0 }
  - { offsetInCU: 0x501F, offset: 0xD2DF, size: 0x8, addend: 0x0, symName: __ZNK6SectoreqERKS_, symObjAddr: 0x614, symBinAddr: 0x100001258, symSize: 0x90 }
  - { offsetInCU: 0x5053, offset: 0xD313, size: 0x8, addend: 0x0, symName: __ZNK6SectorneERKS_, symObjAddr: 0x6A4, symBinAddr: 0x1000012E8, symSize: 0x34 }
  - { offsetInCU: 0x5087, offset: 0xD347, size: 0x8, addend: 0x0, symName: __ZNK6SectorltERKS_, symObjAddr: 0x6D8, symBinAddr: 0x10000131C, symSize: 0x10C }
  - { offsetInCU: 0x50BB, offset: 0xD37B, size: 0x8, addend: 0x0, symName: __ZNK6SectorgtERKS_, symObjAddr: 0x7E4, symBinAddr: 0x100001428, symSize: 0x10C }
  - { offsetInCU: 0x50EF, offset: 0xD3AF, size: 0x8, addend: 0x0, symName: __ZNK6SectorleERKS_, symObjAddr: 0x8F0, symBinAddr: 0x100001534, symSize: 0x5C }
  - { offsetInCU: 0x5123, offset: 0xD3E3, size: 0x8, addend: 0x0, symName: __ZNK6SectorgeERKS_, symObjAddr: 0x94C, symBinAddr: 0x100001590, symSize: 0x5C }
  - { offsetInCU: 0x5157, offset: 0xD417, size: 0x8, addend: 0x0, symName: __ZNSt3__112basic_stringIcNS_11char_traitsIcEENS_9allocatorIcEEEC2B7v160006Ev, symObjAddr: 0x9A8, symBinAddr: 0x1000015EC, symSize: 0x54 }
  - { offsetInCU: 0x5184, offset: 0xD444, size: 0x8, addend: 0x0, symName: __ZNSt3__117__compressed_pairINS_12basic_stringIcNS_11char_traitsIcEENS_9allocatorIcEEE5__repES5_EC1B7v160006INS_18__default_init_tagESA_EEOT_OT0_, symObjAddr: 0x9FC, symBinAddr: 0x100001640, symSize: 0x3C }
  - { offsetInCU: 0x51DA, offset: 0xD49A, size: 0x8, addend: 0x0, symName: __ZNSt3__112basic_stringIcNS_11char_traitsIcEENS_9allocatorIcEEE14__default_initB7v160006Ev, symObjAddr: 0xA54, symBinAddr: 0x100001698, symSize: 0x40 }
  - { offsetInCU: 0x51FE, offset: 0xD4BE, size: 0x8, addend: 0x0, symName: __ZNSt3__117__compressed_pairINS_12basic_stringIcNS_11char_traitsIcEENS_9allocatorIcEEE5__repES5_EC2B7v160006INS_18__default_init_tagESA_EEOT_OT0_, symObjAddr: 0xA94, symBinAddr: 0x1000016D8, symSize: 0x3C }
  - { offsetInCU: 0x5254, offset: 0xD514, size: 0x8, addend: 0x0, symName: __ZNSt3__122__compressed_pair_elemINS_12basic_stringIcNS_11char_traitsIcEENS_9allocatorIcEEE5__repELi0ELb0EEC2B7v160006ENS_18__default_init_tagE, symObjAddr: 0xAD0, symBinAddr: 0x100001714, symSize: 0x14 }
  - { offsetInCU: 0x5286, offset: 0xD546, size: 0x8, addend: 0x0, symName: __ZNSt3__122__compressed_pair_elemINS_9allocatorIcEELi1ELb1EEC2B7v160006ENS_18__default_init_tagE, symObjAddr: 0xAE4, symBinAddr: 0x100001728, symSize: 0x2C }
  - { offsetInCU: 0x52B8, offset: 0xD578, size: 0x8, addend: 0x0, symName: __ZNSt3__19allocatorIcEC2B7v160006Ev, symObjAddr: 0xB10, symBinAddr: 0x100001754, symSize: 0x2C }
  - { offsetInCU: 0x52E0, offset: 0xD5A0, size: 0x8, addend: 0x0, symName: __ZNSt3__116__non_trivial_ifILb1ENS_9allocatorIcEEEC2B7v160006Ev, symObjAddr: 0xB3C, symBinAddr: 0x100001780, symSize: 0x14 }
  - { offsetInCU: 0x5308, offset: 0xD5C8, size: 0x8, addend: 0x0, symName: __ZNSt3__117__compressed_pairINS_12basic_stringIcNS_11char_traitsIcEENS_9allocatorIcEEE5__repES5_E5firstB7v160006Ev, symObjAddr: 0xB50, symBinAddr: 0x100001794, symSize: 0x24 }
  - { offsetInCU: 0x532C, offset: 0xD5EC, size: 0x8, addend: 0x0, symName: __ZNSt3__122__compressed_pair_elemINS_12basic_stringIcNS_11char_traitsIcEENS_9allocatorIcEEE5__repELi0ELb0EE5__getB7v160006Ev, symObjAddr: 0xB74, symBinAddr: 0x1000017B8, symSize: 0x14 }
  - { offsetInCU: 0x5350, offset: 0xD610, size: 0x8, addend: 0x0, symName: __ZNSt3__112basic_stringIcNS_11char_traitsIcEENS_9allocatorIcEEEC2B7v160006IDnEEPKc, symObjAddr: 0xB88, symBinAddr: 0x1000017CC, symSize: 0x60 }
  - { offsetInCU: 0x538C, offset: 0xD64C, size: 0x8, addend: 0x0, symName: __ZNSt3__111char_traitsIcE6lengthEPKc, symObjAddr: 0xBE8, symBinAddr: 0x10000182C, symSize: 0x34 }
  - { offsetInCU: 0x53AE, offset: 0xD66E, size: 0x8, addend: 0x0, symName: __ZNSt3__112basic_stringIcNS_11char_traitsIcEENS_9allocatorIcEEE6appendB7v160006ERKS5_, symObjAddr: 0xC40, symBinAddr: 0x100001884, symSize: 0x4C }
  - { offsetInCU: 0x53E1, offset: 0xD6A1, size: 0x8, addend: 0x0, symName: __ZNSt3__112basic_stringIcNS_11char_traitsIcEENS_9allocatorIcEEEC1B7v160006EOS5_, symObjAddr: 0xC8C, symBinAddr: 0x1000018D0, symSize: 0x34 }
  - { offsetInCU: 0x5418, offset: 0xD6D8, size: 0x8, addend: 0x0, symName: __ZNKSt3__112basic_stringIcNS_11char_traitsIcEENS_9allocatorIcEEE4dataB7v160006Ev, symObjAddr: 0xCC0, symBinAddr: 0x100001904, symSize: 0x28 }
  - { offsetInCU: 0x543C, offset: 0xD6FC, size: 0x8, addend: 0x0, symName: __ZNKSt3__112basic_stringIcNS_11char_traitsIcEENS_9allocatorIcEEE4sizeB7v160006Ev, symObjAddr: 0xCE8, symBinAddr: 0x10000192C, symSize: 0x54 }
  - { offsetInCU: 0x5460, offset: 0xD720, size: 0x8, addend: 0x0, symName: __ZNKSt3__112basic_stringIcNS_11char_traitsIcEENS_9allocatorIcEEE13__get_pointerB7v160006Ev, symObjAddr: 0xD50, symBinAddr: 0x100001994, symSize: 0x54 }
  - { offsetInCU: 0x5484, offset: 0xD744, size: 0x8, addend: 0x0, symName: __ZNKSt3__112basic_stringIcNS_11char_traitsIcEENS_9allocatorIcEEE9__is_longB7v160006Ev, symObjAddr: 0xDA4, symBinAddr: 0x1000019E8, symSize: 0x38 }
  - { offsetInCU: 0x54A8, offset: 0xD768, size: 0x8, addend: 0x0, symName: __ZNKSt3__112basic_stringIcNS_11char_traitsIcEENS_9allocatorIcEEE18__get_long_pointerB7v160006Ev, symObjAddr: 0xDDC, symBinAddr: 0x100001A20, symSize: 0x28 }
  - { offsetInCU: 0x54CC, offset: 0xD78C, size: 0x8, addend: 0x0, symName: __ZNKSt3__112basic_stringIcNS_11char_traitsIcEENS_9allocatorIcEEE19__get_short_pointerB7v160006Ev, symObjAddr: 0xE04, symBinAddr: 0x100001A48, symSize: 0x28 }
  - { offsetInCU: 0x54F0, offset: 0xD7B0, size: 0x8, addend: 0x0, symName: __ZNKSt3__117__compressed_pairINS_12basic_stringIcNS_11char_traitsIcEENS_9allocatorIcEEE5__repES5_E5firstB7v160006Ev, symObjAddr: 0xE2C, symBinAddr: 0x100001A70, symSize: 0x24 }
  - { offsetInCU: 0x5514, offset: 0xD7D4, size: 0x8, addend: 0x0, symName: __ZNKSt3__122__compressed_pair_elemINS_12basic_stringIcNS_11char_traitsIcEENS_9allocatorIcEEE5__repELi0ELb0EE5__getB7v160006Ev, symObjAddr: 0xE50, symBinAddr: 0x100001A94, symSize: 0x14 }
  - { offsetInCU: 0x5538, offset: 0xD7F8, size: 0x8, addend: 0x0, symName: __ZNSt3__114pointer_traitsIPKcE10pointer_toB7v160006ERS1_, symObjAddr: 0xE64, symBinAddr: 0x100001AA8, symSize: 0x14 }
  - { offsetInCU: 0x555A, offset: 0xD81A, size: 0x8, addend: 0x0, symName: __ZNKSt3__112basic_stringIcNS_11char_traitsIcEENS_9allocatorIcEEE15__get_long_sizeB7v160006Ev, symObjAddr: 0xE78, symBinAddr: 0x100001ABC, symSize: 0x28 }
  - { offsetInCU: 0x557E, offset: 0xD83E, size: 0x8, addend: 0x0, symName: __ZNKSt3__112basic_stringIcNS_11char_traitsIcEENS_9allocatorIcEEE16__get_short_sizeB7v160006Ev, symObjAddr: 0xEA0, symBinAddr: 0x100001AE4, symSize: 0x34 }
  - { offsetInCU: 0x55A2, offset: 0xD862, size: 0x8, addend: 0x0, symName: __ZNSt3__112basic_stringIcNS_11char_traitsIcEENS_9allocatorIcEEEC2B7v160006EOS5_, symObjAddr: 0xED4, symBinAddr: 0x100001B18, symSize: 0x80 }
  - { offsetInCU: 0x55D9, offset: 0xD899, size: 0x8, addend: 0x0, symName: __ZNSt3__112basic_stringIcNS_11char_traitsIcEENS_9allocatorIcEEE13__move_assignB7v160006ERS5_NS_17integral_constantIbLb1EEE, symObjAddr: 0xF68, symBinAddr: 0x100001BAC, symSize: 0xC8 }
  - { offsetInCU: 0x5619, offset: 0xD8D9, size: 0x8, addend: 0x0, symName: __ZNSt3__116allocator_traitsINS_9allocatorIcEEE10deallocateB7v160006ERS2_Pcm, symObjAddr: 0x1030, symBinAddr: 0x100001C74, symSize: 0x34 }
  - { offsetInCU: 0x565A, offset: 0xD91A, size: 0x8, addend: 0x0, symName: __ZNSt3__112basic_stringIcNS_11char_traitsIcEENS_9allocatorIcEEE7__allocB7v160006Ev, symObjAddr: 0x1064, symBinAddr: 0x100001CA8, symSize: 0x24 }
  - { offsetInCU: 0x567E, offset: 0xD93E, size: 0x8, addend: 0x0, symName: __ZNSt3__112basic_stringIcNS_11char_traitsIcEENS_9allocatorIcEEE18__get_long_pointerB7v160006Ev, symObjAddr: 0x1088, symBinAddr: 0x100001CCC, symSize: 0x28 }
  - { offsetInCU: 0x56A2, offset: 0xD962, size: 0x8, addend: 0x0, symName: __ZNKSt3__112basic_stringIcNS_11char_traitsIcEENS_9allocatorIcEEE14__get_long_capB7v160006Ev, symObjAddr: 0x10B0, symBinAddr: 0x100001CF4, symSize: 0x30 }
  - { offsetInCU: 0x56C6, offset: 0xD986, size: 0x8, addend: 0x0, symName: __ZNSt3__112basic_stringIcNS_11char_traitsIcEENS_9allocatorIcEEE19__move_assign_allocB7v160006ERS5_, symObjAddr: 0x10E0, symBinAddr: 0x100001D24, symSize: 0x2C }
  - { offsetInCU: 0x56F9, offset: 0xD9B9, size: 0x8, addend: 0x0, symName: __ZNSt3__112basic_stringIcNS_11char_traitsIcEENS_9allocatorIcEEE16__set_short_sizeB7v160006Em, symObjAddr: 0x110C, symBinAddr: 0x100001D50, symSize: 0x78 }
  - { offsetInCU: 0x572C, offset: 0xD9EC, size: 0x8, addend: 0x0, symName: __ZNSt3__111char_traitsIcE6assignERcRKc, symObjAddr: 0x1184, symBinAddr: 0x100001DC8, symSize: 0x24 }
  - { offsetInCU: 0x575C, offset: 0xDA1C, size: 0x8, addend: 0x0, symName: __ZNSt3__112basic_stringIcNS_11char_traitsIcEENS_9allocatorIcEEE19__get_short_pointerB7v160006Ev, symObjAddr: 0x11A8, symBinAddr: 0x100001DEC, symSize: 0x28 }
  - { offsetInCU: 0x5780, offset: 0xDA40, size: 0x8, addend: 0x0, symName: __ZNSt3__19allocatorIcE10deallocateB7v160006EPcm, symObjAddr: 0x11D0, symBinAddr: 0x100001E14, symSize: 0x40 }
  - { offsetInCU: 0x57C0, offset: 0xDA80, size: 0x8, addend: 0x0, symName: __ZNSt3__117__compressed_pairINS_12basic_stringIcNS_11char_traitsIcEENS_9allocatorIcEEE5__repES5_E6secondB7v160006Ev, symObjAddr: 0x128C, symBinAddr: 0x100001ED0, symSize: 0x24 }
  - { offsetInCU: 0x57E4, offset: 0xDAA4, size: 0x8, addend: 0x0, symName: __ZNSt3__122__compressed_pair_elemINS_9allocatorIcEELi1ELb1EE5__getB7v160006Ev, symObjAddr: 0x12B0, symBinAddr: 0x100001EF4, symSize: 0x14 }
  - { offsetInCU: 0x5808, offset: 0xDAC8, size: 0x8, addend: 0x0, symName: __ZNSt3__112basic_stringIcNS_11char_traitsIcEENS_9allocatorIcEEE19__move_assign_allocB7v160006ERS5_NS_17integral_constantIbLb1EEE, symObjAddr: 0x12C4, symBinAddr: 0x100001F08, symSize: 0x38 }
  - { offsetInCU: 0x5846, offset: 0xDB06, size: 0x8, addend: 0x0, symName: __ZNSt3__114pointer_traitsIPcE10pointer_toB7v160006ERc, symObjAddr: 0x12FC, symBinAddr: 0x100001F40, symSize: 0x14 }
  - { offsetInCU: 0x3936, offset: 0x11486, size: 0x8, addend: 0x0, symName: __ZNSt3__124__put_character_sequenceB7v160006IcNS_11char_traitsIcEEEERNS_13basic_ostreamIT_T0_EES7_PKS4_m, symObjAddr: 0x2988, symBinAddr: 0x1000044F0, symSize: 0x1EC }
  - { offsetInCU: 0x8770, offset: 0x162C0, size: 0x8, addend: 0x0, symName: __ZNSt3__1lsB7v160006IcNS_11char_traitsIcEENS_9allocatorIcEEEERNS_13basic_ostreamIT_T0_EES9_RKNS_12basic_stringIS6_S7_T1_EE, symObjAddr: 0x64C, symBinAddr: 0x1000025A0, symSize: 0x4C }
  - { offsetInCU: 0x87C8, offset: 0x16318, size: 0x8, addend: 0x0, symName: __ZNSt3__1lsB7v160006INS_11char_traitsIcEEEERNS_13basic_ostreamIcT_EES6_PKc, symObjAddr: 0x698, symBinAddr: 0x1000025EC, symSize: 0x48 }
  - { offsetInCU: 0x880E, offset: 0x1635E, size: 0x8, addend: 0x0, symName: __ZNSt3__14endlB7v160006IcNS_11char_traitsIcEEEERNS_13basic_ostreamIT_T0_EES7_, symObjAddr: 0x70C, symBinAddr: 0x100002660, symSize: 0x58 }
  - { offsetInCU: 0x884E, offset: 0x1639E, size: 0x8, addend: 0x0, symName: __ZNSt3__17getlineB7v160006IcNS_11char_traitsIcEENS_9allocatorIcEEEERNS_13basic_istreamIT_T0_EES9_RNS_12basic_stringIS6_S7_T1_EE, symObjAddr: 0x790, symBinAddr: 0x1000026B8, symSize: 0x5C }
  - { offsetInCU: 0x8CA0, offset: 0x167F0, size: 0x8, addend: 0x0, symName: __ZNSt3__17getlineB7v160006IcNS_11char_traitsIcEENS_9allocatorIcEEEERNS_13basic_istreamIT_T0_EES9_RNS_12basic_stringIS6_S7_T1_EES6_, symObjAddr: 0x928, symBinAddr: 0x100002850, symSize: 0x238 }
  - { offsetInCU: 0x8F41, offset: 0x16A91, size: 0x8, addend: 0x0, symName: __ZNSt3__1eqB7v160006INS_9allocatorIcEEEEbRKNS_12basic_stringIcNS_11char_traitsIcEET_EES9_, symObjAddr: 0x13F0, symBinAddr: 0x100003318, symSize: 0x148 }
  - { offsetInCU: 0x8FB7, offset: 0x16B07, size: 0x8, addend: 0x0, symName: __ZNSt3__1neB7v160006ERKNS_16__deque_iteratorIP6SectorPS2_RS2_PS3_lLl512EEES8_, symObjAddr: 0x1CC8, symBinAddr: 0x100003BF0, symSize: 0x34 }
  - { offsetInCU: 0x8FF4, offset: 0x16B44, size: 0x8, addend: 0x0, symName: __ZNSt3__1eqB7v160006ERKNS_16__deque_iteratorIP6SectorPS2_RS2_PS3_lLl512EEES8_, symObjAddr: 0x1F68, symBinAddr: 0x100003E84, symSize: 0x30 }
  - { offsetInCU: 0x9032, offset: 0x16B82, size: 0x8, addend: 0x0, symName: __ZNSt3__112__to_addressB7v160006IPP6SectorEEPT_S5_, symObjAddr: 0x234C, symBinAddr: 0x1000041EC, symSize: 0x14 }
  - { offsetInCU: 0x9067, offset: 0x16BB7, size: 0x8, addend: 0x0, symName: __ZNSt3__116__pad_and_outputB7v160006IcNS_11char_traitsIcEEEENS_19ostreambuf_iteratorIT_T0_EES6_PKS4_S8_S8_RNS_8ios_baseES4_, symObjAddr: 0x2BC4, symBinAddr: 0x1000046F8, symSize: 0x240 }
  - { offsetInCU: 0x913A, offset: 0x16C8A, size: 0x8, addend: 0x0, symName: __ZNSt3__19use_facetB7v160006INS_5ctypeIcEEEERKT_RKNS_6localeE, symObjAddr: 0x3124, symBinAddr: 0x100004C58, symSize: 0x2C }
  - { offsetInCU: 0x9613, offset: 0x17163, size: 0x8, addend: 0x0, symName: __ZNSt3__125__debug_db_invalidate_allB7v160006INS_12basic_stringIcNS_11char_traitsIcEENS_9allocatorIcEEEEEEvPT_, symObjAddr: 0x38A4, symBinAddr: 0x100005304, symSize: 0x10 }
  - { offsetInCU: 0x9850, offset: 0x173A0, size: 0x8, addend: 0x0, symName: __ZNSt3__13maxB7v160006ImEERKT_S3_S3_, symObjAddr: 0x49DC, symBinAddr: 0x10000633C, symSize: 0x2C }
  - { offsetInCU: 0x9C39, offset: 0x17789, size: 0x8, addend: 0x0, symName: __ZNSt3__14swapB7v160006IPPP6SectorEENS_9enable_ifIXaasr21is_move_constructibleIT_EE5valuesr18is_move_assignableIS6_EE5valueEvE4typeERS6_S9_, symObjAddr: 0x4FEC, symBinAddr: 0x10000694C, symSize: 0x3C }
  - { offsetInCU: 0x9C8A, offset: 0x177DA, size: 0x8, addend: 0x0, symName: __ZNSt3__14moveB7v160006IPPP6SectorS4_EET0_T_S6_S5_, symObjAddr: 0x50D0, symBinAddr: 0x100006A30, symSize: 0x40 }
  - { offsetInCU: 0x9D02, offset: 0x17852, size: 0x8, addend: 0x0, symName: __ZNSt3__16__moveB7v160006INS_17_ClassicAlgPolicyEPPP6SectorS5_S5_EENS_4pairIT0_T2_EES7_T1_S8_, symObjAddr: 0x5274, symBinAddr: 0x100006BD4, symSize: 0x44 }
  - { offsetInCU: 0x9D6E, offset: 0x178BE, size: 0x8, addend: 0x0, symName: __ZNSt3__123__dispatch_copy_or_moveB7v160006INS_17_ClassicAlgPolicyENS_11__move_loopIS1_EENS_14__move_trivialEPPP6SectorS8_S8_EENS_4pairIT2_T4_EESA_T3_SB_, symObjAddr: 0x52B8, symBinAddr: 0x100006C18, symSize: 0x44 }
  - { offsetInCU: 0x9DEC, offset: 0x1793C, size: 0x8, addend: 0x0, symName: __ZNSt3__121__unwrap_and_dispatchB7v160006INS_10__overloadINS_11__move_loopINS_17_ClassicAlgPolicyEEENS_14__move_trivialEEEPPP6SectorSA_SA_Li0EEENS_4pairIT0_T2_EESC_T1_SD_, symObjAddr: 0x52FC, symBinAddr: 0x100006C5C, symSize: 0xB4 }
  - { offsetInCU: 0x9E7B, offset: 0x179CB, size: 0x8, addend: 0x0, symName: __ZNSt3__114__unwrap_rangeB7v160006IPPP6SectorS4_EENS_4pairIT0_S6_EET_S8_, symObjAddr: 0x53B0, symBinAddr: 0x100006D10, symSize: 0x60 }
  - { offsetInCU: 0xA043, offset: 0x17B93, size: 0x8, addend: 0x0, symName: __ZNSt3__113__unwrap_iterB7v160006IPPP6SectorNS_18__unwrap_iter_implIS4_Lb1EEELi0EEEDTclsrT0_8__unwrapclsr3stdE7declvalIT_EEEES8_, symObjAddr: 0x5458, symBinAddr: 0x100006DB8, symSize: 0x24 }
  - { offsetInCU: 0xA088, offset: 0x17BD8, size: 0x8, addend: 0x0, symName: __ZNSt3__19make_pairB7v160006IPPP6SectorS4_EENS_4pairINS_18__unwrap_ref_decayIT_E4typeENS6_IT0_E4typeEEEOS7_OSA_, symObjAddr: 0x547C, symBinAddr: 0x100006DDC, symSize: 0x38 }
  - { offsetInCU: 0xA0D7, offset: 0x17C27, size: 0x8, addend: 0x0, symName: __ZNSt3__114__rewrap_rangeB7v160006IPPP6SectorS4_EET_S5_T0_, symObjAddr: 0x54B4, symBinAddr: 0x100006E14, symSize: 0x2C }
  - { offsetInCU: 0xA123, offset: 0x17C73, size: 0x8, addend: 0x0, symName: __ZNSt3__113__rewrap_iterB7v160006IPPP6SectorS4_NS_18__unwrap_iter_implIS4_Lb1EEEEET_S7_T0_, symObjAddr: 0x54E0, symBinAddr: 0x100006E40, symSize: 0x3C }
  - { offsetInCU: 0xA178, offset: 0x17CC8, size: 0x8, addend: 0x0, symName: __ZNSt3__119__copy_trivial_implB7v160006IPP6SectorS3_EENS_4pairIPT_PT0_EES6_S6_S8_, symObjAddr: 0x551C, symBinAddr: 0x100006E7C, symSize: 0x84 }
  - { offsetInCU: 0xA1E0, offset: 0x17D30, size: 0x8, addend: 0x0, symName: __ZNSt3__19make_pairB7v160006IRPPP6SectorS4_EENS_4pairINS_18__unwrap_ref_decayIT_E4typeENS7_IT0_E4typeEEEOS8_OSB_, symObjAddr: 0x55A0, symBinAddr: 0x100006F00, symSize: 0x38 }
  - { offsetInCU: 0xA282, offset: 0x17DD2, size: 0x8, addend: 0x0, symName: __ZNSt3__18distanceB7v160006INS_13move_iteratorIPPP6SectorEEEENS_15iterator_traitsIT_E15difference_typeES8_S8_, symObjAddr: 0x572C, symBinAddr: 0x10000708C, symSize: 0x3C }
  - { offsetInCU: 0xA2C5, offset: 0x17E15, size: 0x8, addend: 0x0, symName: __ZNSt3__110__distanceB7v160006INS_13move_iteratorIPPP6SectorEEEENS_15iterator_traitsIT_E15difference_typeES8_S8_NS_26random_access_iterator_tagE, symObjAddr: 0x5864, symBinAddr: 0x1000071C4, symSize: 0x30 }
  - { offsetInCU: 0xA312, offset: 0x17E62, size: 0x8, addend: 0x0, symName: __ZNSt3__1miB7v160006IPPP6SectorS4_EEDTmicldtfp_4baseEcldtfp0_4baseEERKNS_13move_iteratorIT_EERKNS6_IT0_EE, symObjAddr: 0x5894, symBinAddr: 0x1000071F4, symSize: 0x48 }
  - { offsetInCU: 0xA361, offset: 0x17EB1, size: 0x8, addend: 0x0, symName: __ZNSt3__117__libcpp_allocateB7v160006Emm, symObjAddr: 0x5AB8, symBinAddr: 0x100007418, symSize: 0x28 }
  - { offsetInCU: 0xA39E, offset: 0x17EEE, size: 0x8, addend: 0x0, symName: __ZNSt3__121__libcpp_operator_newB7v160006IJmEEEPvDpT_, symObjAddr: 0x5AF4, symBinAddr: 0x100007454, symSize: 0x24 }
  - { offsetInCU: 0xA3D7, offset: 0x17F27, size: 0x8, addend: 0x0, symName: __ZNSt3__113move_backwardB7v160006IPPP6SectorS4_EET0_T_S6_S5_, symObjAddr: 0x5B18, symBinAddr: 0x100007478, symSize: 0x40 }
  - { offsetInCU: 0xA431, offset: 0x17F81, size: 0x8, addend: 0x0, symName: __ZNSt3__115__move_backwardB7v160006INS_17_ClassicAlgPolicyEPPP6SectorS5_S5_EENS_4pairIT0_T2_EES7_T1_S8_, symObjAddr: 0x5B58, symBinAddr: 0x1000074B8, symSize: 0x44 }
  - { offsetInCU: 0xA49D, offset: 0x17FED, size: 0x8, addend: 0x0, symName: __ZNSt3__123__dispatch_copy_or_moveB7v160006INS_17_ClassicAlgPolicyENS_20__move_backward_loopIS1_EENS_23__move_backward_trivialEPPP6SectorS8_S8_EENS_4pairIT2_T4_EESA_T3_SB_, symObjAddr: 0x5B9C, symBinAddr: 0x1000074FC, symSize: 0x44 }
  - { offsetInCU: 0xA51B, offset: 0x1806B, size: 0x8, addend: 0x0, symName: __ZNSt3__121__unwrap_and_dispatchB7v160006INS_10__overloadINS_20__move_backward_loopINS_17_ClassicAlgPolicyEEENS_23__move_backward_trivialEEEPPP6SectorSA_SA_Li0EEENS_4pairIT0_T2_EESC_T1_SD_, symObjAddr: 0x5BE0, symBinAddr: 0x100007540, symSize: 0xB4 }
  - { offsetInCU: 0xA5F1, offset: 0x18141, size: 0x8, addend: 0x0, symName: __ZNSt3__128__copy_backward_trivial_implB7v160006IPP6SectorS3_EENS_4pairIPT_PT0_EES6_S6_S8_, symObjAddr: 0x5CDC, symBinAddr: 0x10000763C, symSize: 0x94 }
  - { offsetInCU: 0xA659, offset: 0x181A9, size: 0x8, addend: 0x0, symName: __ZNSt3__19make_pairB7v160006IRPPP6SectorS5_EENS_4pairINS_18__unwrap_ref_decayIT_E4typeENS7_IT0_E4typeEEEOS8_OSB_, symObjAddr: 0x5D70, symBinAddr: 0x1000076D0, symSize: 0x38 }
  - { offsetInCU: 0xA6A8, offset: 0x181F8, size: 0x8, addend: 0x0, symName: __ZNSt3__13maxB7v160006ImNS_6__lessImmEEEERKT_S5_S5_T0_, symObjAddr: 0x5E18, symBinAddr: 0x100007778, symSize: 0x54 }
  - { offsetInCU: 0xA73D, offset: 0x1828D, size: 0x8, addend: 0x0, symName: __ZNSt3__119__allocate_at_leastB7v160006INS_9allocatorIPP6SectorEEEENS_19__allocation_resultINS_16allocator_traitsIT_E7pointerEEERS8_m, symObjAddr: 0x5FB0, symBinAddr: 0x100007910, symSize: 0x40 }
  - { offsetInCU: 0xA780, offset: 0x182D0, size: 0x8, addend: 0x0, symName: __ZNSt3__112__to_addressB7v160006IP6SectorEEPT_S4_, symObjAddr: 0x6770, symBinAddr: 0x1000080D0, symSize: 0x14 }
  - { offsetInCU: 0xA7B5, offset: 0x18305, size: 0x8, addend: 0x0, symName: __ZNSt3__118__constexpr_memcmpB7v160006IcEEiPKT_S3_m, symObjAddr: 0x6930, symBinAddr: 0x100008290, symSize: 0x34 }
  - { offsetInCU: 0xA806, offset: 0x18356, size: 0x8, addend: 0x0, symName: __ZNSt3__119__debug_db_insert_cB7v160006INS_6vectorIP6SectorNS_9allocatorIS3_EEEEEEvPT_, symObjAddr: 0x69F8, symBinAddr: 0x100008358, symSize: 0x10 }
  - { offsetInCU: 0xA837, offset: 0x18387, size: 0x8, addend: 0x0, symName: __ZNSt3__118__debug_db_erase_cB7v160006INS_6vectorIP6SectorNS_9allocatorIS3_EEEEEEvPT_, symObjAddr: 0x6C50, symBinAddr: 0x1000085B0, symSize: 0x10 }
  - { offsetInCU: 0xAA26, offset: 0x18576, size: 0x8, addend: 0x0, symName: __ZSt28__throw_bad_array_new_lengthB7v160006v, symObjAddr: 0x5A84, symBinAddr: 0x1000073E4, symSize: 0x34 }
  - { offsetInCU: 0xD07C, offset: 0x1ABCC, size: 0x8, addend: 0x0, symName: __ZN14SpaceSectorBSTC2Ev, symObjAddr: 0x0, symBinAddr: 0x100001F54, symSize: 0x18 }
  - { offsetInCU: 0xD0A6, offset: 0x1ABF6, size: 0x8, addend: 0x0, symName: __ZN14SpaceSectorBSTC1Ev, symObjAddr: 0x18, symBinAddr: 0x100001F6C, symSize: 0x2C }
  - { offsetInCU: 0xD0D0, offset: 0x1AC20, size: 0x8, addend: 0x0, symName: __ZN14SpaceSectorBSTD2Ev, symObjAddr: 0x44, symBinAddr: 0x100001F98, symSize: 0x18C }
  - { offsetInCU: 0xD125, offset: 0x1AC75, size: 0x8, addend: 0x0, symName: __ZN14SpaceSectorBSTD1Ev, symObjAddr: 0x1D0, symBinAddr: 0x100002124, symSize: 0x2C }
  - { offsetInCU: 0xD14F, offset: 0x1AC9F, size: 0x8, addend: 0x0, symName: __ZN14SpaceSectorBST19readSectorsFromFileERKNSt3__112basic_stringIcNS0_11char_traitsIcEENS0_9allocatorIcEEEE, symObjAddr: 0x1FC, symBinAddr: 0x100002150, symSize: 0x2B8 }
  - { offsetInCU: 0xD301, offset: 0x1AE51, size: 0x8, addend: 0x0, symName: __ZNSt3__114basic_ifstreamIcNS_11char_traitsIcEEEC1ERKNS_12basic_stringIcS2_NS_9allocatorIcEEEEj, symObjAddr: 0x4B4, symBinAddr: 0x100002408, symSize: 0x16C }
  - { offsetInCU: 0xD34A, offset: 0x1AE9A, size: 0x8, addend: 0x0, symName: __ZNKSt3__114basic_ifstreamIcNS_11char_traitsIcEEE7is_openEv, symObjAddr: 0x620, symBinAddr: 0x100002574, symSize: 0x2C }
  - { offsetInCU: 0xD370, offset: 0x1AEC0, size: 0x8, addend: 0x0, symName: __ZNSt3__113basic_ostreamIcNS_11char_traitsIcEEElsB7v160006EPFRS3_S4_E, symObjAddr: 0x6E0, symBinAddr: 0x100002634, symSize: 0x2C }
  - { offsetInCU: 0xD3A2, offset: 0x1AEF2, size: 0x8, addend: 0x0, symName: __ZNKSt3__19basic_iosIcNS_11char_traitsIcEEEcvbB7v160006Ev, symObjAddr: 0x7EC, symBinAddr: 0x100002714, symSize: 0x2C }
  - { offsetInCU: 0xD425, offset: 0x1AF75, size: 0x8, addend: 0x0, symName: __ZNSt3__118basic_stringstreamIcNS_11char_traitsIcEENS_9allocatorIcEEEC1B7v160006ERKNS_12basic_stringIcS2_S4_EEj, symObjAddr: 0x818, symBinAddr: 0x100002740, symSize: 0x110 }
  - { offsetInCU: 0xD46B, offset: 0x1AFBB, size: 0x8, addend: 0x0, symName: __ZN14SpaceSectorBST25insertSectorByCoordinatesEiii, symObjAddr: 0xB60, symBinAddr: 0x100002A88, symSize: 0x160 }
  - { offsetInCU: 0xD4EA, offset: 0x1B03A, size: 0x8, addend: 0x0, symName: __ZNSt3__118basic_stringstreamIcNS_11char_traitsIcEENS_9allocatorIcEEED1Ev, symObjAddr: 0xCC0, symBinAddr: 0x100002BE8, symSize: 0x40 }
  - { offsetInCU: 0xD51B, offset: 0x1B06B, size: 0x8, addend: 0x0, symName: __ZNSt3__114basic_ifstreamIcNS_11char_traitsIcEEED1Ev, symObjAddr: 0xD00, symBinAddr: 0x100002C28, symSize: 0x40 }
  - { offsetInCU: 0xD547, offset: 0x1B097, size: 0x8, addend: 0x0, symName: __ZN14SpaceSectorBST12deleteSectorERKNSt3__112basic_stringIcNS0_11char_traitsIcEENS0_9allocatorIcEEEE, symObjAddr: 0xD40, symBinAddr: 0x100002C68, symSize: 0x5E8 }
  - { offsetInCU: 0xD64C, offset: 0x1B19C, size: 0x8, addend: 0x0, symName: __ZNSt3__15stackIP6SectorNS_5dequeIS2_NS_9allocatorIS2_EEEEEC1B7v160006Ev, symObjAddr: 0x1328, symBinAddr: 0x100003250, symSize: 0x2C }
  - { offsetInCU: 0xD674, offset: 0x1B1C4, size: 0x8, addend: 0x0, symName: __ZNSt3__15stackIP6SectorNS_5dequeIS2_NS_9allocatorIS2_EEEEE4pushB7v160006ERKS2_, symObjAddr: 0x1354, symBinAddr: 0x10000327C, symSize: 0x2C }
  - { offsetInCU: 0xD6A6, offset: 0x1B1F6, size: 0x8, addend: 0x0, symName: __ZNKSt3__15stackIP6SectorNS_5dequeIS2_NS_9allocatorIS2_EEEEE5emptyB7v160006Ev, symObjAddr: 0x1380, symBinAddr: 0x1000032A8, symSize: 0x28 }
  - { offsetInCU: 0xD6CA, offset: 0x1B21A, size: 0x8, addend: 0x0, symName: __ZNSt3__15stackIP6SectorNS_5dequeIS2_NS_9allocatorIS2_EEEEE3topB7v160006Ev, symObjAddr: 0x13A8, symBinAddr: 0x1000032D0, symSize: 0x24 }
  - { offsetInCU: 0xD6EE, offset: 0x1B23E, size: 0x8, addend: 0x0, symName: __ZNSt3__15stackIP6SectorNS_5dequeIS2_NS_9allocatorIS2_EEEEE3popB7v160006Ev, symObjAddr: 0x13CC, symBinAddr: 0x1000032F4, symSize: 0x24 }
  - { offsetInCU: 0xD712, offset: 0x1B262, size: 0x8, addend: 0x0, symName: __ZNSt3__15stackIP6SectorNS_5dequeIS2_NS_9allocatorIS2_EEEEED1Ev, symObjAddr: 0x1538, symBinAddr: 0x100003460, symSize: 0x2C }
  - { offsetInCU: 0xD73C, offset: 0x1B28C, size: 0x8, addend: 0x0, symName: __ZN14SpaceSectorBST21displaySectorsInOrderEv, symObjAddr: 0x1564, symBinAddr: 0x10000348C, symSize: 0x10 }
  - { offsetInCU: 0xD762, offset: 0x1B2B2, size: 0x8, addend: 0x0, symName: __ZN14SpaceSectorBST22displaySectorsPreOrderEv, symObjAddr: 0x1574, symBinAddr: 0x10000349C, symSize: 0x10 }
  - { offsetInCU: 0xD788, offset: 0x1B2D8, size: 0x8, addend: 0x0, symName: __ZN14SpaceSectorBST23displaySectorsPostOrderEv, symObjAddr: 0x1584, symBinAddr: 0x1000034AC, symSize: 0x10 }
  - { offsetInCU: 0xD7AE, offset: 0x1B2FE, size: 0x8, addend: 0x0, symName: __ZN14SpaceSectorBST14getStellarPathERKNSt3__112basic_stringIcNS0_11char_traitsIcEENS0_9allocatorIcEEEE, symObjAddr: 0x1594, symBinAddr: 0x1000034BC, symSize: 0x78 }
  - { offsetInCU: 0xD7F1, offset: 0x1B341, size: 0x8, addend: 0x0, symName: __ZNSt3__16vectorIP6SectorNS_9allocatorIS2_EEEC1B7v160006Ev, symObjAddr: 0x160C, symBinAddr: 0x100003534, symSize: 0x2C }
  - { offsetInCU: 0xD819, offset: 0x1B369, size: 0x8, addend: 0x0, symName: __ZNSt3__16vectorIP6SectorNS_9allocatorIS2_EEED1B7v160006Ev, symObjAddr: 0x1638, symBinAddr: 0x100003560, symSize: 0x2C }
  - { offsetInCU: 0xD841, offset: 0x1B391, size: 0x8, addend: 0x0, symName: __ZN14SpaceSectorBST16printStellarPathERKNSt3__16vectorIP6SectorNS0_9allocatorIS3_EEEE, symObjAddr: 0x1664, symBinAddr: 0x10000358C, symSize: 0x14 }
  - { offsetInCU: 0xD875, offset: 0x1B3C5, size: 0x8, addend: 0x0, symName: __ZNSt3__118basic_stringstreamIcNS_11char_traitsIcEENS_9allocatorIcEEED2Ev, symObjAddr: 0x1678, symBinAddr: 0x1000035A0, symSize: 0x6C }
  - { offsetInCU: 0xD8AD, offset: 0x1B3FD, size: 0x8, addend: 0x0, symName: __ZThn16_NSt3__118basic_stringstreamIcNS_11char_traitsIcEENS_9allocatorIcEEED1Ev, symObjAddr: 0x16E4, symBinAddr: 0x10000360C, symSize: 0x1C }
  - { offsetInCU: 0xD8C4, offset: 0x1B414, size: 0x8, addend: 0x0, symName: __ZTv0_n24_NSt3__118basic_stringstreamIcNS_11char_traitsIcEENS_9allocatorIcEEED1Ev, symObjAddr: 0x1700, symBinAddr: 0x100003628, symSize: 0x28 }
  - { offsetInCU: 0xD8E0, offset: 0x1B430, size: 0x8, addend: 0x0, symName: __ZNSt3__115basic_stringbufIcNS_11char_traitsIcEENS_9allocatorIcEEED1Ev, symObjAddr: 0x1728, symBinAddr: 0x100003650, symSize: 0x2C }
  - { offsetInCU: 0xD90C, offset: 0x1B45C, size: 0x8, addend: 0x0, symName: __ZNSt3__115basic_stringbufIcNS_11char_traitsIcEENS_9allocatorIcEEED2Ev, symObjAddr: 0x1754, symBinAddr: 0x10000367C, symSize: 0x48 }
  - { offsetInCU: 0xD938, offset: 0x1B488, size: 0x8, addend: 0x0, symName: __ZNSt3__114basic_ifstreamIcNS_11char_traitsIcEEED2Ev, symObjAddr: 0x179C, symBinAddr: 0x1000036C4, symSize: 0x64 }
  - { offsetInCU: 0xD970, offset: 0x1B4C0, size: 0x8, addend: 0x0, symName: __ZTv0_n24_NSt3__114basic_ifstreamIcNS_11char_traitsIcEEED1Ev, symObjAddr: 0x1800, symBinAddr: 0x100003728, symSize: 0x28 }
  - { offsetInCU: 0xD987, offset: 0x1B4D7, size: 0x8, addend: 0x0, symName: __ZNSt3__15stackIP6SectorNS_5dequeIS2_NS_9allocatorIS2_EEEEED2Ev, symObjAddr: 0x1828, symBinAddr: 0x100003750, symSize: 0x2C }
  - { offsetInCU: 0xD9B1, offset: 0x1B501, size: 0x8, addend: 0x0, symName: __ZNSt3__15dequeIP6SectorNS_9allocatorIS2_EEED1B7v160006Ev, symObjAddr: 0x1854, symBinAddr: 0x10000377C, symSize: 0x2C }
  - { offsetInCU: 0xD9D9, offset: 0x1B529, size: 0x8, addend: 0x0, symName: __ZNSt3__15dequeIP6SectorNS_9allocatorIS2_EEED2B7v160006Ev, symObjAddr: 0x1880, symBinAddr: 0x1000037A8, symSize: 0x9C }
  - { offsetInCU: 0xDA30, offset: 0x1B580, size: 0x8, addend: 0x0, symName: __ZNSt3__15dequeIP6SectorNS_9allocatorIS2_EEE5clearEv, symObjAddr: 0x191C, symBinAddr: 0x100003844, symSize: 0x180 }
  - { offsetInCU: 0xDA8C, offset: 0x1B5DC, size: 0x8, addend: 0x0, symName: __ZNSt3__114__split_bufferIPP6SectorNS_9allocatorIS3_EEE5beginB7v160006Ev, symObjAddr: 0x1A9C, symBinAddr: 0x1000039C4, symSize: 0x18 }
  - { offsetInCU: 0xDAB0, offset: 0x1B600, size: 0x8, addend: 0x0, symName: __ZNSt3__114__split_bufferIPP6SectorNS_9allocatorIS3_EEE3endB7v160006Ev, symObjAddr: 0x1AB4, symBinAddr: 0x1000039DC, symSize: 0x18 }
  - { offsetInCU: 0xDAD4, offset: 0x1B624, size: 0x8, addend: 0x0, symName: __ZNSt3__116allocator_traitsINS_9allocatorIP6SectorEEE10deallocateB7v160006ERS4_PS3_m, symObjAddr: 0x1ACC, symBinAddr: 0x1000039F4, symSize: 0x34 }
  - { offsetInCU: 0xDB15, offset: 0x1B665, size: 0x8, addend: 0x0, symName: __ZNSt3__15dequeIP6SectorNS_9allocatorIS2_EEE7__allocB7v160006Ev, symObjAddr: 0x1B00, symBinAddr: 0x100003A28, symSize: 0x28 }
  - { offsetInCU: 0xDB39, offset: 0x1B689, size: 0x8, addend: 0x0, symName: __ZNSt3__114__split_bufferIPP6SectorNS_9allocatorIS3_EEED1Ev, symObjAddr: 0x1B28, symBinAddr: 0x100003A50, symSize: 0x2C }
  - { offsetInCU: 0xDB64, offset: 0x1B6B4, size: 0x8, addend: 0x0, symName: __ZNSt3__15dequeIP6SectorNS_9allocatorIS2_EEE5beginB7v160006Ev, symObjAddr: 0x1B54, symBinAddr: 0x100003A7C, symSize: 0xB8 }
  - { offsetInCU: 0xDB98, offset: 0x1B6E8, size: 0x8, addend: 0x0, symName: __ZNSt3__15dequeIP6SectorNS_9allocatorIS2_EEE3endB7v160006Ev, symObjAddr: 0x1C0C, symBinAddr: 0x100003B34, symSize: 0xBC }
  - { offsetInCU: 0xDBDC, offset: 0x1B72C, size: 0x8, addend: 0x0, symName: __ZNSt3__116allocator_traitsINS_9allocatorIP6SectorEEE7destroyB7v160006IS3_vEEvRS4_PT_, symObjAddr: 0x1D08, symBinAddr: 0x100003C24, symSize: 0x2C }
  - { offsetInCU: 0xDC18, offset: 0x1B768, size: 0x8, addend: 0x0, symName: __ZNKSt3__116__deque_iteratorIP6SectorPS2_RS2_PS3_lLl512EEdeB7v160006Ev, symObjAddr: 0x1D34, symBinAddr: 0x100003C50, symSize: 0x18 }
  - { offsetInCU: 0xDC3C, offset: 0x1B78C, size: 0x8, addend: 0x0, symName: __ZNSt3__116__deque_iteratorIP6SectorPS2_RS2_PS3_lLl512EEppB7v160006Ev, symObjAddr: 0x1D4C, symBinAddr: 0x100003C68, symSize: 0x70 }
  - { offsetInCU: 0xDC60, offset: 0x1B7B0, size: 0x8, addend: 0x0, symName: __ZNSt3__15dequeIP6SectorNS_9allocatorIS2_EEE6__sizeB7v160006Ev, symObjAddr: 0x1DBC, symBinAddr: 0x100003CD8, symSize: 0x28 }
  - { offsetInCU: 0xDC84, offset: 0x1B7D4, size: 0x8, addend: 0x0, symName: __ZNKSt3__114__split_bufferIPP6SectorNS_9allocatorIS3_EEE4sizeB7v160006Ev, symObjAddr: 0x1DE4, symBinAddr: 0x100003D00, symSize: 0x28 }
  - { offsetInCU: 0xDCA8, offset: 0x1B7F8, size: 0x8, addend: 0x0, symName: __ZNSt3__114__split_bufferIPP6SectorNS_9allocatorIS3_EEE5frontB7v160006Ev, symObjAddr: 0x1E0C, symBinAddr: 0x100003D28, symSize: 0x18 }
  - { offsetInCU: 0xDCCC, offset: 0x1B81C, size: 0x8, addend: 0x0, symName: __ZNSt3__114__split_bufferIPP6SectorNS_9allocatorIS3_EEE9pop_frontB7v160006Ev, symObjAddr: 0x1E24, symBinAddr: 0x100003D40, symSize: 0x2C }
  - { offsetInCU: 0xDCF0, offset: 0x1B840, size: 0x8, addend: 0x0, symName: __ZNKSt3__114__split_bufferIPP6SectorNS_9allocatorIS3_EEE5emptyB7v160006Ev, symObjAddr: 0x1E50, symBinAddr: 0x100003D6C, symSize: 0x28 }
  - { offsetInCU: 0xDD14, offset: 0x1B864, size: 0x8, addend: 0x0, symName: __ZNSt3__116__deque_iteratorIP6SectorPS2_RS2_PS3_lLl512EEC1B7v160006ES5_S3_, symObjAddr: 0x1E78, symBinAddr: 0x100003D94, symSize: 0x3C }
  - { offsetInCU: 0xDD5A, offset: 0x1B8AA, size: 0x8, addend: 0x0, symName: __ZNSt3__116__deque_iteratorIP6SectorPS2_RS2_PS3_lLl512EEC2B7v160006ES5_S3_, symObjAddr: 0x1EB4, symBinAddr: 0x100003DD0, symSize: 0x2C }
  - { offsetInCU: 0xDDA0, offset: 0x1B8F0, size: 0x8, addend: 0x0, symName: __ZNKSt3__15dequeIP6SectorNS_9allocatorIS2_EEE4sizeB7v160006Ev, symObjAddr: 0x1EE0, symBinAddr: 0x100003DFC, symSize: 0x28 }
  - { offsetInCU: 0xDDC4, offset: 0x1B914, size: 0x8, addend: 0x0, symName: __ZNKSt3__15dequeIP6SectorNS_9allocatorIS2_EEE6__sizeB7v160006Ev, symObjAddr: 0x1F08, symBinAddr: 0x100003E24, symSize: 0x28 }
  - { offsetInCU: 0xDDE8, offset: 0x1B938, size: 0x8, addend: 0x0, symName: __ZNKSt3__117__compressed_pairImNS_9allocatorIP6SectorEEE5firstB7v160006Ev, symObjAddr: 0x1F30, symBinAddr: 0x100003E4C, symSize: 0x24 }
  - { offsetInCU: 0xDE0C, offset: 0x1B95C, size: 0x8, addend: 0x0, symName: __ZNKSt3__122__compressed_pair_elemImLi0ELb0EE5__getB7v160006Ev, symObjAddr: 0x1F54, symBinAddr: 0x100003E70, symSize: 0x14 }
  - { offsetInCU: 0xDE30, offset: 0x1B980, size: 0x8, addend: 0x0, symName: __ZNSt3__19allocatorIP6SectorE7destroyB7v160006EPS2_, symObjAddr: 0x1F98, symBinAddr: 0x100003EB4, symSize: 0x14 }
  - { offsetInCU: 0xDE62, offset: 0x1B9B2, size: 0x8, addend: 0x0, symName: __ZNSt3__117__compressed_pairImNS_9allocatorIP6SectorEEE5firstB7v160006Ev, symObjAddr: 0x1FAC, symBinAddr: 0x100003EC8, symSize: 0x24 }
  - { offsetInCU: 0xDE86, offset: 0x1B9D6, size: 0x8, addend: 0x0, symName: __ZNSt3__122__compressed_pair_elemImLi0ELb0EE5__getB7v160006Ev, symObjAddr: 0x1FD0, symBinAddr: 0x100003EEC, symSize: 0x14 }
  - { offsetInCU: 0xDEAA, offset: 0x1B9FA, size: 0x8, addend: 0x0, symName: __ZNSt3__114__split_bufferIPP6SectorNS_9allocatorIS3_EEE19__destruct_at_beginB7v160006EPS3_, symObjAddr: 0x1FE4, symBinAddr: 0x100003F00, symSize: 0x2C }
  - { offsetInCU: 0xDEDC, offset: 0x1BA2C, size: 0x8, addend: 0x0, symName: __ZNSt3__114__split_bufferIPP6SectorNS_9allocatorIS3_EEE19__destruct_at_beginEPS3_NS_17integral_constantIbLb1EEE, symObjAddr: 0x2010, symBinAddr: 0x100003F2C, symSize: 0x20 }
  - { offsetInCU: 0xDF1B, offset: 0x1BA6B, size: 0x8, addend: 0x0, symName: __ZNSt3__19allocatorIP6SectorE10deallocateB7v160006EPS2_m, symObjAddr: 0x2030, symBinAddr: 0x100003F4C, symSize: 0x40 }
  - { offsetInCU: 0xDF5B, offset: 0x1BAAB, size: 0x8, addend: 0x0, symName: __ZNSt3__117__compressed_pairImNS_9allocatorIP6SectorEEE6secondB7v160006Ev, symObjAddr: 0x20EC, symBinAddr: 0x100003F8C, symSize: 0x24 }
  - { offsetInCU: 0xDF7F, offset: 0x1BACF, size: 0x8, addend: 0x0, symName: __ZNSt3__122__compressed_pair_elemINS_9allocatorIP6SectorEELi1ELb1EE5__getB7v160006Ev, symObjAddr: 0x2110, symBinAddr: 0x100003FB0, symSize: 0x14 }
  - { offsetInCU: 0xDFA3, offset: 0x1BAF3, size: 0x8, addend: 0x0, symName: __ZNSt3__114__split_bufferIPP6SectorNS_9allocatorIS3_EEED2Ev, symObjAddr: 0x2124, symBinAddr: 0x100003FC4, symSize: 0x8C }
  - { offsetInCU: 0xDFCE, offset: 0x1BB1E, size: 0x8, addend: 0x0, symName: __ZNSt3__114__split_bufferIPP6SectorNS_9allocatorIS3_EEE5clearB7v160006Ev, symObjAddr: 0x21B0, symBinAddr: 0x100004050, symSize: 0x28 }
  - { offsetInCU: 0xDFF2, offset: 0x1BB42, size: 0x8, addend: 0x0, symName: __ZNSt3__116allocator_traitsINS_9allocatorIPP6SectorEEE10deallocateB7v160006ERS5_PS4_m, symObjAddr: 0x21D8, symBinAddr: 0x100004078, symSize: 0x34 }
  - { offsetInCU: 0xE033, offset: 0x1BB83, size: 0x8, addend: 0x0, symName: __ZNSt3__114__split_bufferIPP6SectorNS_9allocatorIS3_EEE7__allocB7v160006Ev, symObjAddr: 0x220C, symBinAddr: 0x1000040AC, symSize: 0x28 }
  - { offsetInCU: 0xE057, offset: 0x1BBA7, size: 0x8, addend: 0x0, symName: __ZNKSt3__114__split_bufferIPP6SectorNS_9allocatorIS3_EEE8capacityB7v160006Ev, symObjAddr: 0x2234, symBinAddr: 0x1000040D4, symSize: 0x40 }
  - { offsetInCU: 0xE07B, offset: 0x1BBCB, size: 0x8, addend: 0x0, symName: __ZNSt3__114__split_bufferIPP6SectorNS_9allocatorIS3_EEE17__destruct_at_endB7v160006EPS3_, symObjAddr: 0x2274, symBinAddr: 0x100004114, symSize: 0x2C }
  - { offsetInCU: 0xE0AD, offset: 0x1BBFD, size: 0x8, addend: 0x0, symName: __ZNSt3__114__split_bufferIPP6SectorNS_9allocatorIS3_EEE17__destruct_at_endB7v160006EPS3_NS_17integral_constantIbLb0EEE, symObjAddr: 0x22A0, symBinAddr: 0x100004140, symSize: 0x80 }
  - { offsetInCU: 0xE0EB, offset: 0x1BC3B, size: 0x8, addend: 0x0, symName: __ZNSt3__116allocator_traitsINS_9allocatorIPP6SectorEEE7destroyB7v160006IS4_vEEvRS5_PT_, symObjAddr: 0x2320, symBinAddr: 0x1000041C0, symSize: 0x2C }
  - { offsetInCU: 0xE127, offset: 0x1BC77, size: 0x8, addend: 0x0, symName: __ZNSt3__19allocatorIPP6SectorE7destroyB7v160006EPS3_, symObjAddr: 0x2360, symBinAddr: 0x100004200, symSize: 0x14 }
  - { offsetInCU: 0xE159, offset: 0x1BCA9, size: 0x8, addend: 0x0, symName: __ZNSt3__19allocatorIPP6SectorE10deallocateB7v160006EPS3_m, symObjAddr: 0x2374, symBinAddr: 0x100004214, symSize: 0x40 }
  - { offsetInCU: 0xE199, offset: 0x1BCE9, size: 0x8, addend: 0x0, symName: __ZNSt3__117__compressed_pairIPPP6SectorNS_9allocatorIS3_EEE6secondB7v160006Ev, symObjAddr: 0x23B4, symBinAddr: 0x100004254, symSize: 0x24 }
  - { offsetInCU: 0xE1BD, offset: 0x1BD0D, size: 0x8, addend: 0x0, symName: __ZNSt3__122__compressed_pair_elemINS_9allocatorIPP6SectorEELi1ELb1EE5__getB7v160006Ev, symObjAddr: 0x23D8, symBinAddr: 0x100004278, symSize: 0x14 }
  - { offsetInCU: 0xE1E1, offset: 0x1BD31, size: 0x8, addend: 0x0, symName: __ZNKSt3__114__split_bufferIPP6SectorNS_9allocatorIS3_EEE9__end_capB7v160006Ev, symObjAddr: 0x23EC, symBinAddr: 0x10000428C, symSize: 0x28 }
  - { offsetInCU: 0xE205, offset: 0x1BD55, size: 0x8, addend: 0x0, symName: __ZNKSt3__117__compressed_pairIPPP6SectorNS_9allocatorIS3_EEE5firstB7v160006Ev, symObjAddr: 0x2414, symBinAddr: 0x1000042B4, symSize: 0x24 }
  - { offsetInCU: 0xE229, offset: 0x1BD79, size: 0x8, addend: 0x0, symName: __ZNKSt3__122__compressed_pair_elemIPPP6SectorLi0ELb0EE5__getB7v160006Ev, symObjAddr: 0x2438, symBinAddr: 0x1000042D8, symSize: 0x14 }
  - { offsetInCU: 0xE252, offset: 0x1BDA2, size: 0x8, addend: 0x0, symName: __ZNSt3__19basic_iosIcNS_11char_traitsIcEEEC2B7v160006Ev, symObjAddr: 0x2620, symBinAddr: 0x1000042EC, symSize: 0x44 }
  - { offsetInCU: 0xE27A, offset: 0x1BDCA, size: 0x8, addend: 0x0, symName: __ZNSt3__113basic_istreamIcNS_11char_traitsIcEEEC2B7v160006EPNS_15basic_streambufIcS2_EE, symObjAddr: 0x2664, symBinAddr: 0x100004330, symSize: 0x64 }
  - { offsetInCU: 0xE2BC, offset: 0x1BE0C, size: 0x8, addend: 0x0, symName: __ZNSt3__113basic_filebufIcNS_11char_traitsIcEEE4openERKNS_12basic_stringIcS2_NS_9allocatorIcEEEEj, symObjAddr: 0x26C8, symBinAddr: 0x100004394, symSize: 0x44 }
  - { offsetInCU: 0xE2FE, offset: 0x1BE4E, size: 0x8, addend: 0x0, symName: __ZNSt3__19basic_iosIcNS_11char_traitsIcEEE8setstateB7v160006Ej, symObjAddr: 0x270C, symBinAddr: 0x1000043D8, symSize: 0x2C }
  - { offsetInCU: 0xE331, offset: 0x1BE81, size: 0x8, addend: 0x0, symName: __ZNSt3__18ios_baseC2B7v160006Ev, symObjAddr: 0x2738, symBinAddr: 0x100004404, symSize: 0x24 }
  - { offsetInCU: 0xE359, offset: 0x1BEA9, size: 0x8, addend: 0x0, symName: __ZNSt3__19basic_iosIcNS_11char_traitsIcEEE4initB7v160006EPNS_15basic_streambufIcS2_EE, symObjAddr: 0x275C, symBinAddr: 0x100004428, symSize: 0x44 }
  - { offsetInCU: 0xE38E, offset: 0x1BEDE, size: 0x8, addend: 0x0, symName: __ZNSt3__111char_traitsIcE3eofEv, symObjAddr: 0x27A0, symBinAddr: 0x10000446C, symSize: 0x8 }
  - { offsetInCU: 0xE3A2, offset: 0x1BEF2, size: 0x8, addend: 0x0, symName: __ZNKSt3__112basic_stringIcNS_11char_traitsIcEENS_9allocatorIcEEE5c_strB7v160006Ev, symObjAddr: 0x27A8, symBinAddr: 0x100004474, symSize: 0x24 }
  - { offsetInCU: 0xE3C6, offset: 0x1BF16, size: 0x8, addend: 0x0, symName: __ZNSt3__18ios_base8setstateB7v160006Ej, symObjAddr: 0x2930, symBinAddr: 0x100004498, symSize: 0x34 }
  - { offsetInCU: 0xE3FB, offset: 0x1BF4B, size: 0x8, addend: 0x0, symName: __ZNKSt3__113basic_filebufIcNS_11char_traitsIcEEE7is_openEv, symObjAddr: 0x2964, symBinAddr: 0x1000044CC, symSize: 0x24 }
  - { offsetInCU: 0xE440, offset: 0x1BF90, size: 0x8, addend: 0x0, symName: __ZNKSt3__113basic_ostreamIcNS_11char_traitsIcEEE6sentrycvbB7v160006Ev, symObjAddr: 0x2BA8, symBinAddr: 0x1000046DC, symSize: 0x1C }
  - { offsetInCU: 0xE464, offset: 0x1BFB4, size: 0x8, addend: 0x0, symName: __ZNSt3__119ostreambuf_iteratorIcNS_11char_traitsIcEEEC1B7v160006ERNS_13basic_ostreamIcS2_EE, symObjAddr: 0x2E04, symBinAddr: 0x100004938, symSize: 0x34 }
  - { offsetInCU: 0xE49A, offset: 0x1BFEA, size: 0x8, addend: 0x0, symName: __ZNKSt3__18ios_base5flagsB7v160006Ev, symObjAddr: 0x2E38, symBinAddr: 0x10000496C, symSize: 0x18 }
  - { offsetInCU: 0xE4C1, offset: 0x1C011, size: 0x8, addend: 0x0, symName: __ZNKSt3__19basic_iosIcNS_11char_traitsIcEEE4fillB7v160006Ev, symObjAddr: 0x2E50, symBinAddr: 0x100004984, symSize: 0x64 }
  - { offsetInCU: 0xE4E7, offset: 0x1C037, size: 0x8, addend: 0x0, symName: __ZNKSt3__119ostreambuf_iteratorIcNS_11char_traitsIcEEE6failedB7v160006Ev, symObjAddr: 0x2EB4, symBinAddr: 0x1000049E8, symSize: 0x24 }
  - { offsetInCU: 0xE50B, offset: 0x1C05B, size: 0x8, addend: 0x0, symName: __ZNKSt3__18ios_base5widthB7v160006Ev, symObjAddr: 0x2ED8, symBinAddr: 0x100004A0C, symSize: 0x18 }
  - { offsetInCU: 0xE532, offset: 0x1C082, size: 0x8, addend: 0x0, symName: __ZNSt3__115basic_streambufIcNS_11char_traitsIcEEE5sputnB7v160006EPKcl, symObjAddr: 0x2EF0, symBinAddr: 0x100004A24, symSize: 0x3C }
  - { offsetInCU: 0xE572, offset: 0x1C0C2, size: 0x8, addend: 0x0, symName: __ZNSt3__112basic_stringIcNS_11char_traitsIcEENS_9allocatorIcEEEC1B7v160006Emc, symObjAddr: 0x2F2C, symBinAddr: 0x100004A60, symSize: 0x3C }
  - { offsetInCU: 0xE5B8, offset: 0x1C108, size: 0x8, addend: 0x0, symName: __ZNSt3__18ios_base5widthB7v160006El, symObjAddr: 0x2F68, symBinAddr: 0x100004A9C, symSize: 0x2C }
  - { offsetInCU: 0xE5FE, offset: 0x1C14E, size: 0x8, addend: 0x0, symName: __ZNSt3__112basic_stringIcNS_11char_traitsIcEENS_9allocatorIcEEEC2B7v160006Emc, symObjAddr: 0x2F94, symBinAddr: 0x100004AC8, symSize: 0x54 }
  - { offsetInCU: 0xE644, offset: 0x1C194, size: 0x8, addend: 0x0, symName: __ZNSt3__119ostreambuf_iteratorIcNS_11char_traitsIcEEEC2B7v160006ERNS_13basic_ostreamIcS2_EE, symObjAddr: 0x2FE8, symBinAddr: 0x100004B1C, symSize: 0x54 }
  - { offsetInCU: 0xE67A, offset: 0x1C1CA, size: 0x8, addend: 0x0, symName: __ZNKSt3__19basic_iosIcNS_11char_traitsIcEEE5rdbufB7v160006Ev, symObjAddr: 0x303C, symBinAddr: 0x100004B70, symSize: 0x24 }
  - { offsetInCU: 0xE6A0, offset: 0x1C1F0, size: 0x8, addend: 0x0, symName: __ZNKSt3__18ios_base5rdbufB7v160006Ev, symObjAddr: 0x3060, symBinAddr: 0x100004B94, symSize: 0x18 }
  - { offsetInCU: 0xE6C4, offset: 0x1C214, size: 0x8, addend: 0x0, symName: __ZNSt3__111char_traitsIcE11eq_int_typeEii, symObjAddr: 0x3078, symBinAddr: 0x100004BAC, symSize: 0x28 }
  - { offsetInCU: 0xE6F4, offset: 0x1C244, size: 0x8, addend: 0x0, symName: __ZNKSt3__19basic_iosIcNS_11char_traitsIcEEE5widenB7v160006Ec, symObjAddr: 0x30A0, symBinAddr: 0x100004BD4, symSize: 0x84 }
  - { offsetInCU: 0xE760, offset: 0x1C2B0, size: 0x8, addend: 0x0, symName: __ZNKSt3__15ctypeIcE5widenB7v160006Ec, symObjAddr: 0x3150, symBinAddr: 0x100004C84, symSize: 0x38 }
  - { offsetInCU: 0xE793, offset: 0x1C2E3, size: 0x8, addend: 0x0, symName: __ZNKSt3__19basic_iosIcNS_11char_traitsIcEEE4failB7v160006Ev, symObjAddr: 0x325C, symBinAddr: 0x100004CBC, symSize: 0x28 }
  - { offsetInCU: 0xE7B7, offset: 0x1C307, size: 0x8, addend: 0x0, symName: __ZNKSt3__18ios_base4failB7v160006Ev, symObjAddr: 0x3284, symBinAddr: 0x100004CE4, symSize: 0x28 }
  - { offsetInCU: 0xE7DE, offset: 0x1C32E, size: 0x8, addend: 0x0, symName: __ZNSt3__114basic_iostreamIcNS_11char_traitsIcEEEC2B7v160006EPNS_15basic_streambufIcS2_EE, symObjAddr: 0x32AC, symBinAddr: 0x100004D0C, symSize: 0xAC }
  - { offsetInCU: 0xE821, offset: 0x1C371, size: 0x8, addend: 0x0, symName: __ZNSt3__115basic_stringbufIcNS_11char_traitsIcEENS_9allocatorIcEEEC1B7v160006ERKNS_12basic_stringIcS2_S4_EEj, symObjAddr: 0x3358, symBinAddr: 0x100004DB8, symSize: 0x3C }
  - { offsetInCU: 0xE865, offset: 0x1C3B5, size: 0x8, addend: 0x0, symName: __ZNSt3__113basic_ostreamIcNS_11char_traitsIcEEEC2B7v160006Ev, symObjAddr: 0x3394, symBinAddr: 0x100004DF4, symSize: 0x34 }
  - { offsetInCU: 0xE899, offset: 0x1C3E9, size: 0x8, addend: 0x0, symName: __ZNSt3__115basic_stringbufIcNS_11char_traitsIcEENS_9allocatorIcEEEC2B7v160006ERKNS_12basic_stringIcS2_S4_EEj, symObjAddr: 0x33C8, symBinAddr: 0x100004E28, symSize: 0xB4 }
  - { offsetInCU: 0xE8DD, offset: 0x1C42D, size: 0x8, addend: 0x0, symName: __ZNKSt3__112basic_stringIcNS_11char_traitsIcEENS_9allocatorIcEEE13get_allocatorB7v160006Ev, symObjAddr: 0x347C, symBinAddr: 0x100004EDC, symSize: 0x24 }
  - { offsetInCU: 0xE901, offset: 0x1C451, size: 0x8, addend: 0x0, symName: __ZNSt3__112basic_stringIcNS_11char_traitsIcEENS_9allocatorIcEEEC1B7v160006ERKS4_, symObjAddr: 0x34A0, symBinAddr: 0x100004F00, symSize: 0x34 }
  - { offsetInCU: 0xE938, offset: 0x1C488, size: 0x8, addend: 0x0, symName: __ZNKSt3__112basic_stringIcNS_11char_traitsIcEENS_9allocatorIcEEE7__allocB7v160006Ev, symObjAddr: 0x34D4, symBinAddr: 0x100004F34, symSize: 0x24 }
  - { offsetInCU: 0xE95C, offset: 0x1C4AC, size: 0x8, addend: 0x0, symName: __ZNKSt3__117__compressed_pairINS_12basic_stringIcNS_11char_traitsIcEENS_9allocatorIcEEE5__repES5_E6secondB7v160006Ev, symObjAddr: 0x34F8, symBinAddr: 0x100004F58, symSize: 0x24 }
  - { offsetInCU: 0xE980, offset: 0x1C4D0, size: 0x8, addend: 0x0, symName: __ZNKSt3__122__compressed_pair_elemINS_9allocatorIcEELi1ELb1EE5__getB7v160006Ev, symObjAddr: 0x351C, symBinAddr: 0x100004F7C, symSize: 0x14 }
  - { offsetInCU: 0xE9A4, offset: 0x1C4F4, size: 0x8, addend: 0x0, symName: __ZNSt3__112basic_stringIcNS_11char_traitsIcEENS_9allocatorIcEEEC2B7v160006ERKS4_, symObjAddr: 0x3530, symBinAddr: 0x100004F90, symSize: 0x50 }
  - { offsetInCU: 0xE9DB, offset: 0x1C52B, size: 0x8, addend: 0x0, symName: __ZNSt3__117__compressed_pairINS_12basic_stringIcNS_11char_traitsIcEENS_9allocatorIcEEE5__repES5_EC1B7v160006INS_18__default_init_tagERKS5_EEOT_OT0_, symObjAddr: 0x3580, symBinAddr: 0x100004FE0, symSize: 0x3C }
  - { offsetInCU: 0xEA31, offset: 0x1C581, size: 0x8, addend: 0x0, symName: __ZNSt3__117__compressed_pairINS_12basic_stringIcNS_11char_traitsIcEENS_9allocatorIcEEE5__repES5_EC2B7v160006INS_18__default_init_tagERKS5_EEOT_OT0_, symObjAddr: 0x35BC, symBinAddr: 0x10000501C, symSize: 0x40 }
  - { offsetInCU: 0xEA87, offset: 0x1C5D7, size: 0x8, addend: 0x0, symName: __ZNSt3__122__compressed_pair_elemINS_9allocatorIcEELi1ELb1EEC2B7v160006IRKS2_vEEOT_, symObjAddr: 0x35FC, symBinAddr: 0x10000505C, symSize: 0x18 }
  - { offsetInCU: 0xEAE5, offset: 0x1C635, size: 0x8, addend: 0x0, symName: __ZNKSt3__113basic_istreamIcNS_11char_traitsIcEEE6sentrycvbB7v160006Ev, symObjAddr: 0x3614, symBinAddr: 0x100005074, symSize: 0x1C }
  - { offsetInCU: 0xEB09, offset: 0x1C659, size: 0x8, addend: 0x0, symName: __ZNSt3__112basic_stringIcNS_11char_traitsIcEENS_9allocatorIcEEE5clearB7v160006Ev, symObjAddr: 0x3630, symBinAddr: 0x100005090, symSize: 0x88 }
  - { offsetInCU: 0xEB2F, offset: 0x1C67F, size: 0x8, addend: 0x0, symName: __ZNSt3__115basic_streambufIcNS_11char_traitsIcEEE6sbumpcB7v160006Ev, symObjAddr: 0x36B8, symBinAddr: 0x100005118, symSize: 0x78 }
  - { offsetInCU: 0xEB53, offset: 0x1C6A3, size: 0x8, addend: 0x0, symName: __ZNSt3__111char_traitsIcE12to_char_typeEi, symObjAddr: 0x3730, symBinAddr: 0x100005190, symSize: 0x18 }
  - { offsetInCU: 0xEB75, offset: 0x1C6C5, size: 0x8, addend: 0x0, symName: __ZNSt3__111char_traitsIcE2eqEcc, symObjAddr: 0x3748, symBinAddr: 0x1000051A8, symSize: 0x28 }
  - { offsetInCU: 0xEBA5, offset: 0x1C6F5, size: 0x8, addend: 0x0, symName: __ZNKSt3__112basic_stringIcNS_11char_traitsIcEENS_9allocatorIcEEE8max_sizeB7v160006Ev, symObjAddr: 0x3770, symBinAddr: 0x1000051D0, symSize: 0xAC }
  - { offsetInCU: 0xEBF8, offset: 0x1C748, size: 0x8, addend: 0x0, symName: __ZNSt3__18ios_base18__setstate_nothrowB7v160006Ej, symObjAddr: 0x381C, symBinAddr: 0x10000527C, symSize: 0x64 }
  - { offsetInCU: 0xEC2B, offset: 0x1C77B, size: 0x8, addend: 0x0, symName: __ZNKSt3__19basic_iosIcNS_11char_traitsIcEEE10exceptionsB7v160006Ev, symObjAddr: 0x3880, symBinAddr: 0x1000052E0, symSize: 0x24 }
  - { offsetInCU: 0xEC4F, offset: 0x1C79F, size: 0x8, addend: 0x0, symName: __ZNSt3__112basic_stringIcNS_11char_traitsIcEENS_9allocatorIcEEE15__set_long_sizeB7v160006Em, symObjAddr: 0x3900, symBinAddr: 0x100005314, symSize: 0x38 }
  - { offsetInCU: 0xEC82, offset: 0x1C7D2, size: 0x8, addend: 0x0, symName: __ZNSt3__111char_traitsIcE11to_int_typeEc, symObjAddr: 0x39EC, symBinAddr: 0x10000534C, symSize: 0x14 }
  - { offsetInCU: 0xECAE, offset: 0x1C7FE, size: 0x8, addend: 0x0, symName: __ZNSt3__116allocator_traitsINS_9allocatorIcEEE8max_sizeB7v160006IS2_vEEmRKS2_, symObjAddr: 0x3A00, symBinAddr: 0x100005360, symSize: 0x24 }
  - { offsetInCU: 0xECDB, offset: 0x1C82B, size: 0x8, addend: 0x0, symName: __ZNSt3__114numeric_limitsImE3maxB7v160006Ev, symObjAddr: 0x3A24, symBinAddr: 0x100005384, symSize: 0x14 }
  - { offsetInCU: 0xECEF, offset: 0x1C83F, size: 0x8, addend: 0x0, symName: __ZNKSt3__19allocatorIcE8max_sizeB7v160006Ev, symObjAddr: 0x3A38, symBinAddr: 0x100005398, symSize: 0x14 }
  - { offsetInCU: 0xED13, offset: 0x1C863, size: 0x8, addend: 0x0, symName: __ZNSt3__123__libcpp_numeric_limitsImLb1EE3maxB7v160006Ev, symObjAddr: 0x3A4C, symBinAddr: 0x1000053AC, symSize: 0x8 }
  - { offsetInCU: 0xED27, offset: 0x1C877, size: 0x8, addend: 0x0, symName: __ZNKSt3__18ios_base10exceptionsB7v160006Ev, symObjAddr: 0x3A54, symBinAddr: 0x1000053B4, symSize: 0x18 }
  - { offsetInCU: 0xED4E, offset: 0x1C89E, size: 0x8, addend: 0x0, symName: __ZNSt3__15stackIP6SectorNS_5dequeIS2_NS_9allocatorIS2_EEEEEC2B7v160006Ev, symObjAddr: 0x3A6C, symBinAddr: 0x1000053CC, symSize: 0x2C }
  - { offsetInCU: 0xED76, offset: 0x1C8C6, size: 0x8, addend: 0x0, symName: __ZNSt3__15dequeIP6SectorNS_9allocatorIS2_EEEC1B7v160006Ev, symObjAddr: 0x3A98, symBinAddr: 0x1000053F8, symSize: 0x2C }
  - { offsetInCU: 0xED9E, offset: 0x1C8EE, size: 0x8, addend: 0x0, symName: __ZNSt3__15dequeIP6SectorNS_9allocatorIS2_EEEC2B7v160006Ev, symObjAddr: 0x3AC4, symBinAddr: 0x100005424, symSize: 0x50 }
  - { offsetInCU: 0xEDC6, offset: 0x1C916, size: 0x8, addend: 0x0, symName: __ZNSt3__114__split_bufferIPP6SectorNS_9allocatorIS3_EEEC1Ev, symObjAddr: 0x3B14, symBinAddr: 0x100005474, symSize: 0x2C }
  - { offsetInCU: 0xEDF6, offset: 0x1C946, size: 0x8, addend: 0x0, symName: __ZNSt3__117__compressed_pairImNS_9allocatorIP6SectorEEEC1B7v160006IiNS_18__default_init_tagEEEOT_OT0_, symObjAddr: 0x3B40, symBinAddr: 0x1000054A0, symSize: 0x3C }
  - { offsetInCU: 0xEE4C, offset: 0x1C99C, size: 0x8, addend: 0x0, symName: __ZNSt3__114__split_bufferIPP6SectorNS_9allocatorIS3_EEEC2Ev, symObjAddr: 0x3B7C, symBinAddr: 0x1000054DC, symSize: 0x50 }
  - { offsetInCU: 0xEE7C, offset: 0x1C9CC, size: 0x8, addend: 0x0, symName: __ZNSt3__117__compressed_pairIPPP6SectorNS_9allocatorIS3_EEEC1B7v160006IDnNS_18__default_init_tagEEEOT_OT0_, symObjAddr: 0x3BCC, symBinAddr: 0x10000552C, symSize: 0x3C }
  - { offsetInCU: 0xEED2, offset: 0x1CA22, size: 0x8, addend: 0x0, symName: __ZNSt3__117__compressed_pairIPPP6SectorNS_9allocatorIS3_EEEC2B7v160006IDnNS_18__default_init_tagEEEOT_OT0_, symObjAddr: 0x3C08, symBinAddr: 0x100005568, symSize: 0x40 }
  - { offsetInCU: 0xEF28, offset: 0x1CA78, size: 0x8, addend: 0x0, symName: __ZNSt3__122__compressed_pair_elemIPPP6SectorLi0ELb0EEC2B7v160006IDnvEEOT_, symObjAddr: 0x3C48, symBinAddr: 0x1000055A8, symSize: 0x1C }
  - { offsetInCU: 0xEF68, offset: 0x1CAB8, size: 0x8, addend: 0x0, symName: __ZNSt3__122__compressed_pair_elemINS_9allocatorIPP6SectorEELi1ELb1EEC2B7v160006ENS_18__default_init_tagE, symObjAddr: 0x3C64, symBinAddr: 0x1000055C4, symSize: 0x2C }
  - { offsetInCU: 0xEF9A, offset: 0x1CAEA, size: 0x8, addend: 0x0, symName: __ZNSt3__19allocatorIPP6SectorEC2B7v160006Ev, symObjAddr: 0x3C90, symBinAddr: 0x1000055F0, symSize: 0x2C }
  - { offsetInCU: 0xEFC2, offset: 0x1CB12, size: 0x8, addend: 0x0, symName: __ZNSt3__116__non_trivial_ifILb1ENS_9allocatorIPP6SectorEEEC2B7v160006Ev, symObjAddr: 0x3CBC, symBinAddr: 0x10000561C, symSize: 0x14 }
  - { offsetInCU: 0xEFEA, offset: 0x1CB3A, size: 0x8, addend: 0x0, symName: __ZNSt3__117__compressed_pairImNS_9allocatorIP6SectorEEEC2B7v160006IiNS_18__default_init_tagEEEOT_OT0_, symObjAddr: 0x3CD0, symBinAddr: 0x100005630, symSize: 0x40 }
  - { offsetInCU: 0xF040, offset: 0x1CB90, size: 0x8, addend: 0x0, symName: __ZNSt3__122__compressed_pair_elemImLi0ELb0EEC2B7v160006IivEEOT_, symObjAddr: 0x3D10, symBinAddr: 0x100005670, symSize: 0x24 }
  - { offsetInCU: 0xF080, offset: 0x1CBD0, size: 0x8, addend: 0x0, symName: __ZNSt3__122__compressed_pair_elemINS_9allocatorIP6SectorEELi1ELb1EEC2B7v160006ENS_18__default_init_tagE, symObjAddr: 0x3D34, symBinAddr: 0x100005694, symSize: 0x2C }
  - { offsetInCU: 0xF0B2, offset: 0x1CC02, size: 0x8, addend: 0x0, symName: __ZNSt3__19allocatorIP6SectorEC2B7v160006Ev, symObjAddr: 0x3D60, symBinAddr: 0x1000056C0, symSize: 0x2C }
  - { offsetInCU: 0xF0DA, offset: 0x1CC2A, size: 0x8, addend: 0x0, symName: __ZNSt3__116__non_trivial_ifILb1ENS_9allocatorIP6SectorEEEC2B7v160006Ev, symObjAddr: 0x3D8C, symBinAddr: 0x1000056EC, symSize: 0x14 }
  - { offsetInCU: 0xF102, offset: 0x1CC52, size: 0x8, addend: 0x0, symName: __ZNSt3__15dequeIP6SectorNS_9allocatorIS2_EEE9push_backERKS2_, symObjAddr: 0x3DA0, symBinAddr: 0x100005700, symSize: 0xA0 }
  - { offsetInCU: 0xF147, offset: 0x1CC97, size: 0x8, addend: 0x0, symName: __ZNKSt3__15dequeIP6SectorNS_9allocatorIS2_EEE12__back_spareB7v160006Ev, symObjAddr: 0x3E40, symBinAddr: 0x1000057A0, symSize: 0x54 }
  - { offsetInCU: 0xF16B, offset: 0x1CCBB, size: 0x8, addend: 0x0, symName: __ZNSt3__15dequeIP6SectorNS_9allocatorIS2_EEE19__add_back_capacityEv, symObjAddr: 0x3E94, symBinAddr: 0x1000057F4, symSize: 0x314 }
  - { offsetInCU: 0xF227, offset: 0x1CD77, size: 0x8, addend: 0x0, symName: __ZNSt3__116allocator_traitsINS_9allocatorIP6SectorEEE9constructB7v160006IS3_JRKS3_EvEEvRS4_PT_DpOT0_, symObjAddr: 0x41A8, symBinAddr: 0x100005B08, symSize: 0x34 }
  - { offsetInCU: 0xF27D, offset: 0x1CDCD, size: 0x8, addend: 0x0, symName: __ZNKSt3__15dequeIP6SectorNS_9allocatorIS2_EEE10__capacityB7v160006Ev, symObjAddr: 0x41DC, symBinAddr: 0x100005B3C, symSize: 0x60 }
  - { offsetInCU: 0xF2A1, offset: 0x1CDF1, size: 0x8, addend: 0x0, symName: __ZNKSt3__15dequeIP6SectorNS_9allocatorIS2_EEE13__front_spareB7v160006Ev, symObjAddr: 0x423C, symBinAddr: 0x100005B9C, symSize: 0x18 }
  - { offsetInCU: 0xF2C5, offset: 0x1CE15, size: 0x8, addend: 0x0, symName: __ZNSt3__114__split_bufferIPP6SectorNS_9allocatorIS3_EEE9push_backB7v160006ERKS3_, symObjAddr: 0x4254, symBinAddr: 0x100005BB4, symSize: 0x260 }
  - { offsetInCU: 0xF33F, offset: 0x1CE8F, size: 0x8, addend: 0x0, symName: __ZNKSt3__114__split_bufferIPP6SectorNS_9allocatorIS3_EEE12__back_spareB7v160006Ev, symObjAddr: 0x44B4, symBinAddr: 0x100005E14, symSize: 0x40 }
  - { offsetInCU: 0xF363, offset: 0x1CEB3, size: 0x8, addend: 0x0, symName: __ZNSt3__114__split_bufferIPP6SectorNS_9allocatorIS3_EEE9push_backEOS3_, symObjAddr: 0x44F4, symBinAddr: 0x100005E54, symSize: 0x260 }
  - { offsetInCU: 0xF3DD, offset: 0x1CF2D, size: 0x8, addend: 0x0, symName: __ZNSt3__116allocator_traitsINS_9allocatorIP6SectorEEE8allocateB7v160006ERS4_m, symObjAddr: 0x4754, symBinAddr: 0x1000060B4, symSize: 0x2C }
  - { offsetInCU: 0xF40F, offset: 0x1CF5F, size: 0x8, addend: 0x0, symName: __ZNSt3__114__split_bufferIPP6SectorNS_9allocatorIS3_EEE10push_frontEOS3_, symObjAddr: 0x4780, symBinAddr: 0x1000060E0, symSize: 0x25C }
  - { offsetInCU: 0xF489, offset: 0x1CFD9, size: 0x8, addend: 0x0, symName: __ZNSt3__114__split_bufferIPP6SectorRNS_9allocatorIS3_EEEC1EmmS6_, symObjAddr: 0x4A08, symBinAddr: 0x100006368, symSize: 0x44 }
  - { offsetInCU: 0xF4E3, offset: 0x1D033, size: 0x8, addend: 0x0, symName: __ZNSt3__122__allocator_destructorINS_9allocatorIP6SectorEEEC1B7v160006ERS4_m, symObjAddr: 0x4A4C, symBinAddr: 0x1000063AC, symSize: 0x3C }
  - { offsetInCU: 0xF590, offset: 0x1D0E0, size: 0x8, addend: 0x0, symName: __ZNSt3__110unique_ptrIPP6SectorNS_22__allocator_destructorINS_9allocatorIS2_EEEEEC1B7v160006ILb1EvEES3_NS_16__dependent_typeINS_27__unique_ptr_deleter_sfinaeIS7_EEXT_EE20__good_rval_ref_typeE, symObjAddr: 0x4A88, symBinAddr: 0x1000063E8, symSize: 0x3C }
  - { offsetInCU: 0xF5DF, offset: 0x1D12F, size: 0x8, addend: 0x0, symName: __ZNSt3__114__split_bufferIPP6SectorRNS_9allocatorIS3_EEE9push_backEOS3_, symObjAddr: 0x4AC4, symBinAddr: 0x100006424, symSize: 0x260 }
  - { offsetInCU: 0xF659, offset: 0x1D1A9, size: 0x8, addend: 0x0, symName: __ZNKSt3__110unique_ptrIPP6SectorNS_22__allocator_destructorINS_9allocatorIS2_EEEEE3getB7v160006Ev, symObjAddr: 0x4D24, symBinAddr: 0x100006684, symSize: 0x28 }
  - { offsetInCU: 0xF67D, offset: 0x1D1CD, size: 0x8, addend: 0x0, symName: __ZNSt3__110unique_ptrIPP6SectorNS_22__allocator_destructorINS_9allocatorIS2_EEEEE7releaseB7v160006Ev, symObjAddr: 0x4D4C, symBinAddr: 0x1000066AC, symSize: 0x44 }
  - { offsetInCU: 0xF6B1, offset: 0x1D201, size: 0x8, addend: 0x0, symName: __ZNSt3__114__split_bufferIPP6SectorRNS_9allocatorIS3_EEE10push_frontERKS3_, symObjAddr: 0x4D90, symBinAddr: 0x1000066F0, symSize: 0x25C }
  - { offsetInCU: 0xF72B, offset: 0x1D27B, size: 0x8, addend: 0x0, symName: __ZNSt3__114__split_bufferIPP6SectorNS_9allocatorIS3_EEE9__end_capB7v160006Ev, symObjAddr: 0x5028, symBinAddr: 0x100006988, symSize: 0x28 }
  - { offsetInCU: 0xF74F, offset: 0x1D29F, size: 0x8, addend: 0x0, symName: __ZNSt3__114__split_bufferIPP6SectorRNS_9allocatorIS3_EEE9__end_capB7v160006Ev, symObjAddr: 0x5050, symBinAddr: 0x1000069B0, symSize: 0x28 }
  - { offsetInCU: 0xF773, offset: 0x1D2C3, size: 0x8, addend: 0x0, symName: __ZNSt3__110unique_ptrIPP6SectorNS_22__allocator_destructorINS_9allocatorIS2_EEEEED1B7v160006Ev, symObjAddr: 0x5078, symBinAddr: 0x1000069D8, symSize: 0x2C }
  - { offsetInCU: 0xF79B, offset: 0x1D2EB, size: 0x8, addend: 0x0, symName: __ZNSt3__114__split_bufferIPP6SectorRNS_9allocatorIS3_EEED1Ev, symObjAddr: 0x50A4, symBinAddr: 0x100006A04, symSize: 0x2C }
  - { offsetInCU: 0xF7C6, offset: 0x1D316, size: 0x8, addend: 0x0, symName: __ZNSt3__114__split_bufferIPP6SectorRNS_9allocatorIS3_EEE18__construct_at_endINS_13move_iteratorIPS3_EEEENS_9enable_ifIXsr27__is_cpp17_forward_iteratorIT_EE5valueEvE4typeESD_SD_, symObjAddr: 0x5110, symBinAddr: 0x100006A70, symSize: 0xFC }
  - { offsetInCU: 0xF821, offset: 0x1D371, size: 0x8, addend: 0x0, symName: __ZNSt3__113move_iteratorIPPP6SectorEC1B7v160006ES4_, symObjAddr: 0x520C, symBinAddr: 0x100006B6C, symSize: 0x34 }
  - { offsetInCU: 0xF857, offset: 0x1D3A7, size: 0x8, addend: 0x0, symName: __ZNSt3__116allocator_traitsINS_9allocatorIPP6SectorEEE9constructB7v160006IS4_JRKS4_EvEEvRS5_PT_DpOT0_, symObjAddr: 0x5240, symBinAddr: 0x100006BA0, symSize: 0x34 }
  - { offsetInCU: 0xF8D0, offset: 0x1D420, size: 0x8, addend: 0x0, symName: __ZNKSt3__114__move_trivialclB7v160006IPP6SectorS4_Li0EEENS_4pairIPT_PT0_EES7_S7_S9_, symObjAddr: 0x5410, symBinAddr: 0x100006D70, symSize: 0x48 }
  - { offsetInCU: 0xF93C, offset: 0x1D48C, size: 0x8, addend: 0x0, symName: __ZNSt3__14pairIPPP6SectorS4_EC1B7v160006IRS4_S4_LPv0EEEOT_OT0_, symObjAddr: 0x55D8, symBinAddr: 0x100006F38, symSize: 0x3C }
  - { offsetInCU: 0xF999, offset: 0x1D4E9, size: 0x8, addend: 0x0, symName: __ZNSt3__14pairIPPP6SectorS4_EC2B7v160006IRS4_S4_LPv0EEEOT_OT0_, symObjAddr: 0x5614, symBinAddr: 0x100006F74, symSize: 0x34 }
  - { offsetInCU: 0xF9F6, offset: 0x1D546, size: 0x8, addend: 0x0, symName: __ZNSt3__118__unwrap_iter_implIPPP6SectorLb1EE8__unwrapB7v160006ES4_, symObjAddr: 0x5648, symBinAddr: 0x100006FA8, symSize: 0x24 }
  - { offsetInCU: 0xFA18, offset: 0x1D568, size: 0x8, addend: 0x0, symName: __ZNSt3__14pairIPPP6SectorS4_EC1B7v160006IS4_S4_LPv0EEEOT_OT0_, symObjAddr: 0x566C, symBinAddr: 0x100006FCC, symSize: 0x3C }
  - { offsetInCU: 0xFA75, offset: 0x1D5C5, size: 0x8, addend: 0x0, symName: __ZNSt3__14pairIPPP6SectorS4_EC2B7v160006IS4_S4_LPv0EEEOT_OT0_, symObjAddr: 0x56A8, symBinAddr: 0x100007008, symSize: 0x34 }
  - { offsetInCU: 0xFAD2, offset: 0x1D622, size: 0x8, addend: 0x0, symName: __ZNSt3__118__unwrap_iter_implIPPP6SectorLb1EE8__rewrapB7v160006ES4_S4_, symObjAddr: 0x56DC, symBinAddr: 0x10000703C, symSize: 0x50 }
  - { offsetInCU: 0xFB0C, offset: 0x1D65C, size: 0x8, addend: 0x0, symName: __ZNSt3__114__split_bufferIPP6SectorRNS_9allocatorIS3_EEE21_ConstructTransactionC1B7v160006EPPS3_m, symObjAddr: 0x5768, symBinAddr: 0x1000070C8, symSize: 0x3C }
  - { offsetInCU: 0xFB50, offset: 0x1D6A0, size: 0x8, addend: 0x0, symName: __ZNSt3__116allocator_traitsINS_9allocatorIPP6SectorEEE9constructB7v160006IS4_JS4_EvEEvRS5_PT_DpOT0_, symObjAddr: 0x57A4, symBinAddr: 0x100007104, symSize: 0x34 }
  - { offsetInCU: 0xFBA6, offset: 0x1D6F6, size: 0x8, addend: 0x0, symName: __ZNSt3__114__split_bufferIPP6SectorRNS_9allocatorIS3_EEE7__allocB7v160006Ev, symObjAddr: 0x57D8, symBinAddr: 0x100007138, symSize: 0x28 }
  - { offsetInCU: 0xFBCA, offset: 0x1D71A, size: 0x8, addend: 0x0, symName: __ZNKSt3__113move_iteratorIPPP6SectorEdeB7v160006Ev, symObjAddr: 0x5800, symBinAddr: 0x100007160, symSize: 0x18 }
  - { offsetInCU: 0xFBEE, offset: 0x1D73E, size: 0x8, addend: 0x0, symName: __ZNSt3__113move_iteratorIPPP6SectorEppB7v160006Ev, symObjAddr: 0x5818, symBinAddr: 0x100007178, symSize: 0x20 }
  - { offsetInCU: 0xFC12, offset: 0x1D762, size: 0x8, addend: 0x0, symName: __ZNSt3__114__split_bufferIPP6SectorRNS_9allocatorIS3_EEE21_ConstructTransactionD1B7v160006Ev, symObjAddr: 0x5838, symBinAddr: 0x100007198, symSize: 0x2C }
  - { offsetInCU: 0xFC3A, offset: 0x1D78A, size: 0x8, addend: 0x0, symName: __ZNKSt3__113move_iteratorIPPP6SectorE4baseB7v160006Ev, symObjAddr: 0x58DC, symBinAddr: 0x10000723C, symSize: 0x18 }
  - { offsetInCU: 0xFC5E, offset: 0x1D7AE, size: 0x8, addend: 0x0, symName: __ZNSt3__114__split_bufferIPP6SectorRNS_9allocatorIS3_EEE21_ConstructTransactionC2B7v160006EPPS3_m, symObjAddr: 0x58F4, symBinAddr: 0x100007254, symSize: 0x44 }
  - { offsetInCU: 0xFCA2, offset: 0x1D7F2, size: 0x8, addend: 0x0, symName: __ZNSt3__19allocatorIPP6SectorE9constructB7v160006IS3_JS3_EEEvPT_DpOT0_, symObjAddr: 0x5938, symBinAddr: 0x100007298, symSize: 0x28 }
  - { offsetInCU: 0xFCF6, offset: 0x1D846, size: 0x8, addend: 0x0, symName: __ZNSt3__117__compressed_pairIPPP6SectorRNS_9allocatorIS3_EEE6secondB7v160006Ev, symObjAddr: 0x5960, symBinAddr: 0x1000072C0, symSize: 0x28 }
  - { offsetInCU: 0xFD1A, offset: 0x1D86A, size: 0x8, addend: 0x0, symName: __ZNSt3__122__compressed_pair_elemIRNS_9allocatorIPP6SectorEELi1ELb0EE5__getB7v160006Ev, symObjAddr: 0x5988, symBinAddr: 0x1000072E8, symSize: 0x18 }
  - { offsetInCU: 0xFD3E, offset: 0x1D88E, size: 0x8, addend: 0x0, symName: __ZNSt3__114__split_bufferIPP6SectorRNS_9allocatorIS3_EEE21_ConstructTransactionD2B7v160006Ev, symObjAddr: 0x59A0, symBinAddr: 0x100007300, symSize: 0x20 }
  - { offsetInCU: 0xFD66, offset: 0x1D8B6, size: 0x8, addend: 0x0, symName: __ZNSt3__113move_iteratorIPPP6SectorEC2B7v160006ES4_, symObjAddr: 0x59C0, symBinAddr: 0x100007320, symSize: 0x20 }
  - { offsetInCU: 0xFD9C, offset: 0x1D8EC, size: 0x8, addend: 0x0, symName: __ZNSt3__19allocatorIPP6SectorE9constructB7v160006IS3_JRKS3_EEEvPT_DpOT0_, symObjAddr: 0x59E0, symBinAddr: 0x100007340, symSize: 0x28 }
  - { offsetInCU: 0xFDF0, offset: 0x1D940, size: 0x8, addend: 0x0, symName: __ZNSt3__19allocatorIP6SectorE8allocateB7v160006Em, symObjAddr: 0x5A08, symBinAddr: 0x100007368, symSize: 0x58 }
  - { offsetInCU: 0xFE2C, offset: 0x1D97C, size: 0x8, addend: 0x0, symName: __ZNSt3__116allocator_traitsINS_9allocatorIP6SectorEEE8max_sizeB7v160006IS4_vEEmRKS4_, symObjAddr: 0x5A60, symBinAddr: 0x1000073C0, symSize: 0x24 }
  - { offsetInCU: 0xFE59, offset: 0x1D9A9, size: 0x8, addend: 0x0, symName: __ZNKSt3__19allocatorIP6SectorE8max_sizeB7v160006Ev, symObjAddr: 0x5AE0, symBinAddr: 0x100007440, symSize: 0x14 }
  - { offsetInCU: 0xFE87, offset: 0x1D9D7, size: 0x8, addend: 0x0, symName: __ZNKSt3__123__move_backward_trivialclB7v160006IPP6SectorS4_Li0EEENS_4pairIPT_PT0_EES7_S7_S9_, symObjAddr: 0x5C94, symBinAddr: 0x1000075F4, symSize: 0x48 }
  - { offsetInCU: 0xFEEE, offset: 0x1DA3E, size: 0x8, addend: 0x0, symName: __ZNSt3__14pairIPPP6SectorS4_EC1B7v160006IRS4_S7_LPv0EEEOT_OT0_, symObjAddr: 0x5DA8, symBinAddr: 0x100007708, symSize: 0x3C }
  - { offsetInCU: 0xFF4B, offset: 0x1DA9B, size: 0x8, addend: 0x0, symName: __ZNSt3__14pairIPPP6SectorS4_EC2B7v160006IRS4_S7_LPv0EEEOT_OT0_, symObjAddr: 0x5DE4, symBinAddr: 0x100007744, symSize: 0x34 }
  - { offsetInCU: 0xFFB2, offset: 0x1DB02, size: 0x8, addend: 0x0, symName: __ZNKSt3__16__lessImmEclB7v160006ERKmS3_, symObjAddr: 0x5E6C, symBinAddr: 0x1000077CC, symSize: 0x34 }
  - { offsetInCU: 0xFFF2, offset: 0x1DB42, size: 0x8, addend: 0x0, symName: __ZNSt3__114__split_bufferIPP6SectorRNS_9allocatorIS3_EEEC2EmmS6_, symObjAddr: 0x5EA0, symBinAddr: 0x100007800, symSize: 0xD4 }
  - { offsetInCU: 0x10066, offset: 0x1DBB6, size: 0x8, addend: 0x0, symName: __ZNSt3__117__compressed_pairIPPP6SectorRNS_9allocatorIS3_EEEC1B7v160006IDnS7_EEOT_OT0_, symObjAddr: 0x5F74, symBinAddr: 0x1000078D4, symSize: 0x3C }
  - { offsetInCU: 0x100BC, offset: 0x1DC0C, size: 0x8, addend: 0x0, symName: __ZNSt3__117__compressed_pairIPPP6SectorRNS_9allocatorIS3_EEEC2B7v160006IDnS7_EEOT_OT0_, symObjAddr: 0x5FF0, symBinAddr: 0x100007950, symSize: 0x48 }
  - { offsetInCU: 0x10112, offset: 0x1DC62, size: 0x8, addend: 0x0, symName: __ZNSt3__122__compressed_pair_elemIRNS_9allocatorIPP6SectorEELi1ELb0EEC2B7v160006IS6_vEEOT_, symObjAddr: 0x6038, symBinAddr: 0x100007998, symSize: 0x20 }
  - { offsetInCU: 0x10152, offset: 0x1DCA2, size: 0x8, addend: 0x0, symName: __ZNSt3__19allocatorIPP6SectorE8allocateB7v160006Em, symObjAddr: 0x6058, symBinAddr: 0x1000079B8, symSize: 0x58 }
  - { offsetInCU: 0x1018E, offset: 0x1DCDE, size: 0x8, addend: 0x0, symName: __ZNSt3__116allocator_traitsINS_9allocatorIPP6SectorEEE8max_sizeB7v160006IS5_vEEmRKS5_, symObjAddr: 0x60B0, symBinAddr: 0x100007A10, symSize: 0x24 }
  - { offsetInCU: 0x101BB, offset: 0x1DD0B, size: 0x8, addend: 0x0, symName: __ZNKSt3__19allocatorIPP6SectorE8max_sizeB7v160006Ev, symObjAddr: 0x60D4, symBinAddr: 0x100007A34, symSize: 0x14 }
  - { offsetInCU: 0x101DF, offset: 0x1DD2F, size: 0x8, addend: 0x0, symName: __ZNSt3__122__allocator_destructorINS_9allocatorIP6SectorEEEC2B7v160006ERS4_m, symObjAddr: 0x60E8, symBinAddr: 0x100007A48, symSize: 0x2C }
  - { offsetInCU: 0x10223, offset: 0x1DD73, size: 0x8, addend: 0x0, symName: __ZNSt3__110unique_ptrIPP6SectorNS_22__allocator_destructorINS_9allocatorIS2_EEEEEC2B7v160006ILb1EvEES3_NS_16__dependent_typeINS_27__unique_ptr_deleter_sfinaeIS7_EEXT_EE20__good_rval_ref_typeE, symObjAddr: 0x6114, symBinAddr: 0x100007A74, symSize: 0x48 }
  - { offsetInCU: 0x10272, offset: 0x1DDC2, size: 0x8, addend: 0x0, symName: __ZNSt3__117__compressed_pairIPP6SectorNS_22__allocator_destructorINS_9allocatorIS2_EEEEEC1B7v160006IRS3_S7_EEOT_OT0_, symObjAddr: 0x615C, symBinAddr: 0x100007ABC, symSize: 0x3C }
  - { offsetInCU: 0x102C8, offset: 0x1DE18, size: 0x8, addend: 0x0, symName: __ZNSt3__117__compressed_pairIPP6SectorNS_22__allocator_destructorINS_9allocatorIS2_EEEEEC2B7v160006IRS3_S7_EEOT_OT0_, symObjAddr: 0x6198, symBinAddr: 0x100007AF8, symSize: 0x48 }
  - { offsetInCU: 0x1031E, offset: 0x1DE6E, size: 0x8, addend: 0x0, symName: __ZNSt3__122__compressed_pair_elemIPP6SectorLi0ELb0EEC2B7v160006IRS3_vEEOT_, symObjAddr: 0x61E0, symBinAddr: 0x100007B40, symSize: 0x24 }
  - { offsetInCU: 0x1035E, offset: 0x1DEAE, size: 0x8, addend: 0x0, symName: __ZNSt3__122__compressed_pair_elemINS_22__allocator_destructorINS_9allocatorIP6SectorEEEELi1ELb0EEC2B7v160006IS6_vEEOT_, symObjAddr: 0x6204, symBinAddr: 0x100007B64, symSize: 0x24 }
  - { offsetInCU: 0x1039E, offset: 0x1DEEE, size: 0x8, addend: 0x0, symName: __ZNKSt3__117__compressed_pairIPP6SectorNS_22__allocator_destructorINS_9allocatorIS2_EEEEE5firstB7v160006Ev, symObjAddr: 0x6228, symBinAddr: 0x100007B88, symSize: 0x24 }
  - { offsetInCU: 0x103C2, offset: 0x1DF12, size: 0x8, addend: 0x0, symName: __ZNKSt3__122__compressed_pair_elemIPP6SectorLi0ELb0EE5__getB7v160006Ev, symObjAddr: 0x624C, symBinAddr: 0x100007BAC, symSize: 0x14 }
  - { offsetInCU: 0x103E6, offset: 0x1DF36, size: 0x8, addend: 0x0, symName: __ZNSt3__117__compressed_pairIPP6SectorNS_22__allocator_destructorINS_9allocatorIS2_EEEEE5firstB7v160006Ev, symObjAddr: 0x6260, symBinAddr: 0x100007BC0, symSize: 0x24 }
  - { offsetInCU: 0x1040A, offset: 0x1DF5A, size: 0x8, addend: 0x0, symName: __ZNSt3__122__compressed_pair_elemIPP6SectorLi0ELb0EE5__getB7v160006Ev, symObjAddr: 0x6284, symBinAddr: 0x100007BE4, symSize: 0x14 }
  - { offsetInCU: 0x1042E, offset: 0x1DF7E, size: 0x8, addend: 0x0, symName: __ZNSt3__117__compressed_pairIPPP6SectorNS_9allocatorIS3_EEE5firstB7v160006Ev, symObjAddr: 0x6298, symBinAddr: 0x100007BF8, symSize: 0x24 }
  - { offsetInCU: 0x10452, offset: 0x1DFA2, size: 0x8, addend: 0x0, symName: __ZNSt3__122__compressed_pair_elemIPPP6SectorLi0ELb0EE5__getB7v160006Ev, symObjAddr: 0x62BC, symBinAddr: 0x100007C1C, symSize: 0x14 }
  - { offsetInCU: 0x10476, offset: 0x1DFC6, size: 0x8, addend: 0x0, symName: __ZNSt3__117__compressed_pairIPPP6SectorRNS_9allocatorIS3_EEE5firstB7v160006Ev, symObjAddr: 0x62D0, symBinAddr: 0x100007C30, symSize: 0x24 }
  - { offsetInCU: 0x1049A, offset: 0x1DFEA, size: 0x8, addend: 0x0, symName: __ZNSt3__110unique_ptrIPP6SectorNS_22__allocator_destructorINS_9allocatorIS2_EEEEED2B7v160006Ev, symObjAddr: 0x62F4, symBinAddr: 0x100007C54, symSize: 0x30 }
  - { offsetInCU: 0x104C2, offset: 0x1E012, size: 0x8, addend: 0x0, symName: __ZNSt3__110unique_ptrIPP6SectorNS_22__allocator_destructorINS_9allocatorIS2_EEEEE5resetB7v160006ES3_, symObjAddr: 0x6324, symBinAddr: 0x100007C84, symSize: 0x78 }
  - { offsetInCU: 0x10505, offset: 0x1E055, size: 0x8, addend: 0x0, symName: __ZNSt3__117__compressed_pairIPP6SectorNS_22__allocator_destructorINS_9allocatorIS2_EEEEE6secondB7v160006Ev, symObjAddr: 0x639C, symBinAddr: 0x100007CFC, symSize: 0x28 }
  - { offsetInCU: 0x10529, offset: 0x1E079, size: 0x8, addend: 0x0, symName: __ZNSt3__122__allocator_destructorINS_9allocatorIP6SectorEEEclB7v160006EPS3_, symObjAddr: 0x63C4, symBinAddr: 0x100007D24, symSize: 0x34 }
  - { offsetInCU: 0x1055B, offset: 0x1E0AB, size: 0x8, addend: 0x0, symName: __ZNSt3__122__compressed_pair_elemINS_22__allocator_destructorINS_9allocatorIP6SectorEEEELi1ELb0EE5__getB7v160006Ev, symObjAddr: 0x63F8, symBinAddr: 0x100007D58, symSize: 0x14 }
  - { offsetInCU: 0x1057F, offset: 0x1E0CF, size: 0x8, addend: 0x0, symName: __ZNSt3__114__split_bufferIPP6SectorRNS_9allocatorIS3_EEED2Ev, symObjAddr: 0x640C, symBinAddr: 0x100007D6C, symSize: 0x8C }
  - { offsetInCU: 0x105AA, offset: 0x1E0FA, size: 0x8, addend: 0x0, symName: __ZNSt3__114__split_bufferIPP6SectorRNS_9allocatorIS3_EEE5clearB7v160006Ev, symObjAddr: 0x6498, symBinAddr: 0x100007DF8, symSize: 0x28 }
  - { offsetInCU: 0x105CE, offset: 0x1E11E, size: 0x8, addend: 0x0, symName: __ZNKSt3__114__split_bufferIPP6SectorRNS_9allocatorIS3_EEE8capacityB7v160006Ev, symObjAddr: 0x64C0, symBinAddr: 0x100007E20, symSize: 0x40 }
  - { offsetInCU: 0x105F2, offset: 0x1E142, size: 0x8, addend: 0x0, symName: __ZNSt3__114__split_bufferIPP6SectorRNS_9allocatorIS3_EEE17__destruct_at_endB7v160006EPS3_, symObjAddr: 0x6500, symBinAddr: 0x100007E60, symSize: 0x2C }
  - { offsetInCU: 0x10624, offset: 0x1E174, size: 0x8, addend: 0x0, symName: __ZNSt3__114__split_bufferIPP6SectorRNS_9allocatorIS3_EEE17__destruct_at_endB7v160006EPS3_NS_17integral_constantIbLb0EEE, symObjAddr: 0x652C, symBinAddr: 0x100007E8C, symSize: 0x80 }
  - { offsetInCU: 0x10662, offset: 0x1E1B2, size: 0x8, addend: 0x0, symName: __ZNKSt3__114__split_bufferIPP6SectorRNS_9allocatorIS3_EEE9__end_capB7v160006Ev, symObjAddr: 0x65AC, symBinAddr: 0x100007F0C, symSize: 0x28 }
  - { offsetInCU: 0x10686, offset: 0x1E1D6, size: 0x8, addend: 0x0, symName: __ZNKSt3__117__compressed_pairIPPP6SectorRNS_9allocatorIS3_EEE5firstB7v160006Ev, symObjAddr: 0x65D4, symBinAddr: 0x100007F34, symSize: 0x24 }
  - { offsetInCU: 0x106AA, offset: 0x1E1FA, size: 0x8, addend: 0x0, symName: __ZNSt3__19allocatorIP6SectorE9constructB7v160006IS2_JRKS2_EEEvPT_DpOT0_, symObjAddr: 0x65F8, symBinAddr: 0x100007F58, symSize: 0x28 }
  - { offsetInCU: 0x106FE, offset: 0x1E24E, size: 0x8, addend: 0x0, symName: __ZNKSt3__15dequeIP6SectorNS_9allocatorIS2_EEE5emptyB7v160006Ev, symObjAddr: 0x6620, symBinAddr: 0x100007F80, symSize: 0x30 }
  - { offsetInCU: 0x10722, offset: 0x1E272, size: 0x8, addend: 0x0, symName: __ZNSt3__15dequeIP6SectorNS_9allocatorIS2_EEE4backEv, symObjAddr: 0x6650, symBinAddr: 0x100007FB0, symSize: 0x68 }
  - { offsetInCU: 0x10758, offset: 0x1E2A8, size: 0x8, addend: 0x0, symName: __ZNSt3__15dequeIP6SectorNS_9allocatorIS2_EEE8pop_backEv, symObjAddr: 0x66B8, symBinAddr: 0x100008018, symSize: 0xB8 }
  - { offsetInCU: 0x1079E, offset: 0x1E2EE, size: 0x8, addend: 0x0, symName: __ZNSt3__15dequeIP6SectorNS_9allocatorIS2_EEE25__maybe_remove_back_spareB7v160006Eb, symObjAddr: 0x6784, symBinAddr: 0x1000080E4, symSize: 0xCC }
  - { offsetInCU: 0x107D1, offset: 0x1E321, size: 0x8, addend: 0x0, symName: __ZNKSt3__15dequeIP6SectorNS_9allocatorIS2_EEE19__back_spare_blocksB7v160006Ev, symObjAddr: 0x6850, symBinAddr: 0x1000081B0, symSize: 0x2C }
  - { offsetInCU: 0x107F5, offset: 0x1E345, size: 0x8, addend: 0x0, symName: __ZNSt3__114__split_bufferIPP6SectorNS_9allocatorIS3_EEE4backB7v160006Ev, symObjAddr: 0x687C, symBinAddr: 0x1000081DC, symSize: 0x1C }
  - { offsetInCU: 0x10819, offset: 0x1E369, size: 0x8, addend: 0x0, symName: __ZNSt3__114__split_bufferIPP6SectorNS_9allocatorIS3_EEE8pop_backB7v160006Ev, symObjAddr: 0x6898, symBinAddr: 0x1000081F8, symSize: 0x2C }
  - { offsetInCU: 0x1083D, offset: 0x1E38D, size: 0x8, addend: 0x0, symName: __ZNSt3__111char_traitsIcE7compareEPKcS3_m, symObjAddr: 0x68C4, symBinAddr: 0x100008224, symSize: 0x6C }
  - { offsetInCU: 0x1087B, offset: 0x1E3CB, size: 0x8, addend: 0x0, symName: __ZNSt3__16vectorIP6SectorNS_9allocatorIS2_EEEC2B7v160006Ev, symObjAddr: 0x6964, symBinAddr: 0x1000082C4, symSize: 0x58 }
  - { offsetInCU: 0x108A3, offset: 0x1E3F3, size: 0x8, addend: 0x0, symName: __ZNSt3__117__compressed_pairIPP6SectorNS_9allocatorIS2_EEEC1B7v160006IDnNS_18__default_init_tagEEEOT_OT0_, symObjAddr: 0x69BC, symBinAddr: 0x10000831C, symSize: 0x3C }
  - { offsetInCU: 0x108F9, offset: 0x1E449, size: 0x8, addend: 0x0, symName: __ZNSt3__117__compressed_pairIPP6SectorNS_9allocatorIS2_EEEC2B7v160006IDnNS_18__default_init_tagEEEOT_OT0_, symObjAddr: 0x6A08, symBinAddr: 0x100008368, symSize: 0x40 }
  - { offsetInCU: 0x1094F, offset: 0x1E49F, size: 0x8, addend: 0x0, symName: __ZNSt3__122__compressed_pair_elemIPP6SectorLi0ELb0EEC2B7v160006IDnvEEOT_, symObjAddr: 0x6A48, symBinAddr: 0x1000083A8, symSize: 0x1C }
  - { offsetInCU: 0x1098F, offset: 0x1E4DF, size: 0x8, addend: 0x0, symName: __ZNSt3__16vectorIP6SectorNS_9allocatorIS2_EEED2B7v160006Ev, symObjAddr: 0x6A64, symBinAddr: 0x1000083C4, symSize: 0x44 }
  - { offsetInCU: 0x109B7, offset: 0x1E507, size: 0x8, addend: 0x0, symName: __ZNSt3__16vectorIP6SectorNS_9allocatorIS2_EEE16__destroy_vectorC1ERS5_, symObjAddr: 0x6AA8, symBinAddr: 0x100008408, symSize: 0x34 }
  - { offsetInCU: 0x109EE, offset: 0x1E53E, size: 0x8, addend: 0x0, symName: __ZNSt3__16vectorIP6SectorNS_9allocatorIS2_EEE16__destroy_vectorclB7v160006Ev, symObjAddr: 0x6ADC, symBinAddr: 0x10000843C, symSize: 0x9C }
  - { offsetInCU: 0x10A12, offset: 0x1E562, size: 0x8, addend: 0x0, symName: __ZNSt3__16vectorIP6SectorNS_9allocatorIS2_EEE16__destroy_vectorC2ERS5_, symObjAddr: 0x6B78, symBinAddr: 0x1000084D8, symSize: 0x20 }
  - { offsetInCU: 0x10A49, offset: 0x1E599, size: 0x8, addend: 0x0, symName: __ZNKSt3__16vectorIP6SectorNS_9allocatorIS2_EEE17__annotate_deleteB7v160006Ev, symObjAddr: 0x6B98, symBinAddr: 0x1000084F8, symSize: 0xB8 }
  - { offsetInCU: 0x10A6D, offset: 0x1E5BD, size: 0x8, addend: 0x0, symName: __ZNSt3__16vectorIP6SectorNS_9allocatorIS2_EEE7__clearB7v160006Ev, symObjAddr: 0x6C60, symBinAddr: 0x1000085C0, symSize: 0x28 }
  - { offsetInCU: 0x10A91, offset: 0x1E5E1, size: 0x8, addend: 0x0, symName: __ZNSt3__16vectorIP6SectorNS_9allocatorIS2_EEE7__allocB7v160006Ev, symObjAddr: 0x6C88, symBinAddr: 0x1000085E8, symSize: 0x28 }
  - { offsetInCU: 0x10AB5, offset: 0x1E605, size: 0x8, addend: 0x0, symName: __ZNKSt3__16vectorIP6SectorNS_9allocatorIS2_EEE8capacityB7v160006Ev, symObjAddr: 0x6CB0, symBinAddr: 0x100008610, symSize: 0x40 }
  - { offsetInCU: 0x10AD9, offset: 0x1E629, size: 0x8, addend: 0x0, symName: __ZNKSt3__16vectorIP6SectorNS_9allocatorIS2_EEE31__annotate_contiguous_containerB7v160006EPKvS7_S7_S7_, symObjAddr: 0x6CF0, symBinAddr: 0x100008650, symSize: 0x20 }
  - { offsetInCU: 0x10B29, offset: 0x1E679, size: 0x8, addend: 0x0, symName: __ZNKSt3__16vectorIP6SectorNS_9allocatorIS2_EEE4dataB7v160006Ev, symObjAddr: 0x6D10, symBinAddr: 0x100008670, symSize: 0x28 }
  - { offsetInCU: 0x10B4D, offset: 0x1E69D, size: 0x8, addend: 0x0, symName: __ZNKSt3__16vectorIP6SectorNS_9allocatorIS2_EEE4sizeB7v160006Ev, symObjAddr: 0x6D38, symBinAddr: 0x100008698, symSize: 0x28 }
  - { offsetInCU: 0x10B71, offset: 0x1E6C1, size: 0x8, addend: 0x0, symName: __ZNSt3__16vectorIP6SectorNS_9allocatorIS2_EEE22__base_destruct_at_endB7v160006EPS2_, symObjAddr: 0x6D60, symBinAddr: 0x1000086C0, symSize: 0x8C }
  - { offsetInCU: 0x10BB4, offset: 0x1E704, size: 0x8, addend: 0x0, symName: __ZNSt3__117__compressed_pairIPP6SectorNS_9allocatorIS2_EEE6secondB7v160006Ev, symObjAddr: 0x6DEC, symBinAddr: 0x10000874C, symSize: 0x24 }
  - { offsetInCU: 0x10BD8, offset: 0x1E728, size: 0x8, addend: 0x0, symName: __ZNKSt3__16vectorIP6SectorNS_9allocatorIS2_EEE9__end_capB7v160006Ev, symObjAddr: 0x6E10, symBinAddr: 0x100008770, symSize: 0x28 }
  - { offsetInCU: 0x10BFC, offset: 0x1E74C, size: 0x8, addend: 0x0, symName: __ZNKSt3__117__compressed_pairIPP6SectorNS_9allocatorIS2_EEE5firstB7v160006Ev, symObjAddr: 0x6E38, symBinAddr: 0x100008798, symSize: 0x24 }
  - { offsetInCU: 0x55A9, offset: 0x23E4E, size: 0x8, addend: 0x0, symName: __ZN16SpaceSectorLLRBTC2Ev, symObjAddr: 0x0, symBinAddr: 0x1000087BC, symSize: 0x18 }
  - { offsetInCU: 0x55D3, offset: 0x23E78, size: 0x8, addend: 0x0, symName: __ZN16SpaceSectorLLRBTC1Ev, symObjAddr: 0x18, symBinAddr: 0x1000087D4, symSize: 0x2C }
  - { offsetInCU: 0x55FD, offset: 0x23EA2, size: 0x8, addend: 0x0, symName: __ZN16SpaceSectorLLRBT19readSectorsFromFileERKNSt3__112basic_stringIcNS0_11char_traitsIcEENS0_9allocatorIcEEEE, symObjAddr: 0x44, symBinAddr: 0x100008800, symSize: 0x14 }
  - { offsetInCU: 0x5631, offset: 0x23ED6, size: 0x8, addend: 0x0, symName: __ZN16SpaceSectorLLRBTD2Ev, symObjAddr: 0x58, symBinAddr: 0x100008814, symSize: 0x14 }
  - { offsetInCU: 0x565B, offset: 0x23F00, size: 0x8, addend: 0x0, symName: __ZN16SpaceSectorLLRBTD1Ev, symObjAddr: 0x6C, symBinAddr: 0x100008828, symSize: 0x2C }
  - { offsetInCU: 0x5685, offset: 0x23F2A, size: 0x8, addend: 0x0, symName: __ZN16SpaceSectorLLRBT25insertSectorByCoordinatesEiii, symObjAddr: 0x98, symBinAddr: 0x100008854, symSize: 0x1C }
  - { offsetInCU: 0x56D5, offset: 0x23F7A, size: 0x8, addend: 0x0, symName: __ZN16SpaceSectorLLRBT21displaySectorsInOrderEv, symObjAddr: 0xB4, symBinAddr: 0x100008870, symSize: 0x10 }
  - { offsetInCU: 0x56FB, offset: 0x23FA0, size: 0x8, addend: 0x0, symName: __ZN16SpaceSectorLLRBT22displaySectorsPreOrderEv, symObjAddr: 0xC4, symBinAddr: 0x100008880, symSize: 0x10 }
  - { offsetInCU: 0x5721, offset: 0x23FC6, size: 0x8, addend: 0x0, symName: __ZN16SpaceSectorLLRBT23displaySectorsPostOrderEv, symObjAddr: 0xD4, symBinAddr: 0x100008890, symSize: 0x10 }
  - { offsetInCU: 0x5747, offset: 0x23FEC, size: 0x8, addend: 0x0, symName: __ZN16SpaceSectorLLRBT14getStellarPathERKNSt3__112basic_stringIcNS0_11char_traitsIcEENS0_9allocatorIcEEEE, symObjAddr: 0xE4, symBinAddr: 0x1000088A0, symSize: 0x78 }
  - { offsetInCU: 0x578A, offset: 0x2402F, size: 0x8, addend: 0x0, symName: __ZN16SpaceSectorLLRBT16printStellarPathERKNSt3__16vectorIP6SectorNS0_9allocatorIS3_EEEE, symObjAddr: 0x1B4, symBinAddr: 0x100008918, symSize: 0x14 }
  - { offsetInCU: 0x52, offset: 0x240BA, size: 0x8, addend: 0x0, symName: _whitespaces, symObjAddr: 0x4DCB0, symBinAddr: 0x10005C000, symSize: 0x0 }
  - { offsetInCU: 0x6D, offset: 0x240D5, size: 0x8, addend: 0x0, symName: _TESTS_PATH, symObjAddr: 0x2284B8, symBinAddr: 0x10005C008, symSize: 0x0 }
  - { offsetInCU: 0xAB9F, offset: 0x2EC07, size: 0x8, addend: 0x0, symName: __ZNSt3__110__function10__not_nullB7v160006INS_6__bindIM14SpaceSectorBSTFvvEJPS3_EEEEEbRKT_, symObjAddr: 0x43D70, symBinAddr: 0x100049968, symSize: 0x18 }
  - { offsetInCU: 0xABD0, offset: 0x2EC38, size: 0x8, addend: 0x0, symName: '__ZNSt3__110__function10__not_nullB7v160006IZ11test_outputvE3$_0EEbRKT_', symObjAddr: 0x46150, symBinAddr: 0x10004BD48, symSize: 0x18 }
  - { offsetInCU: 0xD909, offset: 0x31971, size: 0x8, addend: 0x0, symName: __ZNSt3__1L19piecewise_constructE, symObjAddr: 0x4D626, symBinAddr: 0x100050DDE, symSize: 0x0 }
  - { offsetInCU: 0x130CA, offset: 0x37132, size: 0x8, addend: 0x0, symName: __ZNSt3__17advanceB7v160006INS_20__map_const_iteratorINS_21__tree_const_iteratorINS_12__value_typeINS_12basic_stringIcNS_11char_traitsIcEENS_9allocatorIcEEEEN8nlohmann16json_abi_v3_11_310basic_jsonINS_3mapENS_6vectorES9_bxydS7_NSB_14adl_serializerENSE_IhNS7_IhEEEEvEEEEPNS_11__tree_nodeISJ_PvEElEEEEllvEEvRT_T0_, symObjAddr: 0x1F70C, symBinAddr: 0x100026218, symSize: 0x50 }
  - { offsetInCU: 0x14498, offset: 0x38500, size: 0x8, addend: 0x0, symName: __ZNSt3__17advanceB7v160006INS_11__wrap_iterIPKcEEiivEEvRT_T0_, symObjAddr: 0x26078, symBinAddr: 0x10002CB84, symSize: 0x58 }
  - { offsetInCU: 0x15A0D, offset: 0x39A75, size: 0x8, addend: 0x0, symName: __ZNSt3__114__copy_alignedB7v160006INS_6vectorIbNS_9allocatorIbEEEELb0EEENS_14__bit_iteratorIT_Lb0EXLi0EEEENS5_IS6_XT0_EXLi0EEEES8_S7_, symObjAddr: 0x2CDA8, symBinAddr: 0x1000338B4, symSize: 0x278 }
  - { offsetInCU: 0x15B47, offset: 0x39BAF, size: 0x8, addend: 0x0, symName: __ZNSt3__16copy_nB7v160006IPmmS1_EENS_9enable_ifIXsr33__is_cpp17_random_access_iteratorIT_EE5valueET1_E4typeES3_T0_S4_, symObjAddr: 0x2D58C, symBinAddr: 0x100034098, symSize: 0x44 }
  - { offsetInCU: 0x15BEE, offset: 0x39C56, size: 0x8, addend: 0x0, symName: __ZNSt3__116__copy_unalignedB7v160006INS_6vectorIbNS_9allocatorIbEEEELb0EEENS_14__bit_iteratorIT_Lb0EXLi0EEEENS5_IS6_XT0_EXLi0EEEES8_S7_, symObjAddr: 0x2D020, symBinAddr: 0x100033B2C, symSize: 0x540 }
  - { offsetInCU: 0x17641, offset: 0x3B6A9, size: 0x8, addend: 0x0, symName: __ZNSt3__17advanceB7v160006INS_21__tree_const_iteratorINS_12__value_typeINS_12basic_stringIcNS_11char_traitsIcEENS_9allocatorIcEEEEN8nlohmann16json_abi_v3_11_310basic_jsonINS_3mapENS_6vectorES8_bxydS6_NSA_14adl_serializerENSD_IhNS6_IhEEEEvEEEEPNS_11__tree_nodeISI_PvEElEEllvEEvRT_T0_, symObjAddr: 0x32E18, symBinAddr: 0x100039924, symSize: 0x50 }
  - { offsetInCU: 0x1947E, offset: 0x3D4E6, size: 0x8, addend: 0x0, symName: __ZNSt3__17advanceB7v160006INS_14__map_iteratorINS_15__tree_iteratorINS_12__value_typeINS_12basic_stringIcNS_11char_traitsIcEENS_9allocatorIcEEEEN8nlohmann16json_abi_v3_11_310basic_jsonINS_3mapENS_6vectorES9_bxydS7_NSB_14adl_serializerENSE_IhNS7_IhEEEEvEEEEPNS_11__tree_nodeISJ_PvEElEEEEiivEEvRT_T0_, symObjAddr: 0x3D71C, symBinAddr: 0x100043BFC, symSize: 0x58 }
  - { offsetInCU: 0x19511, offset: 0x3D579, size: 0x8, addend: 0x0, symName: __ZNSt3__17advanceB7v160006INS_11__wrap_iterIPN8nlohmann16json_abi_v3_11_310basic_jsonINS_3mapENS_6vectorENS_12basic_stringIcNS_11char_traitsIcEENS_9allocatorIcEEEEbxydSA_NS3_14adl_serializerENS6_IhNSA_IhEEEEvEEEEiivEEvRT_T0_, symObjAddr: 0x3D774, symBinAddr: 0x100043C54, symSize: 0x58 }
  - { offsetInCU: 0x19E8B, offset: 0x3DEF3, size: 0x8, addend: 0x0, symName: __ZNSt3__16copy_nB7v160006IPKcmPcEENS_9enable_ifIXsr33__is_cpp17_random_access_iteratorIT_EE5valueET1_E4typeES5_T0_S6_, symObjAddr: 0x42494, symBinAddr: 0x10004808C, symSize: 0x44 }
  - { offsetInCU: 0x1D35A, offset: 0x413C2, size: 0x8, addend: 0x0, symName: __ZNSt3__1neB7v160006IPKdEEbRKNS_11__wrap_iterIT_EES7_, symObjAddr: 0xCC0, symBinAddr: 0x1000095EC, symSize: 0x34 }
  - { offsetInCU: 0x1D39D, offset: 0x41405, size: 0x8, addend: 0x0, symName: __ZNSt3__1neB7v160006IPK5PointEEbRKNS_11__wrap_iterIT_EES8_, symObjAddr: 0x1080, symBinAddr: 0x1000099AC, symSize: 0x34 }
  - { offsetInCU: 0x1D3E0, offset: 0x41448, size: 0x8, addend: 0x0, symName: __ZNSt3__1neB7v160006IPKP6SectorEEbRKNS_11__wrap_iterIT_EES9_, symObjAddr: 0x1728, symBinAddr: 0x10000A054, symSize: 0x34 }
  - { offsetInCU: 0x1D6D2, offset: 0x4173A, size: 0x8, addend: 0x0, symName: __ZNSt3__1lsB7v160006IcNS_11char_traitsIcEEEERNS_13basic_ostreamIT_T0_EES7_RKNS_8__iom_t5E, symObjAddr: 0x4F90, symBinAddr: 0x10000D4CC, symSize: 0x40 }
  - { offsetInCU: 0x1D71E, offset: 0x41786, size: 0x8, addend: 0x0, symName: __ZNSt3__15fixedB7v160006ERNS_8ios_baseE, symObjAddr: 0x5010, symBinAddr: 0x10000D54C, symSize: 0x30 }
  - { offsetInCU: 0x1D74C, offset: 0x417B4, size: 0x8, addend: 0x0, symName: __ZNSt3__112setprecisionB7v160006Ei, symObjAddr: 0x5040, symBinAddr: 0x10000D57C, symSize: 0x2C }
  - { offsetInCU: 0x1D778, offset: 0x417E0, size: 0x8, addend: 0x0, symName: __ZNSt3__1plB7v160006IcNS_11char_traitsIcEENS_9allocatorIcEEEENS_12basic_stringIT_T0_T1_EEOS9_PKS6_, symObjAddr: 0x591C, symBinAddr: 0x10000DDF0, symSize: 0x40 }
  - { offsetInCU: 0x1D7D0, offset: 0x41838, size: 0x8, addend: 0x0, symName: __ZNSt3__1plB7v160006IcNS_11char_traitsIcEENS_9allocatorIcEEEENS_12basic_stringIT_T0_T1_EEOS9_SA_, symObjAddr: 0x595C, symBinAddr: 0x10000DE30, symSize: 0x40 }
  - { offsetInCU: 0x1D828, offset: 0x41890, size: 0x8, addend: 0x0, symName: __ZNSt3__1plB7v160006IcNS_11char_traitsIcEENS_9allocatorIcEEEENS_12basic_stringIT_T0_T1_EERKS9_PKS6_, symObjAddr: 0x599C, symBinAddr: 0x10000DE70, symSize: 0x11C }
  - { offsetInCU: 0x1DB84, offset: 0x41BEC, size: 0x8, addend: 0x0, symName: __ZNSt3__14bindB7v160006IM14SpaceSectorBSTFvvEJPS1_EEENS_6__bindIT_JDpT0_EEEOS6_DpOS7_, symObjAddr: 0x734C, symBinAddr: 0x10000F68C, symSize: 0x38 }
  - { offsetInCU: 0x1DBD5, offset: 0x41C3D, size: 0x8, addend: 0x0, symName: __ZNSt3__1eqB7v160006IPKdEEbRKNS_11__wrap_iterIT_EES7_, symObjAddr: 0x9CB4, symBinAddr: 0x100011FCC, symSize: 0x48 }
  - { offsetInCU: 0x1DC18, offset: 0x41C80, size: 0x8, addend: 0x0, symName: __ZNSt3__1eqB7v160006IPK5PointEEbRKNS_11__wrap_iterIT_EES8_, symObjAddr: 0x9D14, symBinAddr: 0x10001202C, symSize: 0x48 }
  - { offsetInCU: 0x1DC5B, offset: 0x41CC3, size: 0x8, addend: 0x0, symName: __ZNSt3__1eqB7v160006IPKP6SectorEEbRKNS_11__wrap_iterIT_EES9_, symObjAddr: 0x9D74, symBinAddr: 0x10001208C, symSize: 0x48 }
  - { offsetInCU: 0x1DC9E, offset: 0x41D06, size: 0x8, addend: 0x0, symName: __ZNSt3__122__make_exception_guardB7v160006INS_6vectorIdNS_9allocatorIdEEE16__destroy_vectorEEENS_28__exception_guard_exceptionsIT_EES7_, symObjAddr: 0xA000, symBinAddr: 0x100012318, symSize: 0x40 }
  - { offsetInCU: 0x1DCD4, offset: 0x41D3C, size: 0x8, addend: 0x0, symName: __ZNSt3__119__debug_db_insert_cB7v160006INS_6vectorIdNS_9allocatorIdEEEEEEvPT_, symObjAddr: 0xA074, symBinAddr: 0x10001238C, symSize: 0x10 }
  - { offsetInCU: 0x1DD04, offset: 0x41D6C, size: 0x8, addend: 0x0, symName: __ZNSt3__119__allocate_at_leastB7v160006INS_9allocatorIdEEEENS_19__allocation_resultINS_16allocator_traitsIT_E7pointerEEERS5_m, symObjAddr: 0xA3D0, symBinAddr: 0x1000126E8, symSize: 0x40 }
  - { offsetInCU: 0x1DD47, offset: 0x41DAF, size: 0x8, addend: 0x0, symName: __ZNSt3__13minB7v160006ImEERKT_S3_S3_, symObjAddr: 0xA50C, symBinAddr: 0x100012824, symSize: 0x2C }
  - { offsetInCU: 0x1DF95, offset: 0x41FFD, size: 0x8, addend: 0x0, symName: __ZNSt3__13minB7v160006ImNS_6__lessImmEEEERKT_S5_S5_T0_, symObjAddr: 0xA57C, symBinAddr: 0x100012888, symSize: 0x54 }
  - { offsetInCU: 0x1DFF0, offset: 0x42058, size: 0x8, addend: 0x0, symName: __ZNSt3__120__throw_length_errorB7v160006EPKc, symObjAddr: 0xA620, symBinAddr: 0x1000128F8, symSize: 0x64 }
  - { offsetInCU: 0x1E018, offset: 0x42080, size: 0x8, addend: 0x0, symName: __ZNSt3__112__to_addressB7v160006IdEEPT_S2_, symObjAddr: 0xA8D4, symBinAddr: 0x100012B2C, symSize: 0x14 }
  - { offsetInCU: 0x1E04D, offset: 0x420B5, size: 0x8, addend: 0x0, symName: __ZNSt3__130__uninitialized_allocator_copyB7v160006INS_9allocatorIdEEPdS3_S3_EET2_RT_T0_T1_S4_, symObjAddr: 0xA984, symBinAddr: 0x100012BDC, symSize: 0xF4 }
  - { offsetInCU: 0x1E0ED, offset: 0x42155, size: 0x8, addend: 0x0, symName: __ZNSt3__122__make_exception_guardB7v160006INS_29_AllocatorDestroyRangeReverseINS_9allocatorIdEEPdEEEENS_28__exception_guard_exceptionsIT_EES7_, symObjAddr: 0xAAE8, symBinAddr: 0x100012D40, symSize: 0x4C }
  - { offsetInCU: 0x1E124, offset: 0x4218C, size: 0x8, addend: 0x0, symName: __ZNSt3__119__allocator_destroyB7v160006INS_9allocatorIdEENS_16reverse_iteratorIPdEES5_EEvRT_T0_T1_, symObjAddr: 0xAD70, symBinAddr: 0x100012FC8, symSize: 0x70 }
  - { offsetInCU: 0x1E186, offset: 0x421EE, size: 0x8, addend: 0x0, symName: __ZNSt3__1neB7v160006IPdS1_EEbRKNS_16reverse_iteratorIT_EERKNS2_IT0_EE, symObjAddr: 0xAE14, symBinAddr: 0x10001306C, symSize: 0x48 }
  - { offsetInCU: 0x1E1D2, offset: 0x4223A, size: 0x8, addend: 0x0, symName: __ZNSt3__112__to_addressB7v160006INS_16reverse_iteratorIPdEEvEENS_5decayIDTclsr19__to_address_helperIT_EE6__callclsr3stdE7declvalIRKS5_EEEEE4typeES7_, symObjAddr: 0xAE88, symBinAddr: 0x1000130E0, symSize: 0x24 }
  - { offsetInCU: 0x1E233, offset: 0x4229B, size: 0x8, addend: 0x0, symName: __ZNSt3__118__debug_db_erase_cB7v160006INS_6vectorIdNS_9allocatorIdEEEEEEvPT_, symObjAddr: 0xB168, symBinAddr: 0x1000133C0, symSize: 0x10 }
  - { offsetInCU: 0x1E264, offset: 0x422CC, size: 0x8, addend: 0x0, symName: __ZNSt3__119__debug_db_insert_cB7v160006INS_6vectorI5PointNS_9allocatorIS2_EEEEEEvPT_, symObjAddr: 0xB414, symBinAddr: 0x1000135F0, symSize: 0x10 }
  - { offsetInCU: 0x1E295, offset: 0x422FD, size: 0x8, addend: 0x0, symName: __ZNSt3__118__debug_db_erase_cB7v160006INS_6vectorI5PointNS_9allocatorIS2_EEEEEEvPT_, symObjAddr: 0xB790, symBinAddr: 0x10001396C, symSize: 0x10 }
  - { offsetInCU: 0x1E2C5, offset: 0x4232D, size: 0x8, addend: 0x0, symName: __ZNSt3__112__to_addressB7v160006I5PointEEPT_S3_, symObjAddr: 0xB8D4, symBinAddr: 0x100013AB0, symSize: 0x14 }
  - { offsetInCU: 0x1E2FA, offset: 0x42362, size: 0x8, addend: 0x0, symName: __ZNSt3__122__make_exception_guardB7v160006INS_6vectorI5PointNS_9allocatorIS2_EEE16__destroy_vectorEEENS_28__exception_guard_exceptionsIT_EES8_, symObjAddr: 0xBD0C, symBinAddr: 0x100013EE8, symSize: 0x40 }
  - { offsetInCU: 0x1E32F, offset: 0x42397, size: 0x8, addend: 0x0, symName: __ZNSt3__119__allocate_at_leastB7v160006INS_9allocatorI5PointEEEENS_19__allocation_resultINS_16allocator_traitsIT_E7pointerEEERS6_m, symObjAddr: 0xC03C, symBinAddr: 0x100014218, symSize: 0x40 }
  - { offsetInCU: 0x1E372, offset: 0x423DA, size: 0x8, addend: 0x0, symName: __ZNSt3__130__uninitialized_allocator_copyB7v160006INS_9allocatorI5PointEEPS2_S4_S4_EET2_RT_T0_T1_S5_, symObjAddr: 0xC278, symBinAddr: 0x100014454, symSize: 0xF4 }
  - { offsetInCU: 0x1E412, offset: 0x4247A, size: 0x8, addend: 0x0, symName: __ZNSt3__122__make_exception_guardB7v160006INS_29_AllocatorDestroyRangeReverseINS_9allocatorI5PointEEPS3_EEEENS_28__exception_guard_exceptionsIT_EES8_, symObjAddr: 0xC3E4, symBinAddr: 0x1000145C0, symSize: 0x4C }
  - { offsetInCU: 0x1E449, offset: 0x424B1, size: 0x8, addend: 0x0, symName: __ZNSt3__119__allocator_destroyB7v160006INS_9allocatorI5PointEENS_16reverse_iteratorIPS2_EES6_EEvRT_T0_T1_, symObjAddr: 0xC718, symBinAddr: 0x1000148F4, symSize: 0x70 }
  - { offsetInCU: 0x1E4AB, offset: 0x42513, size: 0x8, addend: 0x0, symName: __ZNSt3__1neB7v160006IP5PointS2_EEbRKNS_16reverse_iteratorIT_EERKNS3_IT0_EE, symObjAddr: 0xC7BC, symBinAddr: 0x100014998, symSize: 0x48 }
  - { offsetInCU: 0x1E4F7, offset: 0x4255F, size: 0x8, addend: 0x0, symName: __ZNSt3__112__to_addressB7v160006INS_16reverse_iteratorIP5PointEEvEENS_5decayIDTclsr19__to_address_helperIT_EE6__callclsr3stdE7declvalIRKS6_EEEEE4typeES8_, symObjAddr: 0xC804, symBinAddr: 0x1000149E0, symSize: 0x24 }
  - { offsetInCU: 0x1E557, offset: 0x425BF, size: 0x8, addend: 0x0, symName: __ZNSt3__122__make_exception_guardB7v160006INS_6vectorINS_12basic_stringIcNS_11char_traitsIcEENS_9allocatorIcEEEENS5_IS7_EEE16__destroy_vectorEEENS_28__exception_guard_exceptionsIT_EESC_, symObjAddr: 0xCB04, symBinAddr: 0x100014CE0, symSize: 0x40 }
  - { offsetInCU: 0x1E58D, offset: 0x425F5, size: 0x8, addend: 0x0, symName: __ZNSt3__119__debug_db_insert_cB7v160006INS_6vectorINS_12basic_stringIcNS_11char_traitsIcEENS_9allocatorIcEEEENS5_IS7_EEEEEEvPT_, symObjAddr: 0xCB78, symBinAddr: 0x100014D54, symSize: 0x10 }
  - { offsetInCU: 0x1E5BD, offset: 0x42625, size: 0x8, addend: 0x0, symName: __ZNSt3__119__allocate_at_leastB7v160006INS_9allocatorINS_12basic_stringIcNS_11char_traitsIcEENS1_IcEEEEEEEENS_19__allocation_resultINS_16allocator_traitsIT_E7pointerEEERSA_m, symObjAddr: 0xCEB4, symBinAddr: 0x100015090, symSize: 0x40 }
  - { offsetInCU: 0x1E600, offset: 0x42668, size: 0x8, addend: 0x0, symName: __ZNSt3__112__to_addressB7v160006INS_12basic_stringIcNS_11char_traitsIcEENS_9allocatorIcEEEEEEPT_S8_, symObjAddr: 0xD19C, symBinAddr: 0x100015378, symSize: 0x14 }
  - { offsetInCU: 0x1E635, offset: 0x4269D, size: 0x8, addend: 0x0, symName: __ZNSt3__130__uninitialized_allocator_copyB7v160006INS_9allocatorINS_12basic_stringIcNS_11char_traitsIcEENS1_IcEEEEEEPS6_S8_S8_EET2_RT_T0_T1_S9_, symObjAddr: 0xD24C, symBinAddr: 0x100015428, symSize: 0xF4 }
  - { offsetInCU: 0x1E6D5, offset: 0x4273D, size: 0x8, addend: 0x0, symName: __ZNSt3__122__make_exception_guardB7v160006INS_29_AllocatorDestroyRangeReverseINS_9allocatorINS_12basic_stringIcNS_11char_traitsIcEENS2_IcEEEEEEPS7_EEEENS_28__exception_guard_exceptionsIT_EESC_, symObjAddr: 0xD3B8, symBinAddr: 0x100015594, symSize: 0x4C }
  - { offsetInCU: 0x1E70C, offset: 0x42774, size: 0x8, addend: 0x0, symName: __ZNSt3__119__allocator_destroyB7v160006INS_9allocatorINS_12basic_stringIcNS_11char_traitsIcEENS1_IcEEEEEENS_16reverse_iteratorIPS6_EESA_EEvRT_T0_T1_, symObjAddr: 0xD648, symBinAddr: 0x100015824, symSize: 0x70 }
  - { offsetInCU: 0x1E76E, offset: 0x427D6, size: 0x8, addend: 0x0, symName: __ZNSt3__1neB7v160006IPNS_12basic_stringIcNS_11char_traitsIcEENS_9allocatorIcEEEES7_EEbRKNS_16reverse_iteratorIT_EERKNS8_IT0_EE, symObjAddr: 0xD6EC, symBinAddr: 0x1000158C8, symSize: 0x48 }
  - { offsetInCU: 0x1E7BA, offset: 0x42822, size: 0x8, addend: 0x0, symName: __ZNSt3__112__to_addressB7v160006INS_16reverse_iteratorIPNS_12basic_stringIcNS_11char_traitsIcEENS_9allocatorIcEEEEEEvEENS_5decayIDTclsr19__to_address_helperIT_EE6__callclsr3stdE7declvalIRKSB_EEEEE4typeESD_, symObjAddr: 0xD760, symBinAddr: 0x10001593C, symSize: 0x24 }
  - { offsetInCU: 0x1E81B, offset: 0x42883, size: 0x8, addend: 0x0, symName: __ZNSt3__118__debug_db_erase_cB7v160006INS_6vectorINS_12basic_stringIcNS_11char_traitsIcEENS_9allocatorIcEEEENS5_IS7_EEEEEEvPT_, symObjAddr: 0xDA70, symBinAddr: 0x100015C4C, symSize: 0x10 }
  - { offsetInCU: 0x1E84B, offset: 0x428B3, size: 0x8, addend: 0x0, symName: __ZNSt3__123__str_find_first_not_ofB7v160006IcmNS_11char_traitsIcEELm18446744073709551615EEET0_PKT_S3_S6_S3_S3_, symObjAddr: 0xE1E8, symBinAddr: 0x100016214, symSize: 0xDC }
  - { offsetInCU: 0x1E921, offset: 0x42989, size: 0x8, addend: 0x0, symName: __ZNSt3__123__constexpr_char_memchrB7v160006EPKcim, symObjAddr: 0xE3E4, symBinAddr: 0x100016360, symSize: 0x34 }
  - { offsetInCU: 0x1E969, offset: 0x429D1, size: 0x8, addend: 0x0, symName: __ZNSt3__122__str_find_last_not_ofB7v160006IcmNS_11char_traitsIcEELm18446744073709551615EEET0_PKT_S3_S6_S3_S3_, symObjAddr: 0xE648, symBinAddr: 0x100016408, symSize: 0xDC }
  - { offsetInCU: 0x1EA20, offset: 0x42A88, size: 0x8, addend: 0x0, symName: __ZNSt3__12wsB7v160006IcNS_11char_traitsIcEEEERNS_13basic_istreamIT_T0_EES7_, symObjAddr: 0xEBF4, symBinAddr: 0x10001677C, symSize: 0x238 }
  - { offsetInCU: 0x1EAAC, offset: 0x42B14, size: 0x8, addend: 0x0, symName: __ZNSt3__110__str_findB7v160006IcmNS_11char_traitsIcEELm18446744073709551615EEET0_PKT_S3_S6_S3_S3_, symObjAddr: 0xEF9C, symBinAddr: 0x100016A80, symSize: 0xE4 }
  - { offsetInCU: 0x1EB54, offset: 0x42BBC, size: 0x8, addend: 0x0, symName: __ZNSt3__118__search_substringB7v160006IcNS_11char_traitsIcEEEEPKT_S5_S5_S5_S5_, symObjAddr: 0xF080, symBinAddr: 0x100016B64, symSize: 0x154 }
  - { offsetInCU: 0x1EBF1, offset: 0x42C59, size: 0x8, addend: 0x0, symName: __ZNSt3__142__uninitialized_allocator_move_if_noexceptB7v160006INS_9allocatorI5PointEENS_16reverse_iteratorIPS2_EES6_S6_EET2_RT_T0_T1_S7_, symObjAddr: 0x103D8, symBinAddr: 0x1000174B4, symSize: 0x11C }
  - { offsetInCU: 0x1EC93, offset: 0x42CFB, size: 0x8, addend: 0x0, symName: __ZNSt3__14swapB7v160006IP5PointEENS_9enable_ifIXaasr21is_move_constructibleIT_EE5valuesr18is_move_assignableIS4_EE5valueEvE4typeERS4_S7_, symObjAddr: 0x104F4, symBinAddr: 0x1000175D0, symSize: 0x3C }
  - { offsetInCU: 0x1ECE5, offset: 0x42D4D, size: 0x8, addend: 0x0, symName: __ZNSt3__125__debug_db_invalidate_allB7v160006INS_6vectorI5PointNS_9allocatorIS2_EEEEEEvPT_, symObjAddr: 0x10530, symBinAddr: 0x10001760C, symSize: 0x10 }
  - { offsetInCU: 0x1ED15, offset: 0x42D7D, size: 0x8, addend: 0x0, symName: __ZNSt3__122__make_exception_guardB7v160006INS_29_AllocatorDestroyRangeReverseINS_9allocatorI5PointEENS_16reverse_iteratorIPS3_EEEEEENS_28__exception_guard_exceptionsIT_EESA_, symObjAddr: 0x10540, symBinAddr: 0x10001761C, symSize: 0x4C }
  - { offsetInCU: 0x1ED4C, offset: 0x42DB4, size: 0x8, addend: 0x0, symName: __ZNSt3__115__debug_db_swapB7v160006INS_6vectorIdNS_9allocatorIdEEEEEEvPT_S6_, symObjAddr: 0x108D8, symBinAddr: 0x100017980, symSize: 0x14 }
  - { offsetInCU: 0x1ED8B, offset: 0x42DF3, size: 0x8, addend: 0x0, symName: __ZNSt3__119__allocator_destroyB7v160006INS_9allocatorI5PointEENS_16reverse_iteratorINS4_IPS2_EEEES7_EEvRT_T0_T1_, symObjAddr: 0x10A84, symBinAddr: 0x100017A98, symSize: 0x70 }
  - { offsetInCU: 0x1EDEF, offset: 0x42E57, size: 0x8, addend: 0x0, symName: __ZNSt3__1neB7v160006INS_16reverse_iteratorIP5PointEES4_EEbRKNS1_IT_EERKNS1_IT0_EE, symObjAddr: 0x10B30, symBinAddr: 0x100017B44, symSize: 0x60 }
  - { offsetInCU: 0x1EE3B, offset: 0x42EA3, size: 0x8, addend: 0x0, symName: __ZNSt3__112__to_addressB7v160006INS_16reverse_iteratorINS1_IP5PointEEEEvEENS_5decayIDTclsr19__to_address_helperIT_EE6__callclsr3stdE7declvalIRKS7_EEEEE4typeES9_, symObjAddr: 0x10B90, symBinAddr: 0x100017BA4, symSize: 0x24 }
  - { offsetInCU: 0x1EE9B, offset: 0x42F03, size: 0x8, addend: 0x0, symName: __ZNSt3__14moveB7v160006INS_11__wrap_iterIPN8nlohmann16json_abi_v3_11_310basic_jsonINS_3mapENS_6vectorENS_12basic_stringIcNS_11char_traitsIcEENS_9allocatorIcEEEEbxydSA_NS3_14adl_serializerENS6_IhNSA_IhEEEEvEEEENS_20back_insert_iteratorINS6_ISG_NSA_ISG_EEEEEEEET0_T_SO_SN_, symObjAddr: 0x11D24, symBinAddr: 0x10001897C, symSize: 0x60 }
  - { offsetInCU: 0x1EEF5, offset: 0x42F5D, size: 0x8, addend: 0x0, symName: __ZNSt3__113back_inserterB7v160006INS_6vectorIN8nlohmann16json_abi_v3_11_310basic_jsonINS_3mapES1_NS_12basic_stringIcNS_11char_traitsIcEENS_9allocatorIcEEEEbxydS9_NS3_14adl_serializerENS1_IhNS9_IhEEEEvEENS9_ISF_EEEEEENS_20back_insert_iteratorIT_EERSJ_, symObjAddr: 0x11DE4, symBinAddr: 0x100018A3C, symSize: 0x2C }
  - { offsetInCU: 0x1EF2A, offset: 0x42F92, size: 0x8, addend: 0x0, symName: __ZNSt3__1neB7v160006ERKNS_14__map_iteratorINS_15__tree_iteratorINS_12__value_typeINS_12basic_stringIcNS_11char_traitsIcEENS_9allocatorIcEEEEN8nlohmann16json_abi_v3_11_310basic_jsonINS_3mapENS_6vectorES8_bxydS6_NSA_14adl_serializerENSD_IhNS6_IhEEEEvEEEEPNS_11__tree_nodeISI_PvEElEEEESQ_, symObjAddr: 0x11EA8, symBinAddr: 0x100018B00, symSize: 0x30 }
  - { offsetInCU: 0x1F745, offset: 0x437AD, size: 0x8, addend: 0x0, symName: __ZNSt3__119__debug_db_insert_cB7v160006INS_6vectorIN8nlohmann16json_abi_v3_11_310basic_jsonINS_3mapES1_NS_12basic_stringIcNS_11char_traitsIcEENS_9allocatorIcEEEEbxydS9_NS3_14adl_serializerENS1_IhNS9_IhEEEEvEENS9_ISF_EEEEEEvPT_, symObjAddr: 0x12384, symBinAddr: 0x100018FDC, symSize: 0x10 }
  - { offsetInCU: 0x1F775, offset: 0x437DD, size: 0x8, addend: 0x0, symName: __ZNSt3__119__allocate_at_leastB7v160006INS_9allocatorIN8nlohmann16json_abi_v3_11_310basic_jsonINS_3mapENS_6vectorENS_12basic_stringIcNS_11char_traitsIcEENS1_IcEEEEbxydS1_NS3_14adl_serializerENS6_IhNS1_IhEEEEvEEEEEENS_19__allocation_resultINS_16allocator_traitsIT_E7pointerEEERSJ_m, symObjAddr: 0x12908, symBinAddr: 0x100019560, symSize: 0x40 }
  - { offsetInCU: 0x1F7B8, offset: 0x43820, size: 0x8, addend: 0x0, symName: __ZNSt3__142__uninitialized_allocator_move_if_noexceptB7v160006INS_9allocatorIN8nlohmann16json_abi_v3_11_310basic_jsonINS_3mapENS_6vectorENS_12basic_stringIcNS_11char_traitsIcEENS1_IcEEEEbxydS1_NS3_14adl_serializerENS6_IhNS1_IhEEEEvEEEENS_16reverse_iteratorIPSF_EESJ_SJ_EET2_RT_T0_T1_SK_, symObjAddr: 0x12B88, symBinAddr: 0x1000197E0, symSize: 0x12C }
  - { offsetInCU: 0x1F85A, offset: 0x438C2, size: 0x8, addend: 0x0, symName: __ZNSt3__14swapB7v160006IPN8nlohmann16json_abi_v3_11_310basic_jsonINS_3mapENS_6vectorENS_12basic_stringIcNS_11char_traitsIcEENS_9allocatorIcEEEEbxydS9_NS2_14adl_serializerENS5_IhNS9_IhEEEEvEEEENS_9enable_ifIXaasr21is_move_constructibleIT_EE5valuesr18is_move_assignableISI_EE5valueEvE4typeERSI_SL_, symObjAddr: 0x12D00, symBinAddr: 0x100019958, symSize: 0x3C }
  - { offsetInCU: 0x1F8AC, offset: 0x43914, size: 0x8, addend: 0x0, symName: __ZNSt3__125__debug_db_invalidate_allB7v160006INS_6vectorIN8nlohmann16json_abi_v3_11_310basic_jsonINS_3mapES1_NS_12basic_stringIcNS_11char_traitsIcEENS_9allocatorIcEEEEbxydS9_NS3_14adl_serializerENS1_IhNS9_IhEEEEvEENS9_ISF_EEEEEEvPT_, symObjAddr: 0x12E10, symBinAddr: 0x100019A68, symSize: 0x10 }
  - { offsetInCU: 0x1F8DC, offset: 0x43944, size: 0x8, addend: 0x0, symName: __ZNSt3__112__to_addressB7v160006IN8nlohmann16json_abi_v3_11_310basic_jsonINS_3mapENS_6vectorENS_12basic_stringIcNS_11char_traitsIcEENS_9allocatorIcEEEEbxydS9_NS2_14adl_serializerENS5_IhNS9_IhEEEEvEEEEPT_SH_, symObjAddr: 0x12E68, symBinAddr: 0x100019AC0, symSize: 0x14 }
  - { offsetInCU: 0x1F911, offset: 0x43979, size: 0x8, addend: 0x0, symName: __ZNSt3__122__make_exception_guardB7v160006INS_29_AllocatorDestroyRangeReverseINS_9allocatorIN8nlohmann16json_abi_v3_11_310basic_jsonINS_3mapENS_6vectorENS_12basic_stringIcNS_11char_traitsIcEENS2_IcEEEEbxydS2_NS4_14adl_serializerENS7_IhNS2_IhEEEEvEEEENS_16reverse_iteratorIPSG_EEEEEENS_28__exception_guard_exceptionsIT_EESN_, symObjAddr: 0x12E7C, symBinAddr: 0x100019AD4, symSize: 0x4C }
  - { offsetInCU: 0x1F947, offset: 0x439AF, size: 0x8, addend: 0x0, symName: __ZNSt3__1neB7v160006IPN8nlohmann16json_abi_v3_11_310basic_jsonINS_3mapENS_6vectorENS_12basic_stringIcNS_11char_traitsIcEENS_9allocatorIcEEEEbxydS9_NS2_14adl_serializerENS5_IhNS9_IhEEEEvEESG_EEbRKNS_16reverse_iteratorIT_EERKNSH_IT0_EE, symObjAddr: 0x12F0C, symBinAddr: 0x100019B64, symSize: 0x48 }
  - { offsetInCU: 0x1F993, offset: 0x439FB, size: 0x8, addend: 0x0, symName: __ZNSt3__112__to_addressB7v160006INS_16reverse_iteratorIPN8nlohmann16json_abi_v3_11_310basic_jsonINS_3mapENS_6vectorENS_12basic_stringIcNS_11char_traitsIcEENS_9allocatorIcEEEEbxydSA_NS3_14adl_serializerENS6_IhNSA_IhEEEEvEEEEvEENS_5decayIDTclsr19__to_address_helperIT_EE6__callclsr3stdE7declvalIRKSK_EEEEE4typeESM_, symObjAddr: 0x12F88, symBinAddr: 0x100019BE0, symSize: 0x24 }
  - { offsetInCU: 0x1F9F4, offset: 0x43A5C, size: 0x8, addend: 0x0, symName: __ZNSt3__119__allocator_destroyB7v160006INS_9allocatorIN8nlohmann16json_abi_v3_11_310basic_jsonINS_3mapENS_6vectorENS_12basic_stringIcNS_11char_traitsIcEENS1_IcEEEEbxydS1_NS3_14adl_serializerENS6_IhNS1_IhEEEEvEEEENS_16reverse_iteratorINSH_IPSF_EEEESK_EEvRT_T0_T1_, symObjAddr: 0x13268, symBinAddr: 0x100019EC0, symSize: 0x70 }
  - { offsetInCU: 0x1FA58, offset: 0x43AC0, size: 0x8, addend: 0x0, symName: __ZNSt3__1neB7v160006INS_16reverse_iteratorIPN8nlohmann16json_abi_v3_11_310basic_jsonINS_3mapENS_6vectorENS_12basic_stringIcNS_11char_traitsIcEENS_9allocatorIcEEEEbxydSA_NS3_14adl_serializerENS6_IhNSA_IhEEEEvEEEESI_EEbRKNS1_IT_EERKNS1_IT0_EE, symObjAddr: 0x13314, symBinAddr: 0x100019F6C, symSize: 0x60 }
  - { offsetInCU: 0x1FAA4, offset: 0x43B0C, size: 0x8, addend: 0x0, symName: __ZNSt3__112__to_addressB7v160006INS_16reverse_iteratorINS1_IPN8nlohmann16json_abi_v3_11_310basic_jsonINS_3mapENS_6vectorENS_12basic_stringIcNS_11char_traitsIcEENS_9allocatorIcEEEEbxydSA_NS3_14adl_serializerENS6_IhNSA_IhEEEEvEEEEEEvEENS_5decayIDTclsr19__to_address_helperIT_EE6__callclsr3stdE7declvalIRKSL_EEEEE4typeESN_, symObjAddr: 0x133A0, symBinAddr: 0x100019FF8, symSize: 0x24 }
  - { offsetInCU: 0x1FB04, offset: 0x43B6C, size: 0x8, addend: 0x0, symName: __ZNSt3__16__moveB7v160006INS_17_ClassicAlgPolicyENS_11__wrap_iterIPN8nlohmann16json_abi_v3_11_310basic_jsonINS_3mapENS_6vectorENS_12basic_stringIcNS_11char_traitsIcEENS_9allocatorIcEEEEbxydSB_NS4_14adl_serializerENS7_IhNSB_IhEEEEvEEEESJ_NS_20back_insert_iteratorINS7_ISH_NSB_ISH_EEEEEEEENS_4pairIT0_T2_EESP_T1_SQ_, symObjAddr: 0x137C8, symBinAddr: 0x10001A420, symSize: 0x5C }
  - { offsetInCU: 0x1FB70, offset: 0x43BD8, size: 0x8, addend: 0x0, symName: __ZNSt3__123__dispatch_copy_or_moveB7v160006INS_17_ClassicAlgPolicyENS_11__move_loopIS1_EENS_14__move_trivialENS_11__wrap_iterIPN8nlohmann16json_abi_v3_11_310basic_jsonINS_3mapENS_6vectorENS_12basic_stringIcNS_11char_traitsIcEENS_9allocatorIcEEEEbxydSE_NS7_14adl_serializerENSA_IhNSE_IhEEEEvEEEESM_NS_20back_insert_iteratorINSA_ISK_NSE_ISK_EEEEEEEENS_4pairIT2_T4_EESS_T3_ST_, symObjAddr: 0x13824, symBinAddr: 0x10001A47C, symSize: 0x5C }
  - { offsetInCU: 0x1FBEE, offset: 0x43C56, size: 0x8, addend: 0x0, symName: __ZNSt3__121__unwrap_and_dispatchB7v160006INS_10__overloadINS_11__move_loopINS_17_ClassicAlgPolicyEEENS_14__move_trivialEEENS_11__wrap_iterIPN8nlohmann16json_abi_v3_11_310basic_jsonINS_3mapENS_6vectorENS_12basic_stringIcNS_11char_traitsIcEENS_9allocatorIcEEEEbxydSG_NS9_14adl_serializerENSC_IhNSG_IhEEEEvEEEESO_NS_20back_insert_iteratorINSC_ISM_NSG_ISM_EEEEEELi0EEENS_4pairIT0_T2_EESU_T1_SV_, symObjAddr: 0x13880, symBinAddr: 0x10001A4D8, symSize: 0xE8 }
  - { offsetInCU: 0x1FC7E, offset: 0x43CE6, size: 0x8, addend: 0x0, symName: __ZNSt3__114__unwrap_rangeB7v160006INS_11__wrap_iterIPN8nlohmann16json_abi_v3_11_310basic_jsonINS_3mapENS_6vectorENS_12basic_stringIcNS_11char_traitsIcEENS_9allocatorIcEEEEbxydSA_NS3_14adl_serializerENS6_IhNSA_IhEEEEvEEEESH_EENS_4pairIT0_SK_EET_SM_, symObjAddr: 0x13968, symBinAddr: 0x10001A5C0, symSize: 0x70 }
  - { offsetInCU: 0x1FF2C, offset: 0x43F94, size: 0x8, addend: 0x0, symName: __ZNSt3__113__unwrap_iterB7v160006INS_20back_insert_iteratorINS_6vectorIN8nlohmann16json_abi_v3_11_310basic_jsonINS_3mapES2_NS_12basic_stringIcNS_11char_traitsIcEENS_9allocatorIcEEEEbxydSA_NS4_14adl_serializerENS2_IhNSA_IhEEEEvEENSA_ISG_EEEEEENS_18__unwrap_iter_implISJ_Lb0EEELi0EEEDTclsrT0_8__unwrapclsr3stdE7declvalIT_EEEESN_, symObjAddr: 0x13A70, symBinAddr: 0x10001A6C8, symSize: 0x34 }
  - { offsetInCU: 0x1FF71, offset: 0x43FD9, size: 0x8, addend: 0x0, symName: __ZNSt3__19make_pairB7v160006INS_11__wrap_iterIPN8nlohmann16json_abi_v3_11_310basic_jsonINS_3mapENS_6vectorENS_12basic_stringIcNS_11char_traitsIcEENS_9allocatorIcEEEEbxydSA_NS3_14adl_serializerENS6_IhNSA_IhEEEEvEEEENS_20back_insert_iteratorINS6_ISG_NSA_ISG_EEEEEEEENS_4pairINS_18__unwrap_ref_decayIT_E4typeENSO_IT0_E4typeEEEOSP_OSS_, symObjAddr: 0x13AA4, symBinAddr: 0x10001A6FC, symSize: 0x38 }
  - { offsetInCU: 0x1FFC0, offset: 0x44028, size: 0x8, addend: 0x0, symName: __ZNSt3__114__rewrap_rangeB7v160006INS_11__wrap_iterIPN8nlohmann16json_abi_v3_11_310basic_jsonINS_3mapENS_6vectorENS_12basic_stringIcNS_11char_traitsIcEENS_9allocatorIcEEEEbxydSA_NS3_14adl_serializerENS6_IhNSA_IhEEEEvEEEESH_EET_SJ_T0_, symObjAddr: 0x13ADC, symBinAddr: 0x10001A734, symSize: 0x3C }
  - { offsetInCU: 0x2000C, offset: 0x44074, size: 0x8, addend: 0x0, symName: __ZNSt3__113__rewrap_iterB7v160006INS_20back_insert_iteratorINS_6vectorIN8nlohmann16json_abi_v3_11_310basic_jsonINS_3mapES2_NS_12basic_stringIcNS_11char_traitsIcEENS_9allocatorIcEEEEbxydSA_NS4_14adl_serializerENS2_IhNSA_IhEEEEvEENSA_ISG_EEEEEESJ_NS_18__unwrap_iter_implISJ_Lb0EEEEET_SM_T0_, symObjAddr: 0x13B18, symBinAddr: 0x10001A770, symSize: 0x54 }
  - { offsetInCU: 0x20061, offset: 0x440C9, size: 0x8, addend: 0x0, symName: __ZNSt3__19make_pairB7v160006IPN8nlohmann16json_abi_v3_11_310basic_jsonINS_3mapENS_6vectorENS_12basic_stringIcNS_11char_traitsIcEENS_9allocatorIcEEEEbxydS9_NS2_14adl_serializerENS5_IhNS9_IhEEEEvEESG_EENS_4pairINS_18__unwrap_ref_decayIT_E4typeENSI_IT0_E4typeEEEOSJ_OSM_, symObjAddr: 0x13B6C, symBinAddr: 0x10001A7C4, symSize: 0x38 }
  - { offsetInCU: 0x200B0, offset: 0x44118, size: 0x8, addend: 0x0, symName: __ZNSt3__113__unwrap_iterB7v160006INS_11__wrap_iterIPN8nlohmann16json_abi_v3_11_310basic_jsonINS_3mapENS_6vectorENS_12basic_stringIcNS_11char_traitsIcEENS_9allocatorIcEEEEbxydSA_NS3_14adl_serializerENS6_IhNSA_IhEEEEvEEEENS_18__unwrap_iter_implISI_Lb1EEELi0EEEDTclsrT0_8__unwrapclsr3stdE7declvalIT_EEEESM_, symObjAddr: 0x13BA4, symBinAddr: 0x10001A7FC, symSize: 0x2C }
  - { offsetInCU: 0x2021D, offset: 0x44285, size: 0x8, addend: 0x0, symName: __ZNSt3__112__to_addressB7v160006INS_11__wrap_iterIPN8nlohmann16json_abi_v3_11_310basic_jsonINS_3mapENS_6vectorENS_12basic_stringIcNS_11char_traitsIcEENS_9allocatorIcEEEEbxydSA_NS3_14adl_serializerENS6_IhNSA_IhEEEEvEEEEvEENS_5decayIDTclsr19__to_address_helperIT_EE6__callclsr3stdE7declvalIRKSK_EEEEE4typeESM_, symObjAddr: 0x13C68, symBinAddr: 0x10001A8C0, symSize: 0x24 }
  - { offsetInCU: 0x20434, offset: 0x4449C, size: 0x8, addend: 0x0, symName: __ZNSt3__19make_pairB7v160006IPN8nlohmann16json_abi_v3_11_310basic_jsonINS_3mapENS_6vectorENS_12basic_stringIcNS_11char_traitsIcEENS_9allocatorIcEEEEbxydS9_NS2_14adl_serializerENS5_IhNS9_IhEEEEvEENS_20back_insert_iteratorINS5_ISF_NS9_ISF_EEEEEEEENS_4pairINS_18__unwrap_ref_decayIT_E4typeENSM_IT0_E4typeEEEOSN_OSQ_, symObjAddr: 0x13D88, symBinAddr: 0x10001A9E0, symSize: 0x38 }
  - { offsetInCU: 0x205A0, offset: 0x44608, size: 0x8, addend: 0x0, symName: __ZNSt3__113__rewrap_iterB7v160006INS_11__wrap_iterIPN8nlohmann16json_abi_v3_11_310basic_jsonINS_3mapENS_6vectorENS_12basic_stringIcNS_11char_traitsIcEENS_9allocatorIcEEEEbxydSA_NS3_14adl_serializerENS6_IhNSA_IhEEEEvEEEESH_NS_18__unwrap_iter_implISI_Lb1EEEEET_SL_T0_, symObjAddr: 0x13EC0, symBinAddr: 0x10001AB18, symSize: 0x4C }
  - { offsetInCU: 0x20628, offset: 0x44690, size: 0x8, addend: 0x0, symName: __ZNSt3__1neB7v160006ERKNS_15__tree_iteratorINS_12__value_typeINS_12basic_stringIcNS_11char_traitsIcEENS_9allocatorIcEEEEN8nlohmann16json_abi_v3_11_310basic_jsonINS_3mapENS_6vectorES7_bxydS5_NS9_14adl_serializerENSC_IhNS5_IhEEEEvEEEEPNS_11__tree_nodeISH_PvEElEESO_, symObjAddr: 0x142D0, symBinAddr: 0x10001AF14, symSize: 0x34 }
  - { offsetInCU: 0x20666, offset: 0x446CE, size: 0x8, addend: 0x0, symName: __ZNSt3__1eqB7v160006ERKNS_15__tree_iteratorINS_12__value_typeINS_12basic_stringIcNS_11char_traitsIcEENS_9allocatorIcEEEEN8nlohmann16json_abi_v3_11_310basic_jsonINS_3mapENS_6vectorES7_bxydS5_NS9_14adl_serializerENSC_IhNS5_IhEEEEvEEEEPNS_11__tree_nodeISH_PvEElEESO_, symObjAddr: 0x14304, symBinAddr: 0x10001AF48, symSize: 0x30 }
  - { offsetInCU: 0x206D6, offset: 0x4473E, size: 0x8, addend: 0x0, symName: __ZNSt3__116__tree_next_iterB7v160006IPNS_15__tree_end_nodeIPNS_16__tree_node_baseIPvEEEES5_EET_T0_, symObjAddr: 0x146C0, symBinAddr: 0x10001B304, symSize: 0x90 }
  - { offsetInCU: 0x20714, offset: 0x4477C, size: 0x8, addend: 0x0, symName: __ZNSt3__110__tree_minB7v160006IPNS_16__tree_node_baseIPvEEEET_S5_, symObjAddr: 0x14750, symBinAddr: 0x10001B394, symSize: 0x40 }
  - { offsetInCU: 0x20749, offset: 0x447B1, size: 0x8, addend: 0x0, symName: __ZNSt3__120__tree_is_left_childB7v160006IPNS_16__tree_node_baseIPvEEEEbT_, symObjAddr: 0x14790, symBinAddr: 0x10001B3D4, symSize: 0x2C }
  - { offsetInCU: 0x2077F, offset: 0x447E7, size: 0x8, addend: 0x0, symName: __ZNSt3__118__debug_db_erase_cB7v160006INS_6vectorIN8nlohmann16json_abi_v3_11_310basic_jsonINS_3mapES1_NS_12basic_stringIcNS_11char_traitsIcEENS_9allocatorIcEEEEbxydS9_NS3_14adl_serializerENS1_IhNS9_IhEEEEvEENS9_ISF_EEEEEEvPT_, symObjAddr: 0x14F08, symBinAddr: 0x10001BB38, symSize: 0x10 }
  - { offsetInCU: 0x207B0, offset: 0x44818, size: 0x8, addend: 0x0, symName: __ZNSt3__118__debug_db_erase_cB7v160006INS_6vectorIhNS_9allocatorIhEEEEEEvPT_, symObjAddr: 0x15418, symBinAddr: 0x10001C048, symSize: 0x10 }
  - { offsetInCU: 0x207E0, offset: 0x44848, size: 0x8, addend: 0x0, symName: __ZNSt3__112__to_addressB7v160006IhEEPT_S2_, symObjAddr: 0x1554C, symBinAddr: 0x10001C17C, symSize: 0x14 }
  - { offsetInCU: 0x20C15, offset: 0x44C7D, size: 0x8, addend: 0x0, symName: __ZNSt3__1neB7v160006INS_3mapINS_12basic_stringIcNS_11char_traitsIcEENS_9allocatorIcEEEEN8nlohmann16json_abi_v3_11_310basic_jsonIS1_NS_6vectorES7_bxydS5_NS9_14adl_serializerENSB_IhNS5_IhEEEEvEENS_4lessIS7_EENS5_INS_4pairIKS7_SF_EEEEEEZNSF_6createISM_JEEEPT_DpOT0_EUlPSM_E_EEbRKNS_10unique_ptrISO_T0_EEDn, symObjAddr: 0x161C0, symBinAddr: 0x10001CDF0, symSize: 0x2C }
  - { offsetInCU: 0x21060, offset: 0x450C8, size: 0x8, addend: 0x0, symName: __ZNSt3__1neB7v160006INS_6vectorIN8nlohmann16json_abi_v3_11_310basic_jsonINS_3mapES1_NS_12basic_stringIcNS_11char_traitsIcEENS_9allocatorIcEEEEbxydS9_NS3_14adl_serializerENS1_IhNS9_IhEEEEvEENS9_ISF_EEEEZNSF_6createISH_JEEEPT_DpOT0_EUlPSH_E_EEbRKNS_10unique_ptrISJ_T0_EEDn, symObjAddr: 0x16A04, symBinAddr: 0x10001D610, symSize: 0x2C }
  - { offsetInCU: 0x213F7, offset: 0x4545F, size: 0x8, addend: 0x0, symName: __ZNSt3__1neB7v160006INS_12basic_stringIcNS_11char_traitsIcEENS_9allocatorIcEEEEZN8nlohmann16json_abi_v3_11_310basic_jsonINS_3mapENS_6vectorES6_bxydS4_NS8_14adl_serializerENSB_IhNS4_IhEEEEvE6createIS6_JRA1_KcEEEPT_DpOT0_EUlPS6_E_EEbRKNS_10unique_ptrISK_T0_EEDn, symObjAddr: 0x16EFC, symBinAddr: 0x10001DB08, symSize: 0x2C }
  - { offsetInCU: 0x21842, offset: 0x458AA, size: 0x8, addend: 0x0, symName: __ZNSt3__1neB7v160006IN8nlohmann16json_abi_v3_11_327byte_container_with_subtypeINS_6vectorIhNS_9allocatorIhEEEEEEZNS2_10basic_jsonINS_3mapES4_NS_12basic_stringIcNS_11char_traitsIcEENS5_IcEEEEbxydS5_NS2_14adl_serializerES7_vE6createIS8_JEEEPT_DpOT0_EUlPS8_E_EEbRKNS_10unique_ptrISJ_T0_EEDn, symObjAddr: 0x17334, symBinAddr: 0x10001DF40, symSize: 0x2C }
  - { offsetInCU: 0x2188E, offset: 0x458F6, size: 0x8, addend: 0x0, symName: __ZNSt3__119__debug_db_insert_cB7v160006INS_6vectorIhNS_9allocatorIhEEEEEEvPT_, symObjAddr: 0x17698, symBinAddr: 0x10001E2A4, symSize: 0x10 }
  - { offsetInCU: 0x218E3, offset: 0x4594B, size: 0x8, addend: 0x0, symName: __ZNSt3__1ltB7v160006IcNS_11char_traitsIcEENS_9allocatorIcEEEEbRKNS_12basic_stringIT_T0_T1_EESB_, symObjAddr: 0x18FB0, symBinAddr: 0x10001FB4C, symSize: 0x38 }
  - { offsetInCU: 0x2197F, offset: 0x459E7, size: 0x8, addend: 0x0, symName: __ZNSt3__127__tree_balance_after_insertB7v160006IPNS_16__tree_node_baseIPvEEEEvT_S5_, symObjAddr: 0x1969C, symBinAddr: 0x100020238, symSize: 0x27C }
  - { offsetInCU: 0x219FF, offset: 0x45A67, size: 0x8, addend: 0x0, symName: __ZNSt3__118__tree_left_rotateB7v160006IPNS_16__tree_node_baseIPvEEEEvT_, symObjAddr: 0x19918, symBinAddr: 0x1000204B4, symSize: 0xD8 }
  - { offsetInCU: 0x21A42, offset: 0x45AAA, size: 0x8, addend: 0x0, symName: __ZNSt3__119__tree_right_rotateB7v160006IPNS_16__tree_node_baseIPvEEEEvT_, symObjAddr: 0x199F0, symBinAddr: 0x10002058C, symSize: 0xCC }
  - { offsetInCU: 0x21AB7, offset: 0x45B1F, size: 0x8, addend: 0x0, symName: __ZNSt3__14swapB7v160006IN8nlohmann16json_abi_v3_11_36detail7value_tEEENS_9enable_ifIXaasr21is_move_constructibleIT_EE5valuesr18is_move_assignableIS6_EE5valueEvE4typeERS6_S9_, symObjAddr: 0x1A0DC, symBinAddr: 0x100020C78, symSize: 0x3C }
  - { offsetInCU: 0x21B08, offset: 0x45B70, size: 0x8, addend: 0x0, symName: __ZNSt3__14swapB7v160006IN8nlohmann16json_abi_v3_11_310basic_jsonINS_3mapENS_6vectorENS_12basic_stringIcNS_11char_traitsIcEENS_9allocatorIcEEEEbxydS9_NS2_14adl_serializerENS5_IhNS9_IhEEEEvE10json_valueEEENS_9enable_ifIXaasr21is_move_constructibleIT_EE5valuesr18is_move_assignableISI_EE5valueEvE4typeERSI_SL_, symObjAddr: 0x1A118, symBinAddr: 0x100020CB4, symSize: 0x3C }
  - { offsetInCU: 0x21E9A, offset: 0x45F02, size: 0x8, addend: 0x0, symName: __ZNSt3__1neB7v160006INS_12basic_stringIcNS_11char_traitsIcEENS_9allocatorIcEEEEZN8nlohmann16json_abi_v3_11_310basic_jsonINS_3mapENS_6vectorES6_bxydS4_NS8_14adl_serializerENSB_IhNS4_IhEEEEvE6createIS6_JRKS6_EEEPT_DpOT0_EUlPS6_E_EEbRKNS_10unique_ptrISJ_T0_EEDn, symObjAddr: 0x1A680, symBinAddr: 0x10002121C, symSize: 0x2C }
  - { offsetInCU: 0x21EE5, offset: 0x45F4D, size: 0x8, addend: 0x0, symName: __ZNSt3__111make_sharedB7v160006IN8nlohmann16json_abi_v3_11_36detail21output_string_adapterIcNS_12basic_stringIcNS_11char_traitsIcEENS_9allocatorIcEEEEEEJRSA_EvEENS_10shared_ptrIT_EEDpOT0_, symObjAddr: 0x1C15C, symBinAddr: 0x100022CF8, symSize: 0x40 }
  - { offsetInCU: 0x22113, offset: 0x4617B, size: 0x8, addend: 0x0, symName: __ZNSt3__115allocate_sharedB7v160006IN8nlohmann16json_abi_v3_11_36detail21output_string_adapterIcNS_12basic_stringIcNS_11char_traitsIcEENS_9allocatorIcEEEEEENS8_ISB_EEJRSA_EvEENS_10shared_ptrIT_EERKT0_DpOT1_, symObjAddr: 0x1C1FC, symBinAddr: 0x100022D98, symSize: 0x98 }
  - { offsetInCU: 0x22456, offset: 0x464BE, size: 0x8, addend: 0x0, symName: __ZNSt3__134__libcpp_atomic_refcount_decrementB7v160006IlEET_RS1_, symObjAddr: 0x1CE48, symBinAddr: 0x1000239E4, symSize: 0x30 }
  - { offsetInCU: 0x2248B, offset: 0x464F3, size: 0x8, addend: 0x0, symName: __ZNSt3__134__libcpp_atomic_refcount_incrementB7v160006IlEET_RS1_, symObjAddr: 0x1CF68, symBinAddr: 0x100023B04, symSize: 0x30 }
  - { offsetInCU: 0x224C0, offset: 0x46528, size: 0x8, addend: 0x0, symName: __ZNSt3__1neB7v160006ERKNS_20__map_const_iteratorINS_21__tree_const_iteratorINS_12__value_typeINS_12basic_stringIcNS_11char_traitsIcEENS_9allocatorIcEEEEN8nlohmann16json_abi_v3_11_310basic_jsonINS_3mapENS_6vectorES8_bxydS6_NSA_14adl_serializerENSD_IhNS6_IhEEEEvEEEEPNS_11__tree_nodeISI_PvEElEEEESQ_, symObjAddr: 0x1DFBC, symBinAddr: 0x100024AC8, symSize: 0x30 }
  - { offsetInCU: 0x224FD, offset: 0x46565, size: 0x8, addend: 0x0, symName: __ZNSt3__1eqB7v160006ERKNS_20__map_const_iteratorINS_21__tree_const_iteratorINS_12__value_typeINS_12basic_stringIcNS_11char_traitsIcEENS_9allocatorIcEEEEN8nlohmann16json_abi_v3_11_310basic_jsonINS_3mapENS_6vectorES8_bxydS6_NSA_14adl_serializerENSD_IhNS6_IhEEEEvEEEEPNS_11__tree_nodeISI_PvEElEEEESQ_, symObjAddr: 0x1E018, symBinAddr: 0x100024B24, symSize: 0x30 }
  - { offsetInCU: 0x2253A, offset: 0x465A2, size: 0x8, addend: 0x0, symName: __ZNSt3__14nextB7v160006INS_20__map_const_iteratorINS_21__tree_const_iteratorINS_12__value_typeINS_12basic_stringIcNS_11char_traitsIcEENS_9allocatorIcEEEEN8nlohmann16json_abi_v3_11_310basic_jsonINS_3mapENS_6vectorES9_bxydS7_NSB_14adl_serializerENSE_IhNS7_IhEEEEvEEEEPNS_11__tree_nodeISJ_PvEElEEEEEENS_9enable_ifIXsr25__is_cpp17_input_iteratorIT_EE5valueESR_E4typeESR_NS_15iterator_traitsISR_E15difference_typeE, symObjAddr: 0x1E048, symBinAddr: 0x100024B54, symSize: 0x50 }
  - { offsetInCU: 0x2257D, offset: 0x465E5, size: 0x8, addend: 0x0, symName: __ZNSt3__1neB7v160006IPKN8nlohmann16json_abi_v3_11_310basic_jsonINS_3mapENS_6vectorENS_12basic_stringIcNS_11char_traitsIcEENS_9allocatorIcEEEEbxydS9_NS2_14adl_serializerENS5_IhNS9_IhEEEEvEEEEbRKNS_11__wrap_iterIT_EESM_, symObjAddr: 0x1E0C4, symBinAddr: 0x100024BD0, symSize: 0x34 }
  - { offsetInCU: 0x225C0, offset: 0x46628, size: 0x8, addend: 0x0, symName: __ZNSt3__1neB7v160006IPKhEEbRKNS_11__wrap_iterIT_EES7_, symObjAddr: 0x1E1EC, symBinAddr: 0x100024CF8, symSize: 0x34 }
  - { offsetInCU: 0x22669, offset: 0x466D1, size: 0x8, addend: 0x0, symName: __ZNSt3__1neB7v160006ERKNS_21__tree_const_iteratorINS_12__value_typeINS_12basic_stringIcNS_11char_traitsIcEENS_9allocatorIcEEEEN8nlohmann16json_abi_v3_11_310basic_jsonINS_3mapENS_6vectorES7_bxydS5_NS9_14adl_serializerENSC_IhNS5_IhEEEEvEEEEPNS_11__tree_nodeISH_PvEElEESO_, symObjAddr: 0x1F63C, symBinAddr: 0x100026148, symSize: 0x34 }
  - { offsetInCU: 0x226A7, offset: 0x4670F, size: 0x8, addend: 0x0, symName: __ZNSt3__1eqB7v160006ERKNS_21__tree_const_iteratorINS_12__value_typeINS_12basic_stringIcNS_11char_traitsIcEENS_9allocatorIcEEEEN8nlohmann16json_abi_v3_11_310basic_jsonINS_3mapENS_6vectorES7_bxydS5_NS9_14adl_serializerENSC_IhNS5_IhEEEEvEEEEPNS_11__tree_nodeISH_PvEElEESO_, symObjAddr: 0x1F670, symBinAddr: 0x10002617C, symSize: 0x30 }
  - { offsetInCU: 0x226E4, offset: 0x4674C, size: 0x8, addend: 0x0, symName: __ZNSt3__121__convert_to_integralB7v160006El, symObjAddr: 0x1F75C, symBinAddr: 0x100026268, symSize: 0x14 }
  - { offsetInCU: 0x22710, offset: 0x46778, size: 0x8, addend: 0x0, symName: __ZNSt3__19__advanceB7v160006INS_20__map_const_iteratorINS_21__tree_const_iteratorINS_12__value_typeINS_12basic_stringIcNS_11char_traitsIcEENS_9allocatorIcEEEEN8nlohmann16json_abi_v3_11_310basic_jsonINS_3mapENS_6vectorES9_bxydS7_NSB_14adl_serializerENSE_IhNS7_IhEEEEvEEEEPNS_11__tree_nodeISJ_PvEElEEEEEEvRT_NS_15iterator_traitsISQ_E15difference_typeENS_26bidirectional_iterator_tagE, symObjAddr: 0x1F770, symBinAddr: 0x10002627C, symSize: 0xA4 }
  - { offsetInCU: 0x2275A, offset: 0x467C2, size: 0x8, addend: 0x0, symName: __ZNSt3__116__tree_prev_iterB7v160006IPNS_16__tree_node_baseIPvEEPNS_15__tree_end_nodeIS4_EEEET_T0_, symObjAddr: 0x1F878, symBinAddr: 0x100026384, symSize: 0x88 }
  - { offsetInCU: 0x227A6, offset: 0x4680E, size: 0x8, addend: 0x0, symName: __ZNSt3__110__tree_maxB7v160006IPNS_16__tree_node_baseIPvEEEET_S5_, symObjAddr: 0x1F900, symBinAddr: 0x10002640C, symSize: 0x40 }
  - { offsetInCU: 0x227DB, offset: 0x46843, size: 0x8, addend: 0x0, symName: __ZNSt3__1eqB7v160006IPKN8nlohmann16json_abi_v3_11_310basic_jsonINS_3mapENS_6vectorENS_12basic_stringIcNS_11char_traitsIcEENS_9allocatorIcEEEEbxydS9_NS2_14adl_serializerENS5_IhNS9_IhEEEEvEEEEbRKNS_11__wrap_iterIT_EESM_, symObjAddr: 0x1FA04, symBinAddr: 0x100026510, symSize: 0x48 }
  - { offsetInCU: 0x2281E, offset: 0x46886, size: 0x8, addend: 0x0, symName: __ZNSt3__1eqB7v160006IPKhEEbRKNS_11__wrap_iterIT_EES7_, symObjAddr: 0x1FBBC, symBinAddr: 0x1000266C8, symSize: 0x48 }
  - { offsetInCU: 0x22C9E, offset: 0x46D06, size: 0x8, addend: 0x0, symName: __ZNSt3__119__debug_db_insert_cB7v160006INS_6vectorIcNS_9allocatorIcEEEEEEvPT_, symObjAddr: 0x23C84, symBinAddr: 0x10002A790, symSize: 0x10 }
  - { offsetInCU: 0x23254, offset: 0x472BC, size: 0x8, addend: 0x0, symName: __ZNSt3__1neB7v160006IPKcEEbRKNS_11__wrap_iterIT_EES7_, symObjAddr: 0x2602C, symBinAddr: 0x10002CB38, symSize: 0x34 }
  - { offsetInCU: 0x23297, offset: 0x472FF, size: 0x8, addend: 0x0, symName: __ZNSt3__1eqB7v160006IPKcEEbRKNS_11__wrap_iterIT_EES7_, symObjAddr: 0x260D0, symBinAddr: 0x10002CBDC, symSize: 0x48 }
  - { offsetInCU: 0x232DA, offset: 0x47342, size: 0x8, addend: 0x0, symName: __ZNSt3__121__convert_to_integralB7v160006Ei, symObjAddr: 0x26130, symBinAddr: 0x10002CC3C, symSize: 0x14 }
  - { offsetInCU: 0x23306, offset: 0x4736E, size: 0x8, addend: 0x0, symName: __ZNSt3__19__advanceB7v160006INS_11__wrap_iterIPKcEEEEvRT_NS_15iterator_traitsIS5_E15difference_typeENS_26random_access_iterator_tagE, symObjAddr: 0x26144, symBinAddr: 0x10002CC50, symSize: 0x2C }
  - { offsetInCU: 0x23350, offset: 0x473B8, size: 0x8, addend: 0x0, symName: __ZNSt3__112__to_addressB7v160006IcEEPT_S2_, symObjAddr: 0x263F8, symBinAddr: 0x10002CF04, symSize: 0x14 }
  - { offsetInCU: 0x23385, offset: 0x473ED, size: 0x8, addend: 0x0, symName: __ZNSt3__119__allocate_at_leastB7v160006INS_9allocatorIcEEEENS_19__allocation_resultINS_16allocator_traitsIT_E7pointerEEERS5_m, symObjAddr: 0x269B4, symBinAddr: 0x10002D4C0, symSize: 0x40 }
  - { offsetInCU: 0x233C8, offset: 0x47430, size: 0x8, addend: 0x0, symName: __ZNSt3__142__uninitialized_allocator_move_if_noexceptB7v160006INS_9allocatorIcEENS_16reverse_iteratorIPcEES5_cvEET1_RT_T0_S9_S6_, symObjAddr: 0x26C20, symBinAddr: 0x10002D72C, symSize: 0x78 }
  - { offsetInCU: 0x23445, offset: 0x474AD, size: 0x8, addend: 0x0, symName: __ZNSt3__14swapB7v160006IPcEENS_9enable_ifIXaasr21is_move_constructibleIT_EE5valuesr18is_move_assignableIS3_EE5valueEvE4typeERS3_S6_, symObjAddr: 0x26CE4, symBinAddr: 0x10002D7F0, symSize: 0x3C }
  - { offsetInCU: 0x23497, offset: 0x474FF, size: 0x8, addend: 0x0, symName: __ZNSt3__125__debug_db_invalidate_allB7v160006INS_6vectorIcNS_9allocatorIcEEEEEEvPT_, symObjAddr: 0x26DCC, symBinAddr: 0x10002D8D8, symSize: 0x10 }
  - { offsetInCU: 0x234C7, offset: 0x4752F, size: 0x8, addend: 0x0, symName: __ZNSt3__14moveB7v160006INS_16reverse_iteratorIPcEES3_EET0_T_S5_S4_, symObjAddr: 0x26E24, symBinAddr: 0x10002D930, symSize: 0x78 }
  - { offsetInCU: 0x23521, offset: 0x47589, size: 0x8, addend: 0x0, symName: __ZNSt3__16__moveB7v160006INS_17_ClassicAlgPolicyENS_16reverse_iteratorIPcEES4_S4_EENS_4pairIT0_T2_EES6_T1_S7_, symObjAddr: 0x26E9C, symBinAddr: 0x10002D9A8, symSize: 0x64 }
  - { offsetInCU: 0x2358D, offset: 0x475F5, size: 0x8, addend: 0x0, symName: __ZNSt3__123__dispatch_copy_or_moveB7v160006INS_17_ClassicAlgPolicyENS_11__move_loopIS1_EENS_14__move_trivialENS_16reverse_iteratorIPcEES7_S7_EENS_4pairIT2_T4_EES9_T3_SA_, symObjAddr: 0x26F00, symBinAddr: 0x10002DA0C, symSize: 0x64 }
  - { offsetInCU: 0x2360B, offset: 0x47673, size: 0x8, addend: 0x0, symName: __ZNSt3__121__unwrap_and_dispatchB7v160006INS_10__overloadINS_11__move_loopINS_17_ClassicAlgPolicyEEENS_14__move_trivialEEENS_16reverse_iteratorIPcEES9_S9_Li0EEENS_4pairIT0_T2_EESB_T1_SC_, symObjAddr: 0x26F64, symBinAddr: 0x10002DA70, symSize: 0x12C }
  - { offsetInCU: 0x2369C, offset: 0x47704, size: 0x8, addend: 0x0, symName: __ZNSt3__114__unwrap_rangeB7v160006INS_16reverse_iteratorIPcEES3_EENS_4pairIT0_S5_EET_S7_, symObjAddr: 0x27090, symBinAddr: 0x10002DB9C, symSize: 0x84 }
  - { offsetInCU: 0x237BD, offset: 0x47825, size: 0x8, addend: 0x0, symName: __ZNSt3__113__unwrap_iterB7v160006INS_16reverse_iteratorIPcEENS_18__unwrap_iter_implIS3_Lb0EEELi0EEEDTclsrT0_8__unwrapclsr3stdE7declvalIT_EEEES7_, symObjAddr: 0x271B4, symBinAddr: 0x10002DCC0, symSize: 0x44 }
  - { offsetInCU: 0x23802, offset: 0x4786A, size: 0x8, addend: 0x0, symName: __ZNSt3__19make_pairB7v160006INS_16reverse_iteratorIPcEES3_EENS_4pairINS_18__unwrap_ref_decayIT_E4typeENS5_IT0_E4typeEEEOS6_OS9_, symObjAddr: 0x271F8, symBinAddr: 0x10002DD04, symSize: 0x38 }
  - { offsetInCU: 0x23851, offset: 0x478B9, size: 0x8, addend: 0x0, symName: __ZNSt3__114__rewrap_rangeB7v160006INS_16reverse_iteratorIPcEES3_EET_S4_T0_, symObjAddr: 0x27230, symBinAddr: 0x10002DD3C, symSize: 0x5C }
  - { offsetInCU: 0x2389D, offset: 0x47905, size: 0x8, addend: 0x0, symName: __ZNSt3__113__rewrap_iterB7v160006INS_16reverse_iteratorIPcEES3_NS_18__unwrap_iter_implIS3_Lb0EEEEET_S6_T0_, symObjAddr: 0x2728C, symBinAddr: 0x10002DD98, symSize: 0x74 }
  - { offsetInCU: 0x238F2, offset: 0x4795A, size: 0x8, addend: 0x0, symName: __ZNSt3__1neB7v160006IPcS1_EEbRKNS_16reverse_iteratorIT_EERKNS2_IT0_EE, symObjAddr: 0x27300, symBinAddr: 0x10002DE0C, symSize: 0x48 }
  - { offsetInCU: 0x239AC, offset: 0x47A14, size: 0x8, addend: 0x0, symName: __ZNSt3__118__debug_db_erase_cB7v160006INS_6vectorIcNS_9allocatorIcEEEEEEvPT_, symObjAddr: 0x280B4, symBinAddr: 0x10002EBC0, symSize: 0x10 }
  - { offsetInCU: 0x239DC, offset: 0x47A44, size: 0x8, addend: 0x0, symName: __ZNSt3__15beginB7v160006INS_12basic_stringIcNS_11char_traitsIcEENS_9allocatorIcEEEEEEDTcldtfp_5beginEERKT_, symObjAddr: 0x28160, symBinAddr: 0x10002EC6C, symSize: 0x2C }
  - { offsetInCU: 0x23A11, offset: 0x47A79, size: 0x8, addend: 0x0, symName: __ZNSt3__13endB7v160006INS_12basic_stringIcNS_11char_traitsIcEENS_9allocatorIcEEEEEEDTcldtfp_3endEERKT_, symObjAddr: 0x2818C, symBinAddr: 0x10002EC98, symSize: 0x2C }
  - { offsetInCU: 0x23A47, offset: 0x47AAF, size: 0x8, addend: 0x0, symName: __ZNSt3__119__debug_db_insert_cB7v160006INS_6vectorIPN8nlohmann16json_abi_v3_11_310basic_jsonINS_3mapES1_NS_12basic_stringIcNS_11char_traitsIcEENS_9allocatorIcEEEEbxydS9_NS3_14adl_serializerENS1_IhNS9_IhEEEEvEENS9_ISG_EEEEEEvPT_, symObjAddr: 0x2BE34, symBinAddr: 0x100032940, symSize: 0x10 }
  - { offsetInCU: 0x23A78, offset: 0x47AE0, size: 0x8, addend: 0x0, symName: __ZNSt3__125__debug_db_invalidate_allB7v160006INS_6vectorIbNS_9allocatorIbEEEEEEvPT_, symObjAddr: 0x2C72C, symBinAddr: 0x100033238, symSize: 0x10 }
  - { offsetInCU: 0x23AA8, offset: 0x47B10, size: 0x8, addend: 0x0, symName: __ZNSt3__119__allocate_at_leastB7v160006INS_9allocatorImEEEENS_19__allocation_resultINS_16allocator_traitsIT_E7pointerEEERS5_m, symObjAddr: 0x2C9B4, symBinAddr: 0x1000334C0, symSize: 0x40 }
  - { offsetInCU: 0x23AEB, offset: 0x47B53, size: 0x8, addend: 0x0, symName: __ZNSt3__18distanceB7v160006INS_14__bit_iteratorINS_6vectorIbNS_9allocatorIbEEEELb0ELm0EEEEENS_15iterator_traitsIT_E15difference_typeES8_S8_, symObjAddr: 0x2CB1C, symBinAddr: 0x100033628, symSize: 0x5C }
  - { offsetInCU: 0x23B30, offset: 0x47B98, size: 0x8, addend: 0x0, symName: __ZNSt3__14copyB7v160006INS_6vectorIbNS_9allocatorIbEEEELb0EEENS_14__bit_iteratorIT_Lb0EXLi0EEEENS5_IS6_XT0_EXLi0EEEES8_S7_, symObjAddr: 0x2CBAC, symBinAddr: 0x1000336B8, symSize: 0xE8 }
  - { offsetInCU: 0x23B92, offset: 0x47BFA, size: 0x8, addend: 0x0, symName: __ZNSt3__110__distanceB7v160006INS_14__bit_iteratorINS_6vectorIbNS_9allocatorIbEEEELb0ELm0EEEEENS_15iterator_traitsIT_E15difference_typeES8_S8_NS_26random_access_iterator_tagE, symObjAddr: 0x2CCF8, symBinAddr: 0x100033804, symSize: 0x38 }
  - { offsetInCU: 0x23BE2, offset: 0x47C4A, size: 0x8, addend: 0x0, symName: __ZNSt3__1miB7v160006ERKNS_14__bit_iteratorINS_6vectorIbNS_9allocatorIbEEEELb0ELm0EEES7_, symObjAddr: 0x2CD30, symBinAddr: 0x10003383C, symSize: 0x48 }
  - { offsetInCU: 0x23C1F, offset: 0x47C87, size: 0x8, addend: 0x0, symName: __ZNSt3__13minB7v160006IlEERKT_S3_S3_, symObjAddr: 0x2D560, symBinAddr: 0x10003406C, symSize: 0x2C }
  - { offsetInCU: 0x23C62, offset: 0x47CCA, size: 0x8, addend: 0x0, symName: __ZNSt3__112__to_addressB7v160006ImEEPT_S2_, symObjAddr: 0x2D5D0, symBinAddr: 0x1000340DC, symSize: 0x14 }
  - { offsetInCU: 0x23C97, offset: 0x47CFF, size: 0x8, addend: 0x0, symName: __ZNSt3__13minB7v160006IlNS_6__lessIllEEEERKT_S5_S5_T0_, symObjAddr: 0x2D5E4, symBinAddr: 0x1000340F0, symSize: 0x54 }
  - { offsetInCU: 0x23D2C, offset: 0x47D94, size: 0x8, addend: 0x0, symName: __ZNSt3__14copyB7v160006IPmS1_EET0_T_S3_S2_, symObjAddr: 0x2D66C, symBinAddr: 0x100034178, symSize: 0x40 }
  - { offsetInCU: 0x23D86, offset: 0x47DEE, size: 0x8, addend: 0x0, symName: __ZNSt3__16__copyB7v160006INS_17_ClassicAlgPolicyEPmS2_S2_EENS_4pairIT0_T2_EES4_T1_S5_, symObjAddr: 0x2D6AC, symBinAddr: 0x1000341B8, symSize: 0x44 }
  - { offsetInCU: 0x23DF2, offset: 0x47E5A, size: 0x8, addend: 0x0, symName: __ZNSt3__123__dispatch_copy_or_moveB7v160006INS_17_ClassicAlgPolicyENS_11__copy_loopIS1_EENS_14__copy_trivialEPmS5_S5_EENS_4pairIT2_T4_EES7_T3_S8_, symObjAddr: 0x2D6F0, symBinAddr: 0x1000341FC, symSize: 0x44 }
  - { offsetInCU: 0x23E70, offset: 0x47ED8, size: 0x8, addend: 0x0, symName: __ZNSt3__121__unwrap_and_dispatchB7v160006INS_10__overloadINS_11__copy_loopINS_17_ClassicAlgPolicyEEENS_14__copy_trivialEEEPmS7_S7_Li0EEENS_4pairIT0_T2_EES9_T1_SA_, symObjAddr: 0x2D734, symBinAddr: 0x100034240, symSize: 0xB4 }
  - { offsetInCU: 0x23EFF, offset: 0x47F67, size: 0x8, addend: 0x0, symName: __ZNSt3__114__unwrap_rangeB7v160006IPmS1_EENS_4pairIT0_S3_EET_S5_, symObjAddr: 0x2D7E8, symBinAddr: 0x1000342F4, symSize: 0x60 }
  - { offsetInCU: 0x24111, offset: 0x48179, size: 0x8, addend: 0x0, symName: __ZNSt3__113__unwrap_iterB7v160006IPmNS_18__unwrap_iter_implIS1_Lb1EEELi0EEEDTclsrT0_8__unwrapclsr3stdE7declvalIT_EEEES5_, symObjAddr: 0x2D890, symBinAddr: 0x10003439C, symSize: 0x24 }
  - { offsetInCU: 0x24156, offset: 0x481BE, size: 0x8, addend: 0x0, symName: __ZNSt3__19make_pairB7v160006IPmS1_EENS_4pairINS_18__unwrap_ref_decayIT_E4typeENS3_IT0_E4typeEEEOS4_OS7_, symObjAddr: 0x2D8B4, symBinAddr: 0x1000343C0, symSize: 0x38 }
  - { offsetInCU: 0x241A5, offset: 0x4820D, size: 0x8, addend: 0x0, symName: __ZNSt3__114__rewrap_rangeB7v160006IPmS1_EET_S2_T0_, symObjAddr: 0x2D8EC, symBinAddr: 0x1000343F8, symSize: 0x2C }
  - { offsetInCU: 0x241F1, offset: 0x48259, size: 0x8, addend: 0x0, symName: __ZNSt3__113__rewrap_iterB7v160006IPmS1_NS_18__unwrap_iter_implIS1_Lb1EEEEET_S4_T0_, symObjAddr: 0x2D918, symBinAddr: 0x100034424, symSize: 0x3C }
  - { offsetInCU: 0x24246, offset: 0x482AE, size: 0x8, addend: 0x0, symName: __ZNSt3__119__copy_trivial_implB7v160006ImmEENS_4pairIPT_PT0_EES3_S3_S5_, symObjAddr: 0x2D954, symBinAddr: 0x100034460, symSize: 0x84 }
  - { offsetInCU: 0x242AE, offset: 0x48316, size: 0x8, addend: 0x0, symName: __ZNSt3__19make_pairB7v160006IRPmS1_EENS_4pairINS_18__unwrap_ref_decayIT_E4typeENS4_IT0_E4typeEEEOS5_OS8_, symObjAddr: 0x2D9D8, symBinAddr: 0x1000344E4, symSize: 0x38 }
  - { offsetInCU: 0x24350, offset: 0x483B8, size: 0x8, addend: 0x0, symName: __ZNSt3__14swapB7v160006IPmEENS_9enable_ifIXaasr21is_move_constructibleIT_EE5valuesr18is_move_assignableIS3_EE5valueEvE4typeERS3_S6_, symObjAddr: 0x2DBCC, symBinAddr: 0x1000346D8, symSize: 0x3C }
  - { offsetInCU: 0x243A1, offset: 0x48409, size: 0x8, addend: 0x0, symName: __ZNSt3__14swapB7v160006ImEENS_9enable_ifIXaasr21is_move_constructibleIT_EE5valuesr18is_move_assignableIS2_EE5valueEvE4typeERS2_S5_, symObjAddr: 0x2DC08, symBinAddr: 0x100034714, symSize: 0x3C }
  - { offsetInCU: 0x243F3, offset: 0x4845B, size: 0x8, addend: 0x0, symName: __ZNSt3__116__swap_allocatorB7v160006INS_9allocatorImEEEEvRT_S4_NS_17integral_constantIbLb0EEE, symObjAddr: 0x2DC44, symBinAddr: 0x100034750, symSize: 0x14 }
  - { offsetInCU: 0x24434, offset: 0x4849C, size: 0x8, addend: 0x0, symName: __ZNSt3__125__debug_db_invalidate_allB7v160006INS_6vectorIbNS_9allocatorIbEEE16__destroy_vectorEEEvPT_, symObjAddr: 0x2DE8C, symBinAddr: 0x100034998, symSize: 0x10 }
  - { offsetInCU: 0x24465, offset: 0x484CD, size: 0x8, addend: 0x0, symName: __ZNSt3__118__debug_db_erase_cB7v160006INS_6vectorIPN8nlohmann16json_abi_v3_11_310basic_jsonINS_3mapES1_NS_12basic_stringIcNS_11char_traitsIcEENS_9allocatorIcEEEEbxydS9_NS3_14adl_serializerENS1_IhNS9_IhEEEEvEENS9_ISG_EEEEEEvPT_, symObjAddr: 0x2E0C8, symBinAddr: 0x100034BD4, symSize: 0x10 }
  - { offsetInCU: 0x24495, offset: 0x484FD, size: 0x8, addend: 0x0, symName: __ZNSt3__112__to_addressB7v160006IPN8nlohmann16json_abi_v3_11_310basic_jsonINS_3mapENS_6vectorENS_12basic_stringIcNS_11char_traitsIcEENS_9allocatorIcEEEEbxydS9_NS2_14adl_serializerENS5_IhNS9_IhEEEEvEEEEPT_SI_, symObjAddr: 0x2E20C, symBinAddr: 0x100034D18, symSize: 0x14 }
  - { offsetInCU: 0x24600, offset: 0x48668, size: 0x8, addend: 0x0, symName: __ZNSt3__125__throw_bad_function_callB7v160006Ev, symObjAddr: 0x2FBF0, symBinAddr: 0x1000366FC, symSize: 0x38 }
  - { offsetInCU: 0x24651, offset: 0x486B9, size: 0x8, addend: 0x0, symName: __ZNSt3__119__allocate_at_leastB7v160006INS_9allocatorIPN8nlohmann16json_abi_v3_11_310basic_jsonINS_3mapENS_6vectorENS_12basic_stringIcNS_11char_traitsIcEENS1_IcEEEEbxydS1_NS3_14adl_serializerENS6_IhNS1_IhEEEEvEEEEEENS_19__allocation_resultINS_16allocator_traitsIT_E7pointerEEERSK_m, symObjAddr: 0x30730, symBinAddr: 0x10003723C, symSize: 0x40 }
  - { offsetInCU: 0x24694, offset: 0x486FC, size: 0x8, addend: 0x0, symName: __ZNSt3__142__uninitialized_allocator_move_if_noexceptB7v160006INS_9allocatorIPN8nlohmann16json_abi_v3_11_310basic_jsonINS_3mapENS_6vectorENS_12basic_stringIcNS_11char_traitsIcEENS1_IcEEEEbxydS1_NS3_14adl_serializerENS6_IhNS1_IhEEEEvEEEENS_16reverse_iteratorIPSG_EESK_SG_vEET1_RT_T0_SO_SL_, symObjAddr: 0x308E4, symBinAddr: 0x1000373F0, symSize: 0x78 }
  - { offsetInCU: 0x24711, offset: 0x48779, size: 0x8, addend: 0x0, symName: __ZNSt3__14swapB7v160006IPPN8nlohmann16json_abi_v3_11_310basic_jsonINS_3mapENS_6vectorENS_12basic_stringIcNS_11char_traitsIcEENS_9allocatorIcEEEEbxydS9_NS2_14adl_serializerENS5_IhNS9_IhEEEEvEEEENS_9enable_ifIXaasr21is_move_constructibleIT_EE5valuesr18is_move_assignableISJ_EE5valueEvE4typeERSJ_SM_, symObjAddr: 0x309A8, symBinAddr: 0x1000374B4, symSize: 0x3C }
  - { offsetInCU: 0x24763, offset: 0x487CB, size: 0x8, addend: 0x0, symName: __ZNSt3__125__debug_db_invalidate_allB7v160006INS_6vectorIPN8nlohmann16json_abi_v3_11_310basic_jsonINS_3mapES1_NS_12basic_stringIcNS_11char_traitsIcEENS_9allocatorIcEEEEbxydS9_NS3_14adl_serializerENS1_IhNS9_IhEEEEvEENS9_ISG_EEEEEEvPT_, symObjAddr: 0x30A90, symBinAddr: 0x10003759C, symSize: 0x10 }
  - { offsetInCU: 0x24793, offset: 0x487FB, size: 0x8, addend: 0x0, symName: __ZNSt3__14moveB7v160006INS_16reverse_iteratorIPPN8nlohmann16json_abi_v3_11_310basic_jsonINS_3mapENS_6vectorENS_12basic_stringIcNS_11char_traitsIcEENS_9allocatorIcEEEEbxydSA_NS3_14adl_serializerENS6_IhNSA_IhEEEEvEEEESJ_EET0_T_SL_SK_, symObjAddr: 0x30AA0, symBinAddr: 0x1000375AC, symSize: 0x78 }
  - { offsetInCU: 0x247ED, offset: 0x48855, size: 0x8, addend: 0x0, symName: __ZNSt3__16__moveB7v160006INS_17_ClassicAlgPolicyENS_16reverse_iteratorIPPN8nlohmann16json_abi_v3_11_310basic_jsonINS_3mapENS_6vectorENS_12basic_stringIcNS_11char_traitsIcEENS_9allocatorIcEEEEbxydSB_NS4_14adl_serializerENS7_IhNSB_IhEEEEvEEEESK_SK_EENS_4pairIT0_T2_EESM_T1_SN_, symObjAddr: 0x30B18, symBinAddr: 0x100037624, symSize: 0x64 }
  - { offsetInCU: 0x24859, offset: 0x488C1, size: 0x8, addend: 0x0, symName: __ZNSt3__123__dispatch_copy_or_moveB7v160006INS_17_ClassicAlgPolicyENS_11__move_loopIS1_EENS_14__move_trivialENS_16reverse_iteratorIPPN8nlohmann16json_abi_v3_11_310basic_jsonINS_3mapENS_6vectorENS_12basic_stringIcNS_11char_traitsIcEENS_9allocatorIcEEEEbxydSE_NS7_14adl_serializerENSA_IhNSE_IhEEEEvEEEESN_SN_EENS_4pairIT2_T4_EESP_T3_SQ_, symObjAddr: 0x30B7C, symBinAddr: 0x100037688, symSize: 0x64 }
  - { offsetInCU: 0x248D7, offset: 0x4893F, size: 0x8, addend: 0x0, symName: __ZNSt3__121__unwrap_and_dispatchB7v160006INS_10__overloadINS_11__move_loopINS_17_ClassicAlgPolicyEEENS_14__move_trivialEEENS_16reverse_iteratorIPPN8nlohmann16json_abi_v3_11_310basic_jsonINS_3mapENS_6vectorENS_12basic_stringIcNS_11char_traitsIcEENS_9allocatorIcEEEEbxydSG_NS9_14adl_serializerENSC_IhNSG_IhEEEEvEEEESP_SP_Li0EEENS_4pairIT0_T2_EESR_T1_SS_, symObjAddr: 0x30BE0, symBinAddr: 0x1000376EC, symSize: 0x12C }
  - { offsetInCU: 0x24968, offset: 0x489D0, size: 0x8, addend: 0x0, symName: __ZNSt3__114__unwrap_rangeB7v160006INS_16reverse_iteratorIPPN8nlohmann16json_abi_v3_11_310basic_jsonINS_3mapENS_6vectorENS_12basic_stringIcNS_11char_traitsIcEENS_9allocatorIcEEEEbxydSA_NS3_14adl_serializerENS6_IhNSA_IhEEEEvEEEESJ_EENS_4pairIT0_SL_EET_SN_, symObjAddr: 0x30D0C, symBinAddr: 0x100037818, symSize: 0x84 }
  - { offsetInCU: 0x24A89, offset: 0x48AF1, size: 0x8, addend: 0x0, symName: __ZNSt3__113__unwrap_iterB7v160006INS_16reverse_iteratorIPPN8nlohmann16json_abi_v3_11_310basic_jsonINS_3mapENS_6vectorENS_12basic_stringIcNS_11char_traitsIcEENS_9allocatorIcEEEEbxydSA_NS3_14adl_serializerENS6_IhNSA_IhEEEEvEEEENS_18__unwrap_iter_implISJ_Lb0EEELi0EEEDTclsrT0_8__unwrapclsr3stdE7declvalIT_EEEESN_, symObjAddr: 0x30E30, symBinAddr: 0x10003793C, symSize: 0x44 }
  - { offsetInCU: 0x24ACE, offset: 0x48B36, size: 0x8, addend: 0x0, symName: __ZNSt3__19make_pairB7v160006INS_16reverse_iteratorIPPN8nlohmann16json_abi_v3_11_310basic_jsonINS_3mapENS_6vectorENS_12basic_stringIcNS_11char_traitsIcEENS_9allocatorIcEEEEbxydSA_NS3_14adl_serializerENS6_IhNSA_IhEEEEvEEEESJ_EENS_4pairINS_18__unwrap_ref_decayIT_E4typeENSL_IT0_E4typeEEEOSM_OSP_, symObjAddr: 0x30E74, symBinAddr: 0x100037980, symSize: 0x38 }
  - { offsetInCU: 0x24B1D, offset: 0x48B85, size: 0x8, addend: 0x0, symName: __ZNSt3__114__rewrap_rangeB7v160006INS_16reverse_iteratorIPPN8nlohmann16json_abi_v3_11_310basic_jsonINS_3mapENS_6vectorENS_12basic_stringIcNS_11char_traitsIcEENS_9allocatorIcEEEEbxydSA_NS3_14adl_serializerENS6_IhNSA_IhEEEEvEEEESJ_EET_SK_T0_, symObjAddr: 0x30EAC, symBinAddr: 0x1000379B8, symSize: 0x5C }
  - { offsetInCU: 0x24B69, offset: 0x48BD1, size: 0x8, addend: 0x0, symName: __ZNSt3__113__rewrap_iterB7v160006INS_16reverse_iteratorIPPN8nlohmann16json_abi_v3_11_310basic_jsonINS_3mapENS_6vectorENS_12basic_stringIcNS_11char_traitsIcEENS_9allocatorIcEEEEbxydSA_NS3_14adl_serializerENS6_IhNSA_IhEEEEvEEEESJ_NS_18__unwrap_iter_implISJ_Lb0EEEEET_SM_T0_, symObjAddr: 0x30F08, symBinAddr: 0x100037A14, symSize: 0x74 }
  - { offsetInCU: 0x24BBE, offset: 0x48C26, size: 0x8, addend: 0x0, symName: __ZNSt3__1neB7v160006IPPN8nlohmann16json_abi_v3_11_310basic_jsonINS_3mapENS_6vectorENS_12basic_stringIcNS_11char_traitsIcEENS_9allocatorIcEEEEbxydS9_NS2_14adl_serializerENS5_IhNS9_IhEEEEvEESH_EEbRKNS_16reverse_iteratorIT_EERKNSI_IT0_EE, symObjAddr: 0x30F7C, symBinAddr: 0x100037A88, symSize: 0x48 }
  - { offsetInCU: 0x24FB8, offset: 0x49020, size: 0x8, addend: 0x0, symName: __ZNSt3__1neB7v160006INS_3mapINS_12basic_stringIcNS_11char_traitsIcEENS_9allocatorIcEEEEN8nlohmann16json_abi_v3_11_310basic_jsonIS1_NS_6vectorES7_bxydS5_NS9_14adl_serializerENSB_IhNS5_IhEEEEvEENS_4lessIS7_EENS5_INS_4pairIKS7_SF_EEEEEEZNSF_6createISM_JRKSM_EEEPT_DpOT0_EUlPSM_E_EEbRKNS_10unique_ptrISQ_T0_EEDn, symObjAddr: 0x32248, symBinAddr: 0x100038D54, symSize: 0x2C }
  - { offsetInCU: 0x25028, offset: 0x49090, size: 0x8, addend: 0x0, symName: __ZNSt3__14nextB7v160006INS_21__tree_const_iteratorINS_12__value_typeINS_12basic_stringIcNS_11char_traitsIcEENS_9allocatorIcEEEEN8nlohmann16json_abi_v3_11_310basic_jsonINS_3mapENS_6vectorES8_bxydS6_NSA_14adl_serializerENSD_IhNS6_IhEEEEvEEEEPNS_11__tree_nodeISI_PvEElEEEENS_9enable_ifIXsr25__is_cpp17_input_iteratorIT_EE5valueESP_E4typeESP_NS_15iterator_traitsISP_E15difference_typeE, symObjAddr: 0x32DA8, symBinAddr: 0x1000398B4, symSize: 0x50 }
  - { offsetInCU: 0x2506B, offset: 0x490D3, size: 0x8, addend: 0x0, symName: __ZNSt3__19__advanceB7v160006INS_21__tree_const_iteratorINS_12__value_typeINS_12basic_stringIcNS_11char_traitsIcEENS_9allocatorIcEEEEN8nlohmann16json_abi_v3_11_310basic_jsonINS_3mapENS_6vectorES8_bxydS6_NSA_14adl_serializerENSD_IhNS6_IhEEEEvEEEEPNS_11__tree_nodeISI_PvEElEEEEvRT_NS_15iterator_traitsISO_E15difference_typeENS_26bidirectional_iterator_tagE, symObjAddr: 0x32E68, symBinAddr: 0x100039974, symSize: 0xA4 }
  - { offsetInCU: 0x253F6, offset: 0x4945E, size: 0x8, addend: 0x0, symName: __ZNSt3__1neB7v160006INS_6vectorIN8nlohmann16json_abi_v3_11_310basic_jsonINS_3mapES1_NS_12basic_stringIcNS_11char_traitsIcEENS_9allocatorIcEEEEbxydS9_NS3_14adl_serializerENS1_IhNS9_IhEEEEvEENS9_ISF_EEEEZNSF_6createISH_JRKSH_EEEPT_DpOT0_EUlPSH_E_EEbRKNS_10unique_ptrISL_T0_EEDn, symObjAddr: 0x33378, symBinAddr: 0x100039E84, symSize: 0x2C }
  - { offsetInCU: 0x25441, offset: 0x494A9, size: 0x8, addend: 0x0, symName: __ZNSt3__122__make_exception_guardB7v160006INS_6vectorIN8nlohmann16json_abi_v3_11_310basic_jsonINS_3mapES1_NS_12basic_stringIcNS_11char_traitsIcEENS_9allocatorIcEEEEbxydS9_NS3_14adl_serializerENS1_IhNS9_IhEEEEvEENS9_ISF_EEE16__destroy_vectorEEENS_28__exception_guard_exceptionsIT_EESK_, symObjAddr: 0x336C4, symBinAddr: 0x10003A1D0, symSize: 0x40 }
  - { offsetInCU: 0x25476, offset: 0x494DE, size: 0x8, addend: 0x0, symName: __ZNSt3__130__uninitialized_allocator_copyB7v160006INS_9allocatorIN8nlohmann16json_abi_v3_11_310basic_jsonINS_3mapENS_6vectorENS_12basic_stringIcNS_11char_traitsIcEENS1_IcEEEEbxydS1_NS3_14adl_serializerENS6_IhNS1_IhEEEEvEEEEPSF_SH_SH_EET2_RT_T0_T1_SI_, symObjAddr: 0x33938, symBinAddr: 0x10003A444, symSize: 0xF4 }
  - { offsetInCU: 0x25516, offset: 0x4957E, size: 0x8, addend: 0x0, symName: __ZNSt3__122__make_exception_guardB7v160006INS_29_AllocatorDestroyRangeReverseINS_9allocatorIN8nlohmann16json_abi_v3_11_310basic_jsonINS_3mapENS_6vectorENS_12basic_stringIcNS_11char_traitsIcEENS2_IcEEEEbxydS2_NS4_14adl_serializerENS7_IhNS2_IhEEEEvEEEEPSG_EEEENS_28__exception_guard_exceptionsIT_EESL_, symObjAddr: 0x33A2C, symBinAddr: 0x10003A538, symSize: 0x4C }
  - { offsetInCU: 0x2554D, offset: 0x495B5, size: 0x8, addend: 0x0, symName: __ZNSt3__119__allocator_destroyB7v160006INS_9allocatorIN8nlohmann16json_abi_v3_11_310basic_jsonINS_3mapENS_6vectorENS_12basic_stringIcNS_11char_traitsIcEENS1_IcEEEEbxydS1_NS3_14adl_serializerENS6_IhNS1_IhEEEEvEEEENS_16reverse_iteratorIPSF_EESJ_EEvRT_T0_T1_, symObjAddr: 0x33CBC, symBinAddr: 0x10003A7C8, symSize: 0x70 }
  - { offsetInCU: 0x258F0, offset: 0x49958, size: 0x8, addend: 0x0, symName: __ZNSt3__1neB7v160006IN8nlohmann16json_abi_v3_11_327byte_container_with_subtypeINS_6vectorIhNS_9allocatorIhEEEEEEZNS2_10basic_jsonINS_3mapES4_NS_12basic_stringIcNS_11char_traitsIcEENS5_IcEEEEbxydS5_NS2_14adl_serializerES7_vE6createIS8_JRKS8_EEEPT_DpOT0_EUlPS8_E_EEbRKNS_10unique_ptrISL_T0_EEDn, symObjAddr: 0x34100, symBinAddr: 0x10003AC0C, symSize: 0x2C }
  - { offsetInCU: 0x2593B, offset: 0x499A3, size: 0x8, addend: 0x0, symName: __ZNSt3__122__make_exception_guardB7v160006INS_6vectorIhNS_9allocatorIhEEE16__destroy_vectorEEENS_28__exception_guard_exceptionsIT_EES7_, symObjAddr: 0x344BC, symBinAddr: 0x10003AFC8, symSize: 0x40 }
  - { offsetInCU: 0x25970, offset: 0x499D8, size: 0x8, addend: 0x0, symName: __ZNSt3__119__allocate_at_leastB7v160006INS_9allocatorIhEEEENS_19__allocation_resultINS_16allocator_traitsIT_E7pointerEEERS5_m, symObjAddr: 0x347E4, symBinAddr: 0x10003B2F0, symSize: 0x40 }
  - { offsetInCU: 0x259B3, offset: 0x49A1B, size: 0x8, addend: 0x0, symName: __ZNSt3__130__uninitialized_allocator_copyB7v160006INS_9allocatorIhEEPhS3_S3_EET2_RT_T0_T1_S4_, symObjAddr: 0x349FC, symBinAddr: 0x10003B508, symSize: 0xF4 }
  - { offsetInCU: 0x25A53, offset: 0x49ABB, size: 0x8, addend: 0x0, symName: __ZNSt3__122__make_exception_guardB7v160006INS_29_AllocatorDestroyRangeReverseINS_9allocatorIhEEPhEEEENS_28__exception_guard_exceptionsIT_EES7_, symObjAddr: 0x34B60, symBinAddr: 0x10003B66C, symSize: 0x4C }
  - { offsetInCU: 0x25A8A, offset: 0x49AF2, size: 0x8, addend: 0x0, symName: __ZNSt3__119__allocator_destroyB7v160006INS_9allocatorIhEENS_16reverse_iteratorIPhEES5_EEvRT_T0_T1_, symObjAddr: 0x34DE8, symBinAddr: 0x10003B8F4, symSize: 0x70 }
  - { offsetInCU: 0x25AEC, offset: 0x49B54, size: 0x8, addend: 0x0, symName: __ZNSt3__1neB7v160006IPhS1_EEbRKNS_16reverse_iteratorIT_EERKNS2_IT0_EE, symObjAddr: 0x34E8C, symBinAddr: 0x10003B998, symSize: 0x48 }
  - { offsetInCU: 0x25B38, offset: 0x49BA0, size: 0x8, addend: 0x0, symName: __ZNSt3__112__to_addressB7v160006INS_16reverse_iteratorIPhEEvEENS_5decayIDTclsr19__to_address_helperIT_EE6__callclsr3stdE7declvalIRKS5_EEEEE4typeES7_, symObjAddr: 0x34ED4, symBinAddr: 0x10003B9E0, symSize: 0x24 }
  - { offsetInCU: 0x25B98, offset: 0x49C00, size: 0x8, addend: 0x0, symName: __ZNSt3__1neB7v160006IPN8nlohmann16json_abi_v3_11_310basic_jsonINS_3mapENS_6vectorENS_12basic_stringIcNS_11char_traitsIcEENS_9allocatorIcEEEEbxydS9_NS2_14adl_serializerENS5_IhNS9_IhEEEEvEEEEbRKNS_11__wrap_iterIT_EESL_, symObjAddr: 0x35310, symBinAddr: 0x10003BE1C, symSize: 0x34 }
  - { offsetInCU: 0x25BDB, offset: 0x49C43, size: 0x8, addend: 0x0, symName: __ZNSt3__1eqB7v160006IPN8nlohmann16json_abi_v3_11_310basic_jsonINS_3mapENS_6vectorENS_12basic_stringIcNS_11char_traitsIcEENS_9allocatorIcEEEEbxydS9_NS2_14adl_serializerENS5_IhNS9_IhEEEEvEEEEbRKNS_11__wrap_iterIT_EESL_, symObjAddr: 0x354DC, symBinAddr: 0x10003BFE8, symSize: 0x48 }
  - { offsetInCU: 0x25C1F, offset: 0x49C87, size: 0x8, addend: 0x0, symName: __ZNSt3__113__tree_removeB7v160006IPNS_16__tree_node_baseIPvEEEEvT_S5_, symObjAddr: 0x35978, symBinAddr: 0x10003C484, symSize: 0x6E0 }
  - { offsetInCU: 0x25CA0, offset: 0x49D08, size: 0x8, addend: 0x0, symName: __ZNSt3__111__tree_nextB7v160006IPNS_16__tree_node_baseIPvEEEET_S5_, symObjAddr: 0x36058, symBinAddr: 0x10003CB64, symSize: 0x80 }
  - { offsetInCU: 0x25CD5, offset: 0x49D3D, size: 0x8, addend: 0x0, symName: __ZNSt3__1miB7v160006IPKN8nlohmann16json_abi_v3_11_310basic_jsonINS_3mapENS_6vectorENS_12basic_stringIcNS_11char_traitsIcEENS_9allocatorIcEEEEbxydS9_NS2_14adl_serializerENS5_IhNS9_IhEEEEvEESH_EEDTmicldtfp_4baseEcldtfp0_4baseEERKNS_11__wrap_iterIT_EERKNSJ_IT0_EE, symObjAddr: 0x360D8, symBinAddr: 0x10003CBE4, symSize: 0x48 }
  - { offsetInCU: 0x25D21, offset: 0x49D89, size: 0x8, addend: 0x0, symName: __ZNSt3__14moveB7v160006IPN8nlohmann16json_abi_v3_11_310basic_jsonINS_3mapENS_6vectorENS_12basic_stringIcNS_11char_traitsIcEENS_9allocatorIcEEEEbxydS9_NS2_14adl_serializerENS5_IhNS9_IhEEEEvEESG_EET0_T_SI_SH_, symObjAddr: 0x36120, symBinAddr: 0x10003CC2C, symSize: 0x40 }
  - { offsetInCU: 0x25D7B, offset: 0x49DE3, size: 0x8, addend: 0x0, symName: __ZNSt3__16__moveB7v160006INS_17_ClassicAlgPolicyEPN8nlohmann16json_abi_v3_11_310basic_jsonINS_3mapENS_6vectorENS_12basic_stringIcNS_11char_traitsIcEENS_9allocatorIcEEEEbxydSA_NS3_14adl_serializerENS6_IhNSA_IhEEEEvEESH_SH_EENS_4pairIT0_T2_EESJ_T1_SK_, symObjAddr: 0x36160, symBinAddr: 0x10003CC6C, symSize: 0x44 }
  - { offsetInCU: 0x25DE7, offset: 0x49E4F, size: 0x8, addend: 0x0, symName: __ZNSt3__123__dispatch_copy_or_moveB7v160006INS_17_ClassicAlgPolicyENS_11__move_loopIS1_EENS_14__move_trivialEPN8nlohmann16json_abi_v3_11_310basic_jsonINS_3mapENS_6vectorENS_12basic_stringIcNS_11char_traitsIcEENS_9allocatorIcEEEEbxydSD_NS6_14adl_serializerENS9_IhNSD_IhEEEEvEESK_SK_EENS_4pairIT2_T4_EESM_T3_SN_, symObjAddr: 0x361A4, symBinAddr: 0x10003CCB0, symSize: 0x44 }
  - { offsetInCU: 0x25E65, offset: 0x49ECD, size: 0x8, addend: 0x0, symName: __ZNSt3__121__unwrap_and_dispatchB7v160006INS_10__overloadINS_11__move_loopINS_17_ClassicAlgPolicyEEENS_14__move_trivialEEEPN8nlohmann16json_abi_v3_11_310basic_jsonINS_3mapENS_6vectorENS_12basic_stringIcNS_11char_traitsIcEENS_9allocatorIcEEEEbxydSF_NS8_14adl_serializerENSB_IhNSF_IhEEEEvEESM_SM_Li0EEENS_4pairIT0_T2_EESO_T1_SP_, symObjAddr: 0x361E8, symBinAddr: 0x10003CCF4, symSize: 0xB4 }
  - { offsetInCU: 0x25EF4, offset: 0x49F5C, size: 0x8, addend: 0x0, symName: __ZNSt3__114__unwrap_rangeB7v160006IPN8nlohmann16json_abi_v3_11_310basic_jsonINS_3mapENS_6vectorENS_12basic_stringIcNS_11char_traitsIcEENS_9allocatorIcEEEEbxydS9_NS2_14adl_serializerENS5_IhNS9_IhEEEEvEESG_EENS_4pairIT0_SI_EET_SK_, symObjAddr: 0x3629C, symBinAddr: 0x10003CDA8, symSize: 0x60 }
  - { offsetInCU: 0x25F40, offset: 0x49FA8, size: 0x8, addend: 0x0, symName: __ZNSt3__113__unwrap_iterB7v160006IPN8nlohmann16json_abi_v3_11_310basic_jsonINS_3mapENS_6vectorENS_12basic_stringIcNS_11char_traitsIcEENS_9allocatorIcEEEEbxydS9_NS2_14adl_serializerENS5_IhNS9_IhEEEEvEENS_18__unwrap_iter_implISG_Lb1EEELi0EEEDTclsrT0_8__unwrapclsr3stdE7declvalIT_EEEESK_, symObjAddr: 0x363A4, symBinAddr: 0x10003CEB0, symSize: 0x24 }
  - { offsetInCU: 0x25F85, offset: 0x49FED, size: 0x8, addend: 0x0, symName: __ZNSt3__114__rewrap_rangeB7v160006IPN8nlohmann16json_abi_v3_11_310basic_jsonINS_3mapENS_6vectorENS_12basic_stringIcNS_11char_traitsIcEENS_9allocatorIcEEEEbxydS9_NS2_14adl_serializerENS5_IhNS9_IhEEEEvEESG_EET_SH_T0_, symObjAddr: 0x363C8, symBinAddr: 0x10003CED4, symSize: 0x2C }
  - { offsetInCU: 0x25FD1, offset: 0x4A039, size: 0x8, addend: 0x0, symName: __ZNSt3__113__rewrap_iterB7v160006IPN8nlohmann16json_abi_v3_11_310basic_jsonINS_3mapENS_6vectorENS_12basic_stringIcNS_11char_traitsIcEENS_9allocatorIcEEEEbxydS9_NS2_14adl_serializerENS5_IhNS9_IhEEEEvEESG_NS_18__unwrap_iter_implISG_Lb1EEEEET_SJ_T0_, symObjAddr: 0x363F4, symBinAddr: 0x10003CF00, symSize: 0x3C }
  - { offsetInCU: 0x260B0, offset: 0x4A118, size: 0x8, addend: 0x0, symName: __ZNSt3__116forward_as_tupleB7v160006IJRKNS_12basic_stringIcNS_11char_traitsIcEENS_9allocatorIcEEEEEEENS_5tupleIJDpOT_EEESC_, symObjAddr: 0x367F4, symBinAddr: 0x10003D300, symSize: 0x2C }
  - { offsetInCU: 0x260EA, offset: 0x4A152, size: 0x8, addend: 0x0, symName: __ZNSt3__116forward_as_tupleB7v160006IJEEENS_5tupleIJDpOT_EEES4_, symObjAddr: 0x36820, symBinAddr: 0x10003D32C, symSize: 0x4 }
  - { offsetInCU: 0x2611A, offset: 0x4A182, size: 0x8, addend: 0x0, symName: __ZNSt3__13getB7v160006ILm0EJRKNS_12basic_stringIcNS_11char_traitsIcEENS_9allocatorIcEEEEEEERNS_13tuple_elementIXT_ENS_5tupleIJDpT0_EEEE4typeERSD_, symObjAddr: 0x36A90, symBinAddr: 0x10003D59C, symSize: 0x24 }
  - { offsetInCU: 0x26445, offset: 0x4A4AD, size: 0x8, addend: 0x0, symName: __ZNSt3__119__debug_db_insert_iB7v160006INS_11__wrap_iterIPN8nlohmann16json_abi_v3_11_310basic_jsonINS_3mapENS_6vectorENS_12basic_stringIcNS_11char_traitsIcEENS_9allocatorIcEEEEbxydSA_NS3_14adl_serializerENS6_IhNSA_IhEEEEvEEEEEEvPT_, symObjAddr: 0x3D2C4, symBinAddr: 0x1000437A4, symSize: 0x10 }
  - { offsetInCU: 0x26475, offset: 0x4A4DD, size: 0x8, addend: 0x0, symName: __ZNSt3__1eqB7v160006ERKNS_14__map_iteratorINS_15__tree_iteratorINS_12__value_typeINS_12basic_stringIcNS_11char_traitsIcEENS_9allocatorIcEEEEN8nlohmann16json_abi_v3_11_310basic_jsonINS_3mapENS_6vectorES8_bxydS6_NSA_14adl_serializerENSD_IhNS6_IhEEEEvEEEEPNS_11__tree_nodeISI_PvEElEEEESQ_, symObjAddr: 0x3D6C4, symBinAddr: 0x100043BA4, symSize: 0x30 }
  - { offsetInCU: 0x264B2, offset: 0x4A51A, size: 0x8, addend: 0x0, symName: __ZNSt3__19__advanceB7v160006INS_14__map_iteratorINS_15__tree_iteratorINS_12__value_typeINS_12basic_stringIcNS_11char_traitsIcEENS_9allocatorIcEEEEN8nlohmann16json_abi_v3_11_310basic_jsonINS_3mapENS_6vectorES9_bxydS7_NSB_14adl_serializerENSE_IhNS7_IhEEEEvEEEEPNS_11__tree_nodeISJ_PvEElEEEEEEvRT_NS_15iterator_traitsISQ_E15difference_typeENS_26bidirectional_iterator_tagE, symObjAddr: 0x3D7EC, symBinAddr: 0x100043CCC, symSize: 0xA4 }
  - { offsetInCU: 0x264FC, offset: 0x4A564, size: 0x8, addend: 0x0, symName: __ZNSt3__19__advanceB7v160006INS_11__wrap_iterIPN8nlohmann16json_abi_v3_11_310basic_jsonINS_3mapENS_6vectorENS_12basic_stringIcNS_11char_traitsIcEENS_9allocatorIcEEEEbxydSA_NS3_14adl_serializerENS6_IhNSA_IhEEEEvEEEEEEvRT_NS_15iterator_traitsISJ_E15difference_typeENS_26random_access_iterator_tagE, symObjAddr: 0x3D8F4, symBinAddr: 0x100043DD4, symSize: 0x2C }
  - { offsetInCU: 0x26546, offset: 0x4A5AE, size: 0x8, addend: 0x0, symName: __ZNSt3__119__allocate_at_leastB7v160006INS_9allocatorIP6SectorEEEENS_19__allocation_resultINS_16allocator_traitsIT_E7pointerEEERS7_m, symObjAddr: 0x3E070, symBinAddr: 0x100044504, symSize: 0x40 }
  - { offsetInCU: 0x26589, offset: 0x4A5F1, size: 0x8, addend: 0x0, symName: __ZNSt3__142__uninitialized_allocator_move_if_noexceptB7v160006INS_9allocatorIP6SectorEENS_16reverse_iteratorIPS3_EES7_S3_vEET1_RT_T0_SB_S8_, symObjAddr: 0x3E224, symBinAddr: 0x100044660, symSize: 0x78 }
  - { offsetInCU: 0x26606, offset: 0x4A66E, size: 0x8, addend: 0x0, symName: __ZNSt3__14swapB7v160006IPP6SectorEENS_9enable_ifIXaasr21is_move_constructibleIT_EE5valuesr18is_move_assignableIS5_EE5valueEvE4typeERS5_S8_, symObjAddr: 0x3E2E8, symBinAddr: 0x100044724, symSize: 0x3C }
  - { offsetInCU: 0x26658, offset: 0x4A6C0, size: 0x8, addend: 0x0, symName: __ZNSt3__125__debug_db_invalidate_allB7v160006INS_6vectorIP6SectorNS_9allocatorIS3_EEEEEEvPT_, symObjAddr: 0x3E3D0, symBinAddr: 0x10004480C, symSize: 0x10 }
  - { offsetInCU: 0x26688, offset: 0x4A6F0, size: 0x8, addend: 0x0, symName: __ZNSt3__14moveB7v160006INS_16reverse_iteratorIPP6SectorEES5_EET0_T_S7_S6_, symObjAddr: 0x3E3E0, symBinAddr: 0x10004481C, symSize: 0x78 }
  - { offsetInCU: 0x266E2, offset: 0x4A74A, size: 0x8, addend: 0x0, symName: __ZNSt3__16__moveB7v160006INS_17_ClassicAlgPolicyENS_16reverse_iteratorIPP6SectorEES6_S6_EENS_4pairIT0_T2_EES8_T1_S9_, symObjAddr: 0x3E458, symBinAddr: 0x100044894, symSize: 0x64 }
  - { offsetInCU: 0x2674E, offset: 0x4A7B6, size: 0x8, addend: 0x0, symName: __ZNSt3__123__dispatch_copy_or_moveB7v160006INS_17_ClassicAlgPolicyENS_11__move_loopIS1_EENS_14__move_trivialENS_16reverse_iteratorIPP6SectorEES9_S9_EENS_4pairIT2_T4_EESB_T3_SC_, symObjAddr: 0x3E4BC, symBinAddr: 0x1000448F8, symSize: 0x64 }
  - { offsetInCU: 0x267CC, offset: 0x4A834, size: 0x8, addend: 0x0, symName: __ZNSt3__121__unwrap_and_dispatchB7v160006INS_10__overloadINS_11__move_loopINS_17_ClassicAlgPolicyEEENS_14__move_trivialEEENS_16reverse_iteratorIPP6SectorEESB_SB_Li0EEENS_4pairIT0_T2_EESD_T1_SE_, symObjAddr: 0x3E520, symBinAddr: 0x10004495C, symSize: 0x12C }
  - { offsetInCU: 0x2685D, offset: 0x4A8C5, size: 0x8, addend: 0x0, symName: __ZNSt3__114__unwrap_rangeB7v160006INS_16reverse_iteratorIPP6SectorEES5_EENS_4pairIT0_S7_EET_S9_, symObjAddr: 0x3E64C, symBinAddr: 0x100044A88, symSize: 0x84 }
  - { offsetInCU: 0x2697E, offset: 0x4A9E6, size: 0x8, addend: 0x0, symName: __ZNSt3__113__unwrap_iterB7v160006INS_16reverse_iteratorIPP6SectorEENS_18__unwrap_iter_implIS5_Lb0EEELi0EEEDTclsrT0_8__unwrapclsr3stdE7declvalIT_EEEES9_, symObjAddr: 0x3E770, symBinAddr: 0x100044BAC, symSize: 0x44 }
  - { offsetInCU: 0x269C3, offset: 0x4AA2B, size: 0x8, addend: 0x0, symName: __ZNSt3__19make_pairB7v160006INS_16reverse_iteratorIPP6SectorEES5_EENS_4pairINS_18__unwrap_ref_decayIT_E4typeENS7_IT0_E4typeEEEOS8_OSB_, symObjAddr: 0x3E7B4, symBinAddr: 0x100044BF0, symSize: 0x38 }
  - { offsetInCU: 0x26A12, offset: 0x4AA7A, size: 0x8, addend: 0x0, symName: __ZNSt3__114__rewrap_rangeB7v160006INS_16reverse_iteratorIPP6SectorEES5_EET_S6_T0_, symObjAddr: 0x3E7EC, symBinAddr: 0x100044C28, symSize: 0x5C }
  - { offsetInCU: 0x26A5E, offset: 0x4AAC6, size: 0x8, addend: 0x0, symName: __ZNSt3__113__rewrap_iterB7v160006INS_16reverse_iteratorIPP6SectorEES5_NS_18__unwrap_iter_implIS5_Lb0EEEEET_S8_T0_, symObjAddr: 0x3E848, symBinAddr: 0x100044C84, symSize: 0x74 }
  - { offsetInCU: 0x26AB3, offset: 0x4AB1B, size: 0x8, addend: 0x0, symName: __ZNSt3__1neB7v160006IPP6SectorS3_EEbRKNS_16reverse_iteratorIT_EERKNS4_IT0_EE, symObjAddr: 0x3E8BC, symBinAddr: 0x100044CF8, symSize: 0x48 }
  - { offsetInCU: 0x26B6C, offset: 0x4ABD4, size: 0x8, addend: 0x0, symName: __ZNSt3__142__uninitialized_allocator_move_if_noexceptB7v160006INS_9allocatorIdEENS_16reverse_iteratorIPdEES5_dvEET1_RT_T0_S9_S6_, symObjAddr: 0x3FB98, symBinAddr: 0x100045FD4, symSize: 0x78 }
  - { offsetInCU: 0x26BE9, offset: 0x4AC51, size: 0x8, addend: 0x0, symName: __ZNSt3__14swapB7v160006IPdEENS_9enable_ifIXaasr21is_move_constructibleIT_EE5valuesr18is_move_assignableIS3_EE5valueEvE4typeERS3_S6_, symObjAddr: 0x3FC10, symBinAddr: 0x10004604C, symSize: 0x3C }
  - { offsetInCU: 0x26C3B, offset: 0x4ACA3, size: 0x8, addend: 0x0, symName: __ZNSt3__125__debug_db_invalidate_allB7v160006INS_6vectorIdNS_9allocatorIdEEEEEEvPT_, symObjAddr: 0x3FC4C, symBinAddr: 0x100046088, symSize: 0x10 }
  - { offsetInCU: 0x26C6B, offset: 0x4ACD3, size: 0x8, addend: 0x0, symName: __ZNSt3__14moveB7v160006INS_16reverse_iteratorIPdEES3_EET0_T_S5_S4_, symObjAddr: 0x3FC5C, symBinAddr: 0x100046098, symSize: 0x78 }
  - { offsetInCU: 0x26CC5, offset: 0x4AD2D, size: 0x8, addend: 0x0, symName: __ZNSt3__16__moveB7v160006INS_17_ClassicAlgPolicyENS_16reverse_iteratorIPdEES4_S4_EENS_4pairIT0_T2_EES6_T1_S7_, symObjAddr: 0x3FCD4, symBinAddr: 0x100046110, symSize: 0x64 }
  - { offsetInCU: 0x26D31, offset: 0x4AD99, size: 0x8, addend: 0x0, symName: __ZNSt3__123__dispatch_copy_or_moveB7v160006INS_17_ClassicAlgPolicyENS_11__move_loopIS1_EENS_14__move_trivialENS_16reverse_iteratorIPdEES7_S7_EENS_4pairIT2_T4_EES9_T3_SA_, symObjAddr: 0x3FD38, symBinAddr: 0x100046174, symSize: 0x64 }
  - { offsetInCU: 0x26DAF, offset: 0x4AE17, size: 0x8, addend: 0x0, symName: __ZNSt3__121__unwrap_and_dispatchB7v160006INS_10__overloadINS_11__move_loopINS_17_ClassicAlgPolicyEEENS_14__move_trivialEEENS_16reverse_iteratorIPdEES9_S9_Li0EEENS_4pairIT0_T2_EESB_T1_SC_, symObjAddr: 0x3FD9C, symBinAddr: 0x1000461D8, symSize: 0x12C }
  - { offsetInCU: 0x26E40, offset: 0x4AEA8, size: 0x8, addend: 0x0, symName: __ZNSt3__114__unwrap_rangeB7v160006INS_16reverse_iteratorIPdEES3_EENS_4pairIT0_S5_EET_S7_, symObjAddr: 0x3FEC8, symBinAddr: 0x100046304, symSize: 0x84 }
  - { offsetInCU: 0x26F61, offset: 0x4AFC9, size: 0x8, addend: 0x0, symName: __ZNSt3__113__unwrap_iterB7v160006INS_16reverse_iteratorIPdEENS_18__unwrap_iter_implIS3_Lb0EEELi0EEEDTclsrT0_8__unwrapclsr3stdE7declvalIT_EEEES7_, symObjAddr: 0x3FFEC, symBinAddr: 0x100046428, symSize: 0x44 }
  - { offsetInCU: 0x26FA6, offset: 0x4B00E, size: 0x8, addend: 0x0, symName: __ZNSt3__19make_pairB7v160006INS_16reverse_iteratorIPdEES3_EENS_4pairINS_18__unwrap_ref_decayIT_E4typeENS5_IT0_E4typeEEEOS6_OS9_, symObjAddr: 0x40030, symBinAddr: 0x10004646C, symSize: 0x38 }
  - { offsetInCU: 0x26FF5, offset: 0x4B05D, size: 0x8, addend: 0x0, symName: __ZNSt3__114__rewrap_rangeB7v160006INS_16reverse_iteratorIPdEES3_EET_S4_T0_, symObjAddr: 0x40068, symBinAddr: 0x1000464A4, symSize: 0x5C }
  - { offsetInCU: 0x27041, offset: 0x4B0A9, size: 0x8, addend: 0x0, symName: __ZNSt3__113__rewrap_iterB7v160006INS_16reverse_iteratorIPdEES3_NS_18__unwrap_iter_implIS3_Lb0EEEEET_S6_T0_, symObjAddr: 0x400C4, symBinAddr: 0x100046500, symSize: 0x74 }
  - { offsetInCU: 0x27103, offset: 0x4B16B, size: 0x8, addend: 0x0, symName: __ZNSt3__142__uninitialized_allocator_move_if_noexceptB7v160006INS_9allocatorINS_12basic_stringIcNS_11char_traitsIcEENS1_IcEEEEEENS_16reverse_iteratorIPS6_EESA_SA_EET2_RT_T0_T1_SB_, symObjAddr: 0x40F18, symBinAddr: 0x1000471E0, symSize: 0x11C }
  - { offsetInCU: 0x271A5, offset: 0x4B20D, size: 0x8, addend: 0x0, symName: __ZNSt3__14swapB7v160006IPNS_12basic_stringIcNS_11char_traitsIcEENS_9allocatorIcEEEEEENS_9enable_ifIXaasr21is_move_constructibleIT_EE5valuesr18is_move_assignableIS9_EE5valueEvE4typeERS9_SC_, symObjAddr: 0x41034, symBinAddr: 0x1000472FC, symSize: 0x3C }
  - { offsetInCU: 0x271F7, offset: 0x4B25F, size: 0x8, addend: 0x0, symName: __ZNSt3__125__debug_db_invalidate_allB7v160006INS_6vectorINS_12basic_stringIcNS_11char_traitsIcEENS_9allocatorIcEEEENS5_IS7_EEEEEEvPT_, symObjAddr: 0x41070, symBinAddr: 0x100047338, symSize: 0x10 }
  - { offsetInCU: 0x27227, offset: 0x4B28F, size: 0x8, addend: 0x0, symName: __ZNSt3__122__make_exception_guardB7v160006INS_29_AllocatorDestroyRangeReverseINS_9allocatorINS_12basic_stringIcNS_11char_traitsIcEENS2_IcEEEEEENS_16reverse_iteratorIPS7_EEEEEENS_28__exception_guard_exceptionsIT_EESE_, symObjAddr: 0x41080, symBinAddr: 0x100047348, symSize: 0x4C }
  - { offsetInCU: 0x2725E, offset: 0x4B2C6, size: 0x8, addend: 0x0, symName: __ZNSt3__119__allocator_destroyB7v160006INS_9allocatorINS_12basic_stringIcNS_11char_traitsIcEENS1_IcEEEEEENS_16reverse_iteratorINS8_IPS6_EEEESB_EEvRT_T0_T1_, symObjAddr: 0x4135C, symBinAddr: 0x100047624, symSize: 0x70 }
  - { offsetInCU: 0x272C2, offset: 0x4B32A, size: 0x8, addend: 0x0, symName: __ZNSt3__1neB7v160006INS_16reverse_iteratorIPNS_12basic_stringIcNS_11char_traitsIcEENS_9allocatorIcEEEEEES9_EEbRKNS1_IT_EERKNS1_IT0_EE, symObjAddr: 0x41408, symBinAddr: 0x1000476D0, symSize: 0x60 }
  - { offsetInCU: 0x2730E, offset: 0x4B376, size: 0x8, addend: 0x0, symName: __ZNSt3__112__to_addressB7v160006INS_16reverse_iteratorINS1_IPNS_12basic_stringIcNS_11char_traitsIcEENS_9allocatorIcEEEEEEEEvEENS_5decayIDTclsr19__to_address_helperIT_EE6__callclsr3stdE7declvalIRKSC_EEEEE4typeESE_, symObjAddr: 0x41468, symBinAddr: 0x100047730, symSize: 0x24 }
  - { offsetInCU: 0x2736E, offset: 0x4B3D6, size: 0x8, addend: 0x0, symName: __ZNSt3__14copyB7v160006IPKcPcEET0_T_S5_S4_, symObjAddr: 0x424D8, symBinAddr: 0x1000480D0, symSize: 0x40 }
  - { offsetInCU: 0x273C8, offset: 0x4B430, size: 0x8, addend: 0x0, symName: __ZNSt3__16__copyB7v160006INS_17_ClassicAlgPolicyEPKcS3_PcEENS_4pairIT0_T2_EES6_T1_S7_, symObjAddr: 0x42518, symBinAddr: 0x100048110, symSize: 0x44 }
  - { offsetInCU: 0x27434, offset: 0x4B49C, size: 0x8, addend: 0x0, symName: __ZNSt3__123__dispatch_copy_or_moveB7v160006INS_17_ClassicAlgPolicyENS_11__copy_loopIS1_EENS_14__copy_trivialEPKcS6_PcEENS_4pairIT2_T4_EES9_T3_SA_, symObjAddr: 0x4255C, symBinAddr: 0x100048154, symSize: 0x44 }
  - { offsetInCU: 0x274B2, offset: 0x4B51A, size: 0x8, addend: 0x0, symName: __ZNSt3__121__unwrap_and_dispatchB7v160006INS_10__overloadINS_11__copy_loopINS_17_ClassicAlgPolicyEEENS_14__copy_trivialEEEPKcS8_PcLi0EEENS_4pairIT0_T2_EESB_T1_SC_, symObjAddr: 0x425A0, symBinAddr: 0x100048198, symSize: 0xB4 }
  - { offsetInCU: 0x27541, offset: 0x4B5A9, size: 0x8, addend: 0x0, symName: __ZNSt3__114__unwrap_rangeB7v160006IPKcS2_EENS_4pairIT0_S4_EET_S6_, symObjAddr: 0x42654, symBinAddr: 0x10004824C, symSize: 0x60 }
  - { offsetInCU: 0x27692, offset: 0x4B6FA, size: 0x8, addend: 0x0, symName: __ZNSt3__113__unwrap_iterB7v160006IPcNS_18__unwrap_iter_implIS1_Lb1EEELi0EEEDTclsrT0_8__unwrapclsr3stdE7declvalIT_EEEES5_, symObjAddr: 0x426FC, symBinAddr: 0x1000482F4, symSize: 0x24 }
  - { offsetInCU: 0x276D7, offset: 0x4B73F, size: 0x8, addend: 0x0, symName: __ZNSt3__19make_pairB7v160006IPKcPcEENS_4pairINS_18__unwrap_ref_decayIT_E4typeENS5_IT0_E4typeEEEOS6_OS9_, symObjAddr: 0x42720, symBinAddr: 0x100048318, symSize: 0x38 }
  - { offsetInCU: 0x27726, offset: 0x4B78E, size: 0x8, addend: 0x0, symName: __ZNSt3__114__rewrap_rangeB7v160006IPKcS2_EET_S3_T0_, symObjAddr: 0x42758, symBinAddr: 0x100048350, symSize: 0x2C }
  - { offsetInCU: 0x27772, offset: 0x4B7DA, size: 0x8, addend: 0x0, symName: __ZNSt3__113__rewrap_iterB7v160006IPcS1_NS_18__unwrap_iter_implIS1_Lb1EEEEET_S4_T0_, symObjAddr: 0x42784, symBinAddr: 0x10004837C, symSize: 0x3C }
  - { offsetInCU: 0x277C7, offset: 0x4B82F, size: 0x8, addend: 0x0, symName: __ZNSt3__19make_pairB7v160006IPKcS2_EENS_4pairINS_18__unwrap_ref_decayIT_E4typeENS4_IT0_E4typeEEEOS5_OS8_, symObjAddr: 0x427C0, symBinAddr: 0x1000483B8, symSize: 0x38 }
  - { offsetInCU: 0x27816, offset: 0x4B87E, size: 0x8, addend: 0x0, symName: __ZNSt3__113__unwrap_iterB7v160006IPKcNS_18__unwrap_iter_implIS2_Lb1EEELi0EEEDTclsrT0_8__unwrapclsr3stdE7declvalIT_EEEES6_, symObjAddr: 0x427F8, symBinAddr: 0x1000483F0, symSize: 0x24 }
  - { offsetInCU: 0x27983, offset: 0x4B9EB, size: 0x8, addend: 0x0, symName: __ZNSt3__119__copy_trivial_implB7v160006IKccEENS_4pairIPT_PT0_EES4_S4_S6_, symObjAddr: 0x428B0, symBinAddr: 0x1000484A8, symSize: 0x7C }
  - { offsetInCU: 0x279EB, offset: 0x4BA53, size: 0x8, addend: 0x0, symName: __ZNSt3__19make_pairB7v160006IRPKcPcEENS_4pairINS_18__unwrap_ref_decayIT_E4typeENS6_IT0_E4typeEEEOS7_OSA_, symObjAddr: 0x4292C, symBinAddr: 0x100048524, symSize: 0x38 }
  - { offsetInCU: 0x27A8D, offset: 0x4BAF5, size: 0x8, addend: 0x0, symName: __ZNSt3__113__rewrap_iterB7v160006IPKcS2_NS_18__unwrap_iter_implIS2_Lb1EEEEET_S5_T0_, symObjAddr: 0x42A68, symBinAddr: 0x100048660, symSize: 0x3C }
  - { offsetInCU: 0x27AE2, offset: 0x4BB4A, size: 0x8, addend: 0x0, symName: __ZNSt3__16fill_nB7v160006IPcmcEET_S2_T0_RKT1_, symObjAddr: 0x42B34, symBinAddr: 0x10004872C, symSize: 0x44 }
  - { offsetInCU: 0x27B45, offset: 0x4BBAD, size: 0x8, addend: 0x0, symName: __ZNSt3__18__fill_nB7v160006IPcmcEET_S2_T0_RKT1_, symObjAddr: 0x42B78, symBinAddr: 0x100048770, symSize: 0x64 }
  - { offsetInCU: 0x27BA8, offset: 0x4BC10, size: 0x8, addend: 0x0, symName: __ZNSt3__121__convert_to_integralB7v160006Em, symObjAddr: 0x42BDC, symBinAddr: 0x1000487D4, symSize: 0x14 }
  - { offsetInCU: 0x27BD4, offset: 0x4BC3C, size: 0x8, addend: 0x0, symName: __ZNSt3__1eqB7v160006IN8nlohmann16json_abi_v3_11_310basic_jsonINS_3mapENS_6vectorENS_12basic_stringIcNS_11char_traitsIcEENS_9allocatorIcEEEEbxydS9_NS2_14adl_serializerENS5_IhNS9_IhEEEEvEENS9_ISF_EEEEbRKNS5_IT_T0_EESL_, symObjAddr: 0x42C08, symBinAddr: 0x100048800, symSize: 0x9C }
  - { offsetInCU: 0x27C33, offset: 0x4BC9B, size: 0x8, addend: 0x0, symName: __ZNSt3__1eqB7v160006INS_12basic_stringIcNS_11char_traitsIcEENS_9allocatorIcEEEEN8nlohmann16json_abi_v3_11_310basic_jsonINS_3mapENS_6vectorES6_bxydS4_NS8_14adl_serializerENSB_IhNS4_IhEEEEvEENS_4lessIS6_EENS4_INS_4pairIKS6_SF_EEEEEEbRKNSA_IT_T0_T1_T2_EESS_, symObjAddr: 0x42CA4, symBinAddr: 0x10004889C, symSize: 0x98 }
  - { offsetInCU: 0x27C94, offset: 0x4BCFC, size: 0x8, addend: 0x0, symName: __ZNSt3__15equalB7v160006INS_11__wrap_iterIPKN8nlohmann16json_abi_v3_11_310basic_jsonINS_3mapENS_6vectorENS_12basic_stringIcNS_11char_traitsIcEENS_9allocatorIcEEEEbxydSA_NS3_14adl_serializerENS6_IhNSA_IhEEEEvEEEESJ_EEbT_SK_T0_, symObjAddr: 0x42E98, symBinAddr: 0x100048A90, symSize: 0x50 }
  - { offsetInCU: 0x27CEE, offset: 0x4BD56, size: 0x8, addend: 0x0, symName: __ZNSt3__15equalB7v160006INS_11__wrap_iterIPKN8nlohmann16json_abi_v3_11_310basic_jsonINS_3mapENS_6vectorENS_12basic_stringIcNS_11char_traitsIcEENS_9allocatorIcEEEEbxydSA_NS3_14adl_serializerENS6_IhNSA_IhEEEEvEEEESJ_NS_10__equal_toEEEbT_SL_T0_T1_, symObjAddr: 0x42EE8, symBinAddr: 0x100048AE0, symSize: 0xB0 }
  - { offsetInCU: 0x27DFC, offset: 0x4BE64, size: 0x8, addend: 0x0, symName: __ZNSt3__15equalB7v160006INS_20__map_const_iteratorINS_21__tree_const_iteratorINS_12__value_typeINS_12basic_stringIcNS_11char_traitsIcEENS_9allocatorIcEEEEN8nlohmann16json_abi_v3_11_310basic_jsonINS_3mapENS_6vectorES9_bxydS7_NSB_14adl_serializerENSE_IhNS7_IhEEEEvEEEEPNS_11__tree_nodeISJ_PvEElEEEESP_EEbT_SQ_T0_, symObjAddr: 0x42FCC, symBinAddr: 0x100048BC4, symSize: 0x50 }
  - { offsetInCU: 0x27E56, offset: 0x4BEBE, size: 0x8, addend: 0x0, symName: __ZNSt3__15equalB7v160006INS_20__map_const_iteratorINS_21__tree_const_iteratorINS_12__value_typeINS_12basic_stringIcNS_11char_traitsIcEENS_9allocatorIcEEEEN8nlohmann16json_abi_v3_11_310basic_jsonINS_3mapENS_6vectorES9_bxydS7_NSB_14adl_serializerENSE_IhNS7_IhEEEEvEEEEPNS_11__tree_nodeISJ_PvEElEEEESP_NS_10__equal_toEEEbT_SR_T0_T1_, symObjAddr: 0x4301C, symBinAddr: 0x100048C14, symSize: 0xB0 }
  - { offsetInCU: 0x27EC7, offset: 0x4BF2F, size: 0x8, addend: 0x0, symName: __ZNSt3__1eqB7v160006IKNS_12basic_stringIcNS_11char_traitsIcEENS_9allocatorIcEEEEN8nlohmann16json_abi_v3_11_310basic_jsonINS_3mapENS_6vectorES6_bxydS4_NS9_14adl_serializerENSC_IhNS4_IhEEEEvEEEEbRKNS_4pairIT_T0_EESM_, symObjAddr: 0x43100, symBinAddr: 0x100048CF8, symSize: 0x60 }
  - { offsetInCU: 0x27F16, offset: 0x4BF7E, size: 0x8, addend: 0x0, symName: __ZNSt3__1eqB7v160006IJRKNS_6vectorIhNS_9allocatorIhEEEERKyRKbEJS6_S8_SA_EEEbRKNS_5tupleIJDpT_EEERKNSB_IJDpT0_EEE, symObjAddr: 0x43160, symBinAddr: 0x100048D58, symSize: 0x34 }
  - { offsetInCU: 0x27F7D, offset: 0x4BFE5, size: 0x8, addend: 0x0, symName: __ZNSt3__13tieB7v160006IJKNS_6vectorIhNS_9allocatorIhEEEEKyKbEEENS_5tupleIJDpRT_EEESB_, symObjAddr: 0x43194, symBinAddr: 0x100048D8C, symSize: 0x40 }
  - { offsetInCU: 0x285A0, offset: 0x4C608, size: 0x8, addend: 0x0, symName: __ZNSt3__13getB7v160006ILm2EJRKNS_6vectorIhNS_9allocatorIhEEEERKyRKbEEERKNS_13tuple_elementIXT_ENS_5tupleIJDpT0_EEEE4typeERKSF_, symObjAddr: 0x432D4, symBinAddr: 0x100048ECC, symSize: 0x28 }
  - { offsetInCU: 0x28634, offset: 0x4C69C, size: 0x8, addend: 0x0, symName: __ZNSt3__13getB7v160006ILm1EJRKNS_6vectorIhNS_9allocatorIhEEEERKyRKbEEERKNS_13tuple_elementIXT_ENS_5tupleIJDpT0_EEEE4typeERKSF_, symObjAddr: 0x43370, symBinAddr: 0x100048F68, symSize: 0x28 }
  - { offsetInCU: 0x286C8, offset: 0x4C730, size: 0x8, addend: 0x0, symName: __ZNSt3__1eqB7v160006IhNS_9allocatorIhEEEEbRKNS_6vectorIT_T0_EES8_, symObjAddr: 0x433B8, symBinAddr: 0x100048FB0, symSize: 0x9C }
  - { offsetInCU: 0x28727, offset: 0x4C78F, size: 0x8, addend: 0x0, symName: __ZNSt3__13getB7v160006ILm0EJRKNS_6vectorIhNS_9allocatorIhEEEERKyRKbEEERKNS_13tuple_elementIXT_ENS_5tupleIJDpT0_EEEE4typeERKSF_, symObjAddr: 0x43454, symBinAddr: 0x10004904C, symSize: 0x24 }
  - { offsetInCU: 0x28774, offset: 0x4C7DC, size: 0x8, addend: 0x0, symName: __ZNSt3__15equalB7v160006INS_11__wrap_iterIPKhEES4_EEbT_S5_T0_, symObjAddr: 0x43478, symBinAddr: 0x100049070, symSize: 0x50 }
  - { offsetInCU: 0x287CE, offset: 0x4C836, size: 0x8, addend: 0x0, symName: __ZNSt3__15equalB7v160006INS_11__wrap_iterIPKhEES4_NS_10__equal_toEEEbT_S6_T0_T1_, symObjAddr: 0x434C8, symBinAddr: 0x1000490C0, symSize: 0xB0 }
  - { offsetInCU: 0x2885F, offset: 0x4C8C7, size: 0x8, addend: 0x0, symName: __ZNSt3__120__throw_out_of_rangeB7v160006EPKc, symObjAddr: 0x43808, symBinAddr: 0x100049400, symSize: 0x64 }
  - { offsetInCU: 0x28EE6, offset: 0x4CF4E, size: 0x8, addend: 0x0, symName: __ZNSt3__116forward_as_tupleB7v160006IJNS_6__bindIM14SpaceSectorBSTFvvEJPS2_EEEEEENS_5tupleIJDpOT_EEESA_, symObjAddr: 0x4459C, symBinAddr: 0x10004A194, symSize: 0x2C }
  - { offsetInCU: 0x28F1F, offset: 0x4CF87, size: 0x8, addend: 0x0, symName: __ZNSt3__116forward_as_tupleB7v160006IJNS_9allocatorINS_6__bindIM14SpaceSectorBSTFvvEJPS3_EEEEEEEENS_5tupleIJDpOT_EEESC_, symObjAddr: 0x445C8, symBinAddr: 0x10004A1C0, symSize: 0x2C }
  - { offsetInCU: 0x28F82, offset: 0x4CFEA, size: 0x8, addend: 0x0, symName: __ZNSt3__13getB7v160006ILm0EJONS_6__bindIM14SpaceSectorBSTFvvEJPS2_EEEEEERNS_13tuple_elementIXT_ENS_5tupleIJDpT0_EEEE4typeERSC_, symObjAddr: 0x448E8, symBinAddr: 0x10004A4E0, symSize: 0x24 }
  - { offsetInCU: 0x28FC4, offset: 0x4D02C, size: 0x8, addend: 0x0, symName: __ZNSt3__13getB7v160006ILm0EJONS_9allocatorINS_6__bindIM14SpaceSectorBSTFvvEJPS3_EEEEEEEERNS_13tuple_elementIXT_ENS_5tupleIJDpT0_EEEE4typeERSE_, symObjAddr: 0x44924, symBinAddr: 0x10004A51C, symSize: 0x24 }
  - { offsetInCU: 0x29193, offset: 0x4D1FB, size: 0x8, addend: 0x0, symName: __ZNSt3__116forward_as_tupleB7v160006IJRKNS_6__bindIM14SpaceSectorBSTFvvEJPS2_EEEEEENS_5tupleIJDpOT_EEESC_, symObjAddr: 0x44D20, symBinAddr: 0x10004A918, symSize: 0x2C }
  - { offsetInCU: 0x291E1, offset: 0x4D249, size: 0x8, addend: 0x0, symName: __ZNSt3__13getB7v160006ILm0EJRKNS_6__bindIM14SpaceSectorBSTFvvEJPS2_EEEEEERNS_13tuple_elementIXT_ENS_5tupleIJDpT0_EEEE4typeERSD_, symObjAddr: 0x44F18, symBinAddr: 0x10004AB10, symSize: 0x24 }
  - { offsetInCU: 0x29223, offset: 0x4D28B, size: 0x8, addend: 0x0, symName: __ZNSt3__116forward_as_tupleB7v160006IJRKNS_9allocatorINS_6__bindIM14SpaceSectorBSTFvvEJPS3_EEEEEEEENS_5tupleIJDpOT_EEESE_, symObjAddr: 0x45274, symBinAddr: 0x10004AE6C, symSize: 0x2C }
  - { offsetInCU: 0x29271, offset: 0x4D2D9, size: 0x8, addend: 0x0, symName: __ZNSt3__13getB7v160006ILm0EJRKNS_9allocatorINS_6__bindIM14SpaceSectorBSTFvvEJPS3_EEEEEEEERNS_13tuple_elementIXT_ENS_5tupleIJDpT0_EEEE4typeERSF_, symObjAddr: 0x45458, symBinAddr: 0x10004B050, symSize: 0x24 }
  - { offsetInCU: 0x29305, offset: 0x4D36D, size: 0x8, addend: 0x0, symName: __ZNSt3__18__invokeB7v160006IRNS_6__bindIM14SpaceSectorBSTFvvEJPS2_EEEJEEEDTclclsr3stdE7declvalIT_EEspclsr3stdE7declvalIT0_EEEEOS8_DpOS9_, symObjAddr: 0x45514, symBinAddr: 0x10004B10C, symSize: 0x24 }
  - { offsetInCU: 0x29377, offset: 0x4D3DF, size: 0x8, addend: 0x0, symName: __ZNSt3__115__apply_functorB7v160006IM14SpaceSectorBSTFvvENS_5tupleIJPS1_EEEJLm0EENS4_IJEEEEENS_13__bind_returnIT_T0_T2_Xsr22__is_valid_bind_returnIS9_SA_SB_EE5valueEE4typeERS9_RSA_NS_15__tuple_indicesIJXspT1_EEEEOSB_, symObjAddr: 0x45568, symBinAddr: 0x10004B160, symSize: 0x48 }
  - { offsetInCU: 0x293F7, offset: 0x4D45F, size: 0x8, addend: 0x0, symName: __ZNSt3__18__invokeB7v160006IRM14SpaceSectorBSTFvvERPS1_JEvEEDTcldsdeclsr3stdE7declvalIT0_EEclsr3stdE7declvalIT_EEspclsr3stdE7declvalIT1_EEEEOS8_OS7_DpOS9_, symObjAddr: 0x455B0, symBinAddr: 0x10004B1A8, symSize: 0x80 }
  - { offsetInCU: 0x29447, offset: 0x4D4AF, size: 0x8, addend: 0x0, symName: __ZNSt3__14__muB7v160006IP14SpaceSectorBSTNS_5tupleIJEEEEENS_9enable_ifIXaaaantsr18is_bind_expressionIT_EE5valueeqsr14is_placeholderIS6_EE5valueLi0Entsr22__is_reference_wrapperIS6_EE5valueERS6_E4typeES7_RT0_, symObjAddr: 0x45630, symBinAddr: 0x10004B228, symSize: 0x18 }
  - { offsetInCU: 0x2948F, offset: 0x4D4F7, size: 0x8, addend: 0x0, symName: __ZNSt3__13getB7v160006ILm0EJP14SpaceSectorBSTEEERNS_13tuple_elementIXT_ENS_5tupleIJDpT0_EEEE4typeERS7_, symObjAddr: 0x45648, symBinAddr: 0x10004B240, symSize: 0x24 }
  - { offsetInCU: 0x29813, offset: 0x4D87B, size: 0x8, addend: 0x0, symName: __ZNSt3__1neB7v160006INS_12basic_stringIcNS_11char_traitsIcEENS_9allocatorIcEEEEZN8nlohmann16json_abi_v3_11_310basic_jsonINS_3mapENS_6vectorES6_bxydS4_NS8_14adl_serializerENSB_IhNS4_IhEEEEvE6createIS6_JS6_EEEPT_DpOT0_EUlPS6_E_EEbRKNS_10unique_ptrISH_T0_EEDn, symObjAddr: 0x45C64, symBinAddr: 0x10004B85C, symSize: 0x2C }
  - { offsetInCU: 0x299CC, offset: 0x4DA34, size: 0x8, addend: 0x0, symName: '__ZNSt3__116forward_as_tupleB7v160006IJZ11test_outputvE3$_0EEENS_5tupleIJDpOT_EEES5_', symObjAddr: 0x46670, symBinAddr: 0x10004C268, symSize: 0x2C }
  - { offsetInCU: 0x29A06, offset: 0x4DA6E, size: 0x8, addend: 0x0, symName: '__ZNSt3__116forward_as_tupleB7v160006IJNS_9allocatorIZ11test_outputvE3$_0EEEEENS_5tupleIJDpOT_EEES7_', symObjAddr: 0x4669C, symBinAddr: 0x10004C294, symSize: 0x2C }
  - { offsetInCU: 0x29A6A, offset: 0x4DAD2, size: 0x8, addend: 0x0, symName: '__ZNSt3__13getB7v160006ILm0EJOZ11test_outputvE3$_0EEERNS_13tuple_elementIXT_ENS_5tupleIJDpT0_EEEE4typeERS7_', symObjAddr: 0x469B4, symBinAddr: 0x10004C5AC, symSize: 0x24 }
  - { offsetInCU: 0x29AAD, offset: 0x4DB15, size: 0x8, addend: 0x0, symName: '__ZNSt3__13getB7v160006ILm0EJONS_9allocatorIZ11test_outputvE3$_0EEEEERNS_13tuple_elementIXT_ENS_5tupleIJDpT0_EEEE4typeERS9_', symObjAddr: 0x469F0, symBinAddr: 0x10004C5E8, symSize: 0x24 }
  - { offsetInCU: 0x29FF9, offset: 0x4E061, size: 0x8, addend: 0x0, symName: '__ZNSt3__116forward_as_tupleB7v160006IJRKZ11test_outputvE3$_0EEENS_5tupleIJDpOT_EEES7_', symObjAddr: 0x46F84, symBinAddr: 0x10004CB7C, symSize: 0x2C }
  - { offsetInCU: 0x2A048, offset: 0x4E0B0, size: 0x8, addend: 0x0, symName: '__ZNSt3__13getB7v160006ILm0EJRKZ11test_outputvE3$_0EEERNS_13tuple_elementIXT_ENS_5tupleIJDpT0_EEEE4typeERS8_', symObjAddr: 0x47174, symBinAddr: 0x10004CD6C, symSize: 0x24 }
  - { offsetInCU: 0x2A08B, offset: 0x4E0F3, size: 0x8, addend: 0x0, symName: '__ZNSt3__116forward_as_tupleB7v160006IJRKNS_9allocatorIZ11test_outputvE3$_0EEEEENS_5tupleIJDpOT_EEES9_', symObjAddr: 0x474D0, symBinAddr: 0x10004D0C8, symSize: 0x2C }
  - { offsetInCU: 0x2A0DA, offset: 0x4E142, size: 0x8, addend: 0x0, symName: '__ZNSt3__13getB7v160006ILm0EJRKNS_9allocatorIZ11test_outputvE3$_0EEEEERNS_13tuple_elementIXT_ENS_5tupleIJDpT0_EEEE4typeERSA_', symObjAddr: 0x476B4, symBinAddr: 0x10004D2AC, symSize: 0x24 }
  - { offsetInCU: 0x2A11D, offset: 0x4E185, size: 0x8, addend: 0x0, symName: '__ZNSt3__18__invokeB7v160006IRZ11test_outputvE3$_0JEEEDTclclsr3stdE7declvalIT_EEspclsr3stdE7declvalIT0_EEEEOS3_DpOS4_', symObjAddr: 0x47770, symBinAddr: 0x10004D368, symSize: 0x24 }
  - { offsetInCU: 0x2A155, offset: 0x4E1BD, size: 0x8, addend: 0x0, symName: __ZNSt3__130__uninitialized_allocator_copyB7v160006INS_9allocatorIdEEddLPv0EEEPT0_RT_PKS4_S9_S5_, symObjAddr: 0x479D4, symBinAddr: 0x10004D5CC, symSize: 0x38 }
  - { offsetInCU: 0x2A1CE, offset: 0x4E236, size: 0x8, addend: 0x0, symName: __ZNSt3__14copyB7v160006IPKdPdEET0_T_S5_S4_, symObjAddr: 0x47A0C, symBinAddr: 0x10004D604, symSize: 0x40 }
  - { offsetInCU: 0x2A228, offset: 0x4E290, size: 0x8, addend: 0x0, symName: __ZNSt3__16__copyB7v160006INS_17_ClassicAlgPolicyEPKdS3_PdEENS_4pairIT0_T2_EES6_T1_S7_, symObjAddr: 0x47A4C, symBinAddr: 0x10004D644, symSize: 0x44 }
  - { offsetInCU: 0x2A294, offset: 0x4E2FC, size: 0x8, addend: 0x0, symName: __ZNSt3__123__dispatch_copy_or_moveB7v160006INS_17_ClassicAlgPolicyENS_11__copy_loopIS1_EENS_14__copy_trivialEPKdS6_PdEENS_4pairIT2_T4_EES9_T3_SA_, symObjAddr: 0x47A90, symBinAddr: 0x10004D688, symSize: 0x44 }
  - { offsetInCU: 0x2A312, offset: 0x4E37A, size: 0x8, addend: 0x0, symName: __ZNSt3__121__unwrap_and_dispatchB7v160006INS_10__overloadINS_11__copy_loopINS_17_ClassicAlgPolicyEEENS_14__copy_trivialEEEPKdS8_PdLi0EEENS_4pairIT0_T2_EESB_T1_SC_, symObjAddr: 0x47AD4, symBinAddr: 0x10004D6CC, symSize: 0xB4 }
  - { offsetInCU: 0x2A3A1, offset: 0x4E409, size: 0x8, addend: 0x0, symName: __ZNSt3__114__unwrap_rangeB7v160006IPKdS2_EENS_4pairIT0_S4_EET_S6_, symObjAddr: 0x47B88, symBinAddr: 0x10004D780, symSize: 0x60 }
  - { offsetInCU: 0x2A4F2, offset: 0x4E55A, size: 0x8, addend: 0x0, symName: __ZNSt3__113__unwrap_iterB7v160006IPdNS_18__unwrap_iter_implIS1_Lb1EEELi0EEEDTclsrT0_8__unwrapclsr3stdE7declvalIT_EEEES5_, symObjAddr: 0x47C30, symBinAddr: 0x10004D828, symSize: 0x24 }
  - { offsetInCU: 0x2A537, offset: 0x4E59F, size: 0x8, addend: 0x0, symName: __ZNSt3__19make_pairB7v160006IPKdPdEENS_4pairINS_18__unwrap_ref_decayIT_E4typeENS5_IT0_E4typeEEEOS6_OS9_, symObjAddr: 0x47C54, symBinAddr: 0x10004D84C, symSize: 0x38 }
  - { offsetInCU: 0x2A586, offset: 0x4E5EE, size: 0x8, addend: 0x0, symName: __ZNSt3__114__rewrap_rangeB7v160006IPKdS2_EET_S3_T0_, symObjAddr: 0x47C8C, symBinAddr: 0x10004D884, symSize: 0x2C }
  - { offsetInCU: 0x2A5D2, offset: 0x4E63A, size: 0x8, addend: 0x0, symName: __ZNSt3__113__rewrap_iterB7v160006IPdS1_NS_18__unwrap_iter_implIS1_Lb1EEEEET_S4_T0_, symObjAddr: 0x47CB8, symBinAddr: 0x10004D8B0, symSize: 0x3C }
  - { offsetInCU: 0x2A627, offset: 0x4E68F, size: 0x8, addend: 0x0, symName: __ZNSt3__19make_pairB7v160006IPKdS2_EENS_4pairINS_18__unwrap_ref_decayIT_E4typeENS4_IT0_E4typeEEEOS5_OS8_, symObjAddr: 0x47CF4, symBinAddr: 0x10004D8EC, symSize: 0x38 }
  - { offsetInCU: 0x2A676, offset: 0x4E6DE, size: 0x8, addend: 0x0, symName: __ZNSt3__113__unwrap_iterB7v160006IPKdNS_18__unwrap_iter_implIS2_Lb1EEELi0EEEDTclsrT0_8__unwrapclsr3stdE7declvalIT_EEEES6_, symObjAddr: 0x47D2C, symBinAddr: 0x10004D924, symSize: 0x24 }
  - { offsetInCU: 0x2A7E3, offset: 0x4E84B, size: 0x8, addend: 0x0, symName: __ZNSt3__112__to_addressB7v160006IKdEEPT_S3_, symObjAddr: 0x47DE4, symBinAddr: 0x10004D9DC, symSize: 0x14 }
  - { offsetInCU: 0x2A818, offset: 0x4E880, size: 0x8, addend: 0x0, symName: __ZNSt3__119__copy_trivial_implB7v160006IKddEENS_4pairIPT_PT0_EES4_S4_S6_, symObjAddr: 0x47DF8, symBinAddr: 0x10004D9F0, symSize: 0x84 }
  - { offsetInCU: 0x2A880, offset: 0x4E8E8, size: 0x8, addend: 0x0, symName: __ZNSt3__19make_pairB7v160006IRPKdPdEENS_4pairINS_18__unwrap_ref_decayIT_E4typeENS6_IT0_E4typeEEEOS7_OSA_, symObjAddr: 0x47E7C, symBinAddr: 0x10004DA74, symSize: 0x38 }
  - { offsetInCU: 0x2A922, offset: 0x4E98A, size: 0x8, addend: 0x0, symName: __ZNSt3__113__rewrap_iterB7v160006IPKdS2_NS_18__unwrap_iter_implIS2_Lb1EEEEET_S5_T0_, symObjAddr: 0x47FB8, symBinAddr: 0x10004DBB0, symSize: 0x3C }
  - { offsetInCU: 0x2B731, offset: 0x4F799, size: 0x8, addend: 0x0, symName: _EXPECTED_INIT_BST_PATH, symObjAddr: 0x2284D0, symBinAddr: 0x10005C020, symSize: 0x0 }
  - { offsetInCU: 0x2B747, offset: 0x4F7AF, size: 0x8, addend: 0x0, symName: _EXPECTED_INIT_LLRBT_PATH, symObjAddr: 0x2284E8, symBinAddr: 0x10005C038, symSize: 0x0 }
  - { offsetInCU: 0x2B75D, offset: 0x4F7C5, size: 0x8, addend: 0x0, symName: _NODES_TO_DELETE_BST_PATH, symObjAddr: 0x228500, symBinAddr: 0x10005C050, symSize: 0x0 }
  - { offsetInCU: 0x2B773, offset: 0x4F7DB, size: 0x8, addend: 0x0, symName: _EXPECTED_DELETE_BST_PATH, symObjAddr: 0x228518, symBinAddr: 0x10005C068, symSize: 0x0 }
  - { offsetInCU: 0x2B789, offset: 0x4F7F1, size: 0x8, addend: 0x0, symName: _EXPECTED_TRAVERSALS_BST_PATH, symObjAddr: 0x228530, symBinAddr: 0x10005C080, symSize: 0x0 }
  - { offsetInCU: 0x2B79F, offset: 0x4F807, size: 0x8, addend: 0x0, symName: _NODES_TO_FIND_BST_PATH, symObjAddr: 0x228548, symBinAddr: 0x10005C098, symSize: 0x0 }
  - { offsetInCU: 0x2B7B5, offset: 0x4F81D, size: 0x8, addend: 0x0, symName: _NODES_TO_FIND_LLRBT_PATH, symObjAddr: 0x228560, symBinAddr: 0x10005C0B0, symSize: 0x0 }
  - { offsetInCU: 0x2B7CB, offset: 0x4F833, size: 0x8, addend: 0x0, symName: _EXPECTED_STELLAR_PATH_BST_PATH, symObjAddr: 0x228578, symBinAddr: 0x10005C0C8, symSize: 0x0 }
  - { offsetInCU: 0x2B7E1, offset: 0x4F849, size: 0x8, addend: 0x0, symName: _EXPECTED_STELLAR_PATH_LLRBT_PATH, symObjAddr: 0x228590, symBinAddr: 0x10005C0E0, symSize: 0x0 }
  - { offsetInCU: 0x2B7F7, offset: 0x4F85F, size: 0x8, addend: 0x0, symName: _EXPECTED_OUTPUT_PATH, symObjAddr: 0x2285A8, symBinAddr: 0x10005C0F8, symSize: 0x0 }
  - { offsetInCU: 0x2B80D, offset: 0x4F875, size: 0x8, addend: 0x0, symName: _NODES_TO_FIND_BST_OUTPUT_PATH, symObjAddr: 0x2285C0, symBinAddr: 0x10005C110, symSize: 0x0 }
  - { offsetInCU: 0x2B823, offset: 0x4F88B, size: 0x8, addend: 0x0, symName: _NODES_TO_FIND_LLRBT_OUTPUT_PATH, symObjAddr: 0x2285D8, symBinAddr: 0x10005C128, symSize: 0x0 }
  - { offsetInCU: 0x2B839, offset: 0x4F8A1, size: 0x8, addend: 0x0, symName: _BONUS_DATA_SIMPLE_FILE, symObjAddr: 0x2285F0, symBinAddr: 0x10005C140, symSize: 0x0 }
  - { offsetInCU: 0x2B84F, offset: 0x4F8B7, size: 0x8, addend: 0x0, symName: _BONUS_DATA_SIMPLE_FILE_EXPECTED, symObjAddr: 0x228608, symBinAddr: 0x10005C158, symSize: 0x0 }
  - { offsetInCU: 0x2B865, offset: 0x4F8CD, size: 0x8, addend: 0x0, symName: _BONUS_DATA_COMPLEX_FILE, symObjAddr: 0x228620, symBinAddr: 0x10005C170, symSize: 0x0 }
  - { offsetInCU: 0x2B87B, offset: 0x4F8E3, size: 0x8, addend: 0x0, symName: _BONUS_DATA_COMPLEX_FILE_EXPECTED, symObjAddr: 0x228638, symBinAddr: 0x10005C188, symSize: 0x0 }
  - { offsetInCU: 0x2B89B, offset: 0x4F903, size: 0x8, addend: 0x0, symName: __ZN8nlohmann16json_abi_v3_11_36detail12static_constINS1_10to_json_fnEE5valueE, symObjAddr: 0x4CB0E, symBinAddr: 0x1000502C6, symSize: 0x0 }
  - { offsetInCU: 0x2CBE2, offset: 0x50C4A, size: 0x8, addend: 0x0, symName: __ZN8nlohmann16json_abi_v3_11_36detail9dtoa_impl36get_cached_power_for_binary_exponentEi, symObjAddr: 0x20D18, symBinAddr: 0x100027824, symSize: 0x22C }
  - { offsetInCU: 0x2CC0E, offset: 0x50C76, size: 0x8, addend: 0x0, symName: __ZZN8nlohmann16json_abi_v3_11_36detail9dtoa_impl36get_cached_power_for_binary_exponentEiE13kCachedPowers, symObjAddr: 0x4D060, symBinAddr: 0x100050818, symSize: 0x0 }
  - { offsetInCU: 0x2CCE8, offset: 0x50D50, size: 0x8, addend: 0x0, symName: __ZN8nlohmann16json_abi_v3_11_36detail9dtoa_impl6grisu2IdEEvPcRiS5_T_, symObjAddr: 0x2028C, symBinAddr: 0x100026D98, symSize: 0xEC }
  - { offsetInCU: 0x2CD58, offset: 0x50DC0, size: 0x8, addend: 0x0, symName: __ZN8nlohmann16json_abi_v3_11_36detail9dtoa_impl13format_bufferEPciiii, symObjAddr: 0x20378, symBinAddr: 0x100026E84, symSize: 0x36C }
  - { offsetInCU: 0x2CDE2, offset: 0x50E4A, size: 0x8, addend: 0x0, symName: __ZN8nlohmann16json_abi_v3_11_36detail9dtoa_impl18compute_boundariesIdEENS2_10boundariesET_, symObjAddr: 0x206E4, symBinAddr: 0x1000271F0, symSize: 0x24C }
  - { offsetInCU: 0x2CEFF, offset: 0x50F67, size: 0x8, addend: 0x0, symName: __ZN8nlohmann16json_abi_v3_11_36detail9dtoa_impl6grisu2EPcRiS4_NS2_5diyfpES5_S5_, symObjAddr: 0x20930, symBinAddr: 0x10002743C, symSize: 0x1C0 }
  - { offsetInCU: 0x2CFEE, offset: 0x51056, size: 0x8, addend: 0x0, symName: __ZN8nlohmann16json_abi_v3_11_36detail9dtoa_impl16reinterpret_bitsIydEET_T0_, symObjAddr: 0x20AF0, symBinAddr: 0x1000275FC, symSize: 0x1C }
  - { offsetInCU: 0x2D0F2, offset: 0x5115A, size: 0x8, addend: 0x0, symName: __ZN8nlohmann16json_abi_v3_11_36detail9dtoa_impl16grisu2_digit_genEPcRiS4_NS2_5diyfpES5_S5_, symObjAddr: 0x21084, symBinAddr: 0x100027B90, symSize: 0x4A4 }
  - { offsetInCU: 0x2D2A3, offset: 0x5130B, size: 0x8, addend: 0x0, symName: __ZN8nlohmann16json_abi_v3_11_36detail9dtoa_impl18find_largest_pow10EjRj, symObjAddr: 0x21644, symBinAddr: 0x100028150, symSize: 0x1F8 }
  - { offsetInCU: 0x2D2E1, offset: 0x51349, size: 0x8, addend: 0x0, symName: __ZN8nlohmann16json_abi_v3_11_36detail9dtoa_impl12grisu2_roundEPciyyyy, symObjAddr: 0x2183C, symBinAddr: 0x100028348, symSize: 0x24C }
  - { offsetInCU: 0x2D355, offset: 0x513BD, size: 0x8, addend: 0x0, symName: __ZN8nlohmann16json_abi_v3_11_36detail9dtoa_impl15append_exponentEPci, symObjAddr: 0x21AA4, symBinAddr: 0x1000285B0, symSize: 0x220 }
  - { offsetInCU: 0x2D3DC, offset: 0x51444, size: 0x8, addend: 0x0, symName: __ZN8nlohmann16json_abi_v3_11_36detail12static_constINS1_12from_json_fnEE5valueE, symObjAddr: 0x4D550, symBinAddr: 0x100050D08, symSize: 0x0 }
  - { offsetInCU: 0x2DC85, offset: 0x51CED, size: 0x8, addend: 0x0, symName: __ZN8nlohmann16json_abi_v3_11_36detail6concatINSt3__112basic_stringIcNS3_11char_traitsIcEENS3_9allocatorIcEEEEJS9_S9_RKS9_EEET_DpOT0_, symObjAddr: 0x17934, symBinAddr: 0x10001E540, symSize: 0xD8 }
  - { offsetInCU: 0x2DD00, offset: 0x51D68, size: 0x8, addend: 0x0, symName: __ZN8nlohmann16json_abi_v3_11_36detail13concat_lengthINSt3__112basic_stringIcNS3_11char_traitsIcEENS3_9allocatorIcEEEEJS9_S9_EEEmRKT_DpRKT0_, symObjAddr: 0x17B48, symBinAddr: 0x10001E730, symSize: 0x48 }
  - { offsetInCU: 0x2DD66, offset: 0x51DCE, size: 0x8, addend: 0x0, symName: __ZN8nlohmann16json_abi_v3_11_36detail11concat_intoINSt3__112basic_stringIcNS3_11char_traitsIcEENS3_9allocatorIcEEEES9_JS9_RKS9_ELi0EEEvRT_OT0_DpOT1_, symObjAddr: 0x17B90, symBinAddr: 0x10001E778, symSize: 0x44 }
  - { offsetInCU: 0x2DDE5, offset: 0x51E4D, size: 0x8, addend: 0x0, symName: __ZN8nlohmann16json_abi_v3_11_36detail13concat_lengthINSt3__112basic_stringIcNS3_11char_traitsIcEENS3_9allocatorIcEEEEJS9_EEEmRKT_DpRKT0_, symObjAddr: 0x17BD4, symBinAddr: 0x10001E7BC, symSize: 0x40 }
  - { offsetInCU: 0x2DE36, offset: 0x51E9E, size: 0x8, addend: 0x0, symName: __ZN8nlohmann16json_abi_v3_11_36detail13concat_lengthINSt3__112basic_stringIcNS3_11char_traitsIcEENS3_9allocatorIcEEEEJEEEmRKT_DpRKT0_, symObjAddr: 0x17C14, symBinAddr: 0x10001E7FC, symSize: 0x38 }
  - { offsetInCU: 0x2DE73, offset: 0x51EDB, size: 0x8, addend: 0x0, symName: __ZN8nlohmann16json_abi_v3_11_36detail13concat_lengthEv, symObjAddr: 0x17C4C, symBinAddr: 0x10001E834, symSize: 0x8 }
  - { offsetInCU: 0x2DE92, offset: 0x51EFA, size: 0x8, addend: 0x0, symName: __ZN8nlohmann16json_abi_v3_11_36detail11concat_intoINSt3__112basic_stringIcNS3_11char_traitsIcEENS3_9allocatorIcEEEES9_JRKS9_ELi0EEEvRT_OT0_DpOT1_, symObjAddr: 0x17CA0, symBinAddr: 0x10001E83C, symSize: 0x3C }
  - { offsetInCU: 0x2DEFE, offset: 0x51F66, size: 0x8, addend: 0x0, symName: __ZN8nlohmann16json_abi_v3_11_36detail11concat_intoINSt3__112basic_stringIcNS3_11char_traitsIcEENS3_9allocatorIcEEEERKS9_JELi0EEEvRT_OT0_DpOT1_, symObjAddr: 0x17CDC, symBinAddr: 0x10001E878, symSize: 0x34 }
  - { offsetInCU: 0x2DF55, offset: 0x51FBD, size: 0x8, addend: 0x0, symName: __ZN8nlohmann16json_abi_v3_11_36detail11concat_intoINSt3__112basic_stringIcNS3_11char_traitsIcEENS3_9allocatorIcEEEEEEvRT_, symObjAddr: 0x17D10, symBinAddr: 0x10001E8AC, symSize: 0x10 }
  - { offsetInCU: 0x2DF84, offset: 0x51FEC, size: 0x8, addend: 0x0, symName: __ZN8nlohmann16json_abi_v3_11_36detail6concatINSt3__112basic_stringIcNS3_11char_traitsIcEENS3_9allocatorIcEEEEJRA17_KcRKS9_cS9_RA3_SA_EEET_DpOT0_, symObjAddr: 0x17D20, symBinAddr: 0x10001E8BC, symSize: 0xF0 }
  - { offsetInCU: 0x2E027, offset: 0x5208F, size: 0x8, addend: 0x0, symName: __ZN8nlohmann16json_abi_v3_11_36detail13concat_lengthIJNSt3__112basic_stringIcNS3_11char_traitsIcEENS3_9allocatorIcEEEEcS9_A3_cEEEmPKcDpRKT_, symObjAddr: 0x17E10, symBinAddr: 0x10001E9AC, symSize: 0x58 }
  - { offsetInCU: 0x2E0AC, offset: 0x52114, size: 0x8, addend: 0x0, symName: __ZN8nlohmann16json_abi_v3_11_36detail11concat_intoINSt3__112basic_stringIcNS3_11char_traitsIcEENS3_9allocatorIcEEEERA17_KcJRKS9_cS9_RA3_SA_ELi0EEEvRT_OT0_DpOT1_, symObjAddr: 0x17E68, symBinAddr: 0x10001EA04, symSize: 0x54 }
  - { offsetInCU: 0x2E153, offset: 0x521BB, size: 0x8, addend: 0x0, symName: __ZN8nlohmann16json_abi_v3_11_36detail13concat_lengthINSt3__112basic_stringIcNS3_11char_traitsIcEENS3_9allocatorIcEEEEJcS9_A3_cEEEmRKT_DpRKT0_, symObjAddr: 0x17EBC, symBinAddr: 0x10001EA58, symSize: 0x54 }
  - { offsetInCU: 0x2E1CC, offset: 0x52234, size: 0x8, addend: 0x0, symName: __ZN8nlohmann16json_abi_v3_11_36detail13concat_lengthIJNSt3__112basic_stringIcNS3_11char_traitsIcEENS3_9allocatorIcEEEEA3_cEEEmcDpRKT_, symObjAddr: 0x17F10, symBinAddr: 0x10001EAAC, symSize: 0x34 }
  - { offsetInCU: 0x2E224, offset: 0x5228C, size: 0x8, addend: 0x0, symName: __ZN8nlohmann16json_abi_v3_11_36detail13concat_lengthINSt3__112basic_stringIcNS3_11char_traitsIcEENS3_9allocatorIcEEEEJA3_cEEEmRKT_DpRKT0_, symObjAddr: 0x17F44, symBinAddr: 0x10001EAE0, symSize: 0x40 }
  - { offsetInCU: 0x2E275, offset: 0x522DD, size: 0x8, addend: 0x0, symName: __ZN8nlohmann16json_abi_v3_11_36detail13concat_lengthIJEEEmPKcDpRKT_, symObjAddr: 0x17F84, symBinAddr: 0x10001EB20, symSize: 0x38 }
  - { offsetInCU: 0x2E2A9, offset: 0x52311, size: 0x8, addend: 0x0, symName: __ZN8nlohmann16json_abi_v3_11_36detail11concat_intoINSt3__112basic_stringIcNS3_11char_traitsIcEENS3_9allocatorIcEEEERKS9_JcS9_RA3_KcELi0EEEvRT_OT0_DpOT1_, symObjAddr: 0x17FBC, symBinAddr: 0x10001EB58, symSize: 0x4C }
  - { offsetInCU: 0x2E33D, offset: 0x523A5, size: 0x8, addend: 0x0, symName: __ZN8nlohmann16json_abi_v3_11_36detail11concat_intoINSt3__112basic_stringIcNS3_11char_traitsIcEENS3_9allocatorIcEEEEcJS9_RA3_KcELi0EEEvRT_OT0_DpOT1_, symObjAddr: 0x18008, symBinAddr: 0x10001EBA4, symSize: 0x48 }
  - { offsetInCU: 0x2E3BD, offset: 0x52425, size: 0x8, addend: 0x0, symName: __ZN8nlohmann16json_abi_v3_11_36detail11concat_intoINSt3__112basic_stringIcNS3_11char_traitsIcEENS3_9allocatorIcEEEES9_JRA3_KcELi0EEEvRT_OT0_DpOT1_, symObjAddr: 0x18084, symBinAddr: 0x10001EC20, symSize: 0x3C }
  - { offsetInCU: 0x2E429, offset: 0x52491, size: 0x8, addend: 0x0, symName: __ZN8nlohmann16json_abi_v3_11_36detail11concat_intoINSt3__112basic_stringIcNS3_11char_traitsIcEENS3_9allocatorIcEEEERA3_KcJELi0EEEvRT_OT0_DpOT1_, symObjAddr: 0x180C0, symBinAddr: 0x10001EC5C, symSize: 0x34 }
  - { offsetInCU: 0x2E556, offset: 0x525BE, size: 0x8, addend: 0x0, symName: __ZN8nlohmann16json_abi_v3_11_36detail6concatINSt3__112basic_stringIcNS3_11char_traitsIcEENS3_9allocatorIcEEEEJRA51_KcPSA_EEET_DpOT0_, symObjAddr: 0x18678, symBinAddr: 0x10001F214, symSize: 0xCC }
  - { offsetInCU: 0x2E5BD, offset: 0x52625, size: 0x8, addend: 0x0, symName: __ZN8nlohmann16json_abi_v3_11_36detail13concat_lengthIJPKcEEEmS4_DpRKT_, symObjAddr: 0x19DFC, symBinAddr: 0x100020998, symSize: 0x44 }
  - { offsetInCU: 0x2E606, offset: 0x5266E, size: 0x8, addend: 0x0, symName: __ZN8nlohmann16json_abi_v3_11_36detail11concat_intoINSt3__112basic_stringIcNS3_11char_traitsIcEENS3_9allocatorIcEEEERA51_KcJPSA_ELi0EEEvRT_OT0_DpOT1_, symObjAddr: 0x19E40, symBinAddr: 0x1000209DC, symSize: 0x3C }
  - { offsetInCU: 0x2E672, offset: 0x526DA, size: 0x8, addend: 0x0, symName: __ZN8nlohmann16json_abi_v3_11_36detail11concat_intoINSt3__112basic_stringIcNS3_11char_traitsIcEENS3_9allocatorIcEEEEPKcJELi0EEEvRT_OT0_DpOT1_, symObjAddr: 0x19E7C, symBinAddr: 0x100020A18, symSize: 0x38 }
  - { offsetInCU: 0x2E6C9, offset: 0x52731, size: 0x8, addend: 0x0, symName: __ZN8nlohmann16json_abi_v3_11_36detail7to_jsonINS0_10basic_jsonINSt3__13mapENS4_6vectorENS4_12basic_stringIcNS4_11char_traitsIcEENS4_9allocatorIcEEEEbxydSA_NS0_14adl_serializerENS6_IhNSA_IhEEEEvEEiLi0EEEvRT_T0_, symObjAddr: 0x19FEC, symBinAddr: 0x100020B88, symSize: 0x2C }
  - { offsetInCU: 0x2E74D, offset: 0x527B5, size: 0x8, addend: 0x0, symName: __ZN8nlohmann16json_abi_v3_11_36detail7to_jsonINS0_10basic_jsonINSt3__13mapENS4_6vectorENS4_12basic_stringIcNS4_11char_traitsIcEENS4_9allocatorIcEEEEbxydSA_NS0_14adl_serializerENS6_IhNSA_IhEEEEvEEdLi0EEEvRT_T0_, symObjAddr: 0x1A218, symBinAddr: 0x100020DB4, symSize: 0x2C }
  - { offsetInCU: 0x2E7D1, offset: 0x52839, size: 0x8, addend: 0x0, symName: __ZN8nlohmann16json_abi_v3_11_36detail7to_jsonINS0_10basic_jsonINSt3__13mapENS4_6vectorENS4_12basic_stringIcNS4_11char_traitsIcEENS4_9allocatorIcEEEEbxydSA_NS0_14adl_serializerENS6_IhNSA_IhEEEEvEESC_Li0EEEvRT_RKT0_, symObjAddr: 0x1A3F0, symBinAddr: 0x100020F8C, symSize: 0x2C }
  - { offsetInCU: 0x2E875, offset: 0x528DD, size: 0x8, addend: 0x0, symName: __ZN8nlohmann16json_abi_v3_11_36detail7to_jsonINS0_10basic_jsonINSt3__13mapENS4_6vectorENS4_12basic_stringIcNS4_11char_traitsIcEENS4_9allocatorIcEEEEbxydSA_NS0_14adl_serializerENS6_IhNSA_IhEEEEvEEbLi0EEEvRT_T0_, symObjAddr: 0x1AAA0, symBinAddr: 0x10002163C, symSize: 0x38 }
  - { offsetInCU: 0x2E8F8, offset: 0x52960, size: 0x8, addend: 0x0, symName: __ZN8nlohmann16json_abi_v3_11_36detail6concatINSt3__112basic_stringIcNS3_11char_traitsIcEENS3_9allocatorIcEEEEJRA29_KcPSA_EEET_DpOT0_, symObjAddr: 0x1AC58, symBinAddr: 0x1000217F4, symSize: 0xC4 }
  - { offsetInCU: 0x2E960, offset: 0x529C8, size: 0x8, addend: 0x0, symName: __ZN8nlohmann16json_abi_v3_11_36detail11concat_intoINSt3__112basic_stringIcNS3_11char_traitsIcEENS3_9allocatorIcEEEERA29_KcJPSA_ELi0EEEvRT_OT0_DpOT1_, symObjAddr: 0x1AD1C, symBinAddr: 0x1000218B8, symSize: 0x3C }
  - { offsetInCU: 0x2E9CB, offset: 0x52A33, size: 0x8, addend: 0x0, symName: __ZN8nlohmann16json_abi_v3_11_36detail6concatINSt3__112basic_stringIcNS3_11char_traitsIcEENS3_9allocatorIcEEEEJRA29_KcS9_RA5_SA_S9_EEET_DpOT0_, symObjAddr: 0x1F048, symBinAddr: 0x100025B54, symSize: 0xE4 }
  - { offsetInCU: 0x2EE52, offset: 0x52EBA, size: 0x8, addend: 0x0, symName: __ZN8nlohmann16json_abi_v3_11_36detail6concatINSt3__112basic_stringIcNS3_11char_traitsIcEENS3_9allocatorIcEEEEJRA39_KcS9_EEET_DpOT0_, symObjAddr: 0x1F23C, symBinAddr: 0x100025D48, symSize: 0xCC }
  - { offsetInCU: 0x2EEB9, offset: 0x52F21, size: 0x8, addend: 0x0, symName: __ZN8nlohmann16json_abi_v3_11_36detail13concat_lengthIJNSt3__112basic_stringIcNS3_11char_traitsIcEENS3_9allocatorIcEEEEA5_cS9_EEEmPKcDpRKT_, symObjAddr: 0x1F384, symBinAddr: 0x100025E90, symSize: 0x50 }
  - { offsetInCU: 0x2EF2A, offset: 0x52F92, size: 0x8, addend: 0x0, symName: __ZN8nlohmann16json_abi_v3_11_36detail11concat_intoINSt3__112basic_stringIcNS3_11char_traitsIcEENS3_9allocatorIcEEEERA29_KcJS9_RA5_SA_S9_ELi0EEEvRT_OT0_DpOT1_, symObjAddr: 0x1F3D4, symBinAddr: 0x100025EE0, symSize: 0x4C }
  - { offsetInCU: 0x2EFBD, offset: 0x53025, size: 0x8, addend: 0x0, symName: __ZN8nlohmann16json_abi_v3_11_36detail13concat_lengthINSt3__112basic_stringIcNS3_11char_traitsIcEENS3_9allocatorIcEEEEJA5_cS9_EEEmRKT_DpRKT0_, symObjAddr: 0x1F420, symBinAddr: 0x100025F2C, symSize: 0x48 }
  - { offsetInCU: 0x2F022, offset: 0x5308A, size: 0x8, addend: 0x0, symName: __ZN8nlohmann16json_abi_v3_11_36detail13concat_lengthIJNSt3__112basic_stringIcNS3_11char_traitsIcEENS3_9allocatorIcEEEEEEEmPKcDpRKT_, symObjAddr: 0x1F468, symBinAddr: 0x100025F74, symSize: 0x40 }
  - { offsetInCU: 0x2F06B, offset: 0x530D3, size: 0x8, addend: 0x0, symName: __ZN8nlohmann16json_abi_v3_11_36detail11concat_intoINSt3__112basic_stringIcNS3_11char_traitsIcEENS3_9allocatorIcEEEES9_JRA5_KcS9_ELi0EEEvRT_OT0_DpOT1_, symObjAddr: 0x1F4A8, symBinAddr: 0x100025FB4, symSize: 0x44 }
  - { offsetInCU: 0x2F0EB, offset: 0x53153, size: 0x8, addend: 0x0, symName: __ZN8nlohmann16json_abi_v3_11_36detail11concat_intoINSt3__112basic_stringIcNS3_11char_traitsIcEENS3_9allocatorIcEEEERA5_KcJS9_ELi0EEEvRT_OT0_DpOT1_, symObjAddr: 0x1F4EC, symBinAddr: 0x100025FF8, symSize: 0x3C }
  - { offsetInCU: 0x2F157, offset: 0x531BF, size: 0x8, addend: 0x0, symName: __ZN8nlohmann16json_abi_v3_11_36detail11concat_intoINSt3__112basic_stringIcNS3_11char_traitsIcEENS3_9allocatorIcEEEES9_JELi0EEEvRT_OT0_DpOT1_, symObjAddr: 0x1F528, symBinAddr: 0x100026034, symSize: 0x34 }
  - { offsetInCU: 0x2F1AE, offset: 0x53216, size: 0x8, addend: 0x0, symName: __ZN8nlohmann16json_abi_v3_11_36detail11concat_intoINSt3__112basic_stringIcNS3_11char_traitsIcEENS3_9allocatorIcEEEERA39_KcJS9_ELi0EEEvRT_OT0_DpOT1_, symObjAddr: 0x1F55C, symBinAddr: 0x100026068, symSize: 0x3C }
  - { offsetInCU: 0x2F219, offset: 0x53281, size: 0x8, addend: 0x0, symName: __ZN8nlohmann16json_abi_v3_11_36detail8to_charsIdEEPcS3_PKcT_, symObjAddr: 0x1FFFC, symBinAddr: 0x100026B08, symSize: 0x26C }
  - { offsetInCU: 0x2F2C4, offset: 0x5332C, size: 0x8, addend: 0x0, symName: __ZN8nlohmann16json_abi_v3_11_36detail9from_jsonINS0_10basic_jsonINSt3__13mapENS4_6vectorENS4_12basic_stringIcNS4_11char_traitsIcEENS4_9allocatorIcEEEEbxydSA_NS0_14adl_serializerENS6_IhNSA_IhEEEEvEEiLi0EEEvRKT_RT0_, symObjAddr: 0x22268, symBinAddr: 0x100028D74, symSize: 0x1A0 }
  - { offsetInCU: 0x2F316, offset: 0x5337E, size: 0x8, addend: 0x0, symName: __ZN8nlohmann16json_abi_v3_11_36detail9from_jsonINS0_10basic_jsonINSt3__13mapENS4_6vectorENS4_12basic_stringIcNS4_11char_traitsIcEENS4_9allocatorIcEEEEbxydSA_NS0_14adl_serializerENS6_IhNSA_IhEEEEvEEEEvRKT_RNSH_14number_float_tE, symObjAddr: 0x227B4, symBinAddr: 0x1000292C0, symSize: 0x2C }
  - { offsetInCU: 0x2F358, offset: 0x533C0, size: 0x8, addend: 0x0, symName: __ZN8nlohmann16json_abi_v3_11_36detail20get_arithmetic_valueINS0_10basic_jsonINSt3__13mapENS4_6vectorENS4_12basic_stringIcNS4_11char_traitsIcEENS4_9allocatorIcEEEEbxydSA_NS0_14adl_serializerENS6_IhNSA_IhEEEEvEEdLi0EEEvRKT_RT0_, symObjAddr: 0x227E0, symBinAddr: 0x1000292EC, symSize: 0x188 }
  - { offsetInCU: 0x2F3AA, offset: 0x53412, size: 0x8, addend: 0x0, symName: __ZN8nlohmann16json_abi_v3_11_36detail9from_jsonINS0_10basic_jsonINSt3__13mapENS4_6vectorENS4_12basic_stringIcNS4_11char_traitsIcEENS4_9allocatorIcEEEEbxydSA_NS0_14adl_serializerENS6_IhNSA_IhEEEEvEENS4_17basic_string_viewIcS9_EELi0EEEvRKT_RT0_, symObjAddr: 0x22B48, symBinAddr: 0x100029654, symSize: 0x124 }
  - { offsetInCU: 0x2F3FC, offset: 0x53464, size: 0x8, addend: 0x0, symName: __ZN8nlohmann16json_abi_v3_11_36detail9from_jsonINS0_10basic_jsonINSt3__13mapENS4_6vectorENS4_12basic_stringIcNS4_11char_traitsIcEENS4_9allocatorIcEEEEbxydSA_NS0_14adl_serializerENS6_IhNSA_IhEEEEvEEEEvRKT_RNSH_9boolean_tE, symObjAddr: 0x22DCC, symBinAddr: 0x1000298D8, symSize: 0x11C }
  - { offsetInCU: 0x2F43D, offset: 0x534A5, size: 0x8, addend: 0x0, symName: __ZN8nlohmann16json_abi_v3_11_36detail6concatINSt3__112basic_stringIcNS3_11char_traitsIcEENS3_9allocatorIcEEEEJRA30_KcPSA_EEET_DpOT0_, symObjAddr: 0x22EE8, symBinAddr: 0x1000299F4, symSize: 0xC4 }
  - { offsetInCU: 0x2F4A5, offset: 0x5350D, size: 0x8, addend: 0x0, symName: __ZN8nlohmann16json_abi_v3_11_36detail11concat_intoINSt3__112basic_stringIcNS3_11char_traitsIcEENS3_9allocatorIcEEEERA30_KcJPSA_ELi0EEEvRT_OT0_DpOT1_, symObjAddr: 0x22FAC, symBinAddr: 0x100029AB8, symSize: 0x3C }
  - { offsetInCU: 0x2F66C, offset: 0x536D4, size: 0x8, addend: 0x0, symName: __ZN8nlohmann16json_abi_v3_11_36detail13input_adapterINSt3__112basic_stringIcNS3_11char_traitsIcEENS3_9allocatorIcEEEEEENS1_36container_input_adapter_factory_impl31container_input_adapter_factoryIT_vE12adapter_typeERKSC_, symObjAddr: 0x230CC, symBinAddr: 0x100029BD8, symSize: 0x34 }
  - { offsetInCU: 0x2F724, offset: 0x5378C, size: 0x8, addend: 0x0, symName: __ZN8nlohmann16json_abi_v3_11_36detail13input_adapterINSt3__111__wrap_iterIPKcEEEENS1_30iterator_input_adapter_factoryIT_vE12adapter_typeES9_S9_, symObjAddr: 0x28114, symBinAddr: 0x10002EC20, symSize: 0x4C }
  - { offsetInCU: 0x300EA, offset: 0x54152, size: 0x8, addend: 0x0, symName: __ZN8nlohmann16json_abi_v3_11_36detail6concatINSt3__112basic_stringIcNS3_11char_traitsIcEENS3_9allocatorIcEEEEJRA26_KcS9_cEEET_DpOT0_, symObjAddr: 0x2EF90, symBinAddr: 0x100035A9C, symSize: 0xD8 }
  - { offsetInCU: 0x30165, offset: 0x541CD, size: 0x8, addend: 0x0, symName: __ZN8nlohmann16json_abi_v3_11_36detail6concatINSt3__112basic_stringIcNS3_11char_traitsIcEENS3_9allocatorIcEEEEJRA24_KcS9_EEET_DpOT0_, symObjAddr: 0x2FAB8, symBinAddr: 0x1000365C4, symSize: 0xCC }
  - { offsetInCU: 0x301CD, offset: 0x54235, size: 0x8, addend: 0x0, symName: __ZN8nlohmann16json_abi_v3_11_36detail11concat_intoINSt3__112basic_stringIcNS3_11char_traitsIcEENS3_9allocatorIcEEEERA24_KcJS9_ELi0EEEvRT_OT0_DpOT1_, symObjAddr: 0x3157C, symBinAddr: 0x100038088, symSize: 0x3C }
  - { offsetInCU: 0x302DE, offset: 0x54346, size: 0x8, addend: 0x0, symName: __ZN8nlohmann16json_abi_v3_11_36detail6concatINSt3__112basic_stringIcNS3_11char_traitsIcEENS3_9allocatorIcEEEEJRA25_KcPSA_EEET_DpOT0_, symObjAddr: 0x35770, symBinAddr: 0x10003C27C, symSize: 0xC4 }
  - { offsetInCU: 0x30346, offset: 0x543AE, size: 0x8, addend: 0x0, symName: __ZN8nlohmann16json_abi_v3_11_36detail11concat_intoINSt3__112basic_stringIcNS3_11char_traitsIcEENS3_9allocatorIcEEEERA25_KcJPSA_ELi0EEEvRT_OT0_DpOT1_, symObjAddr: 0x364E4, symBinAddr: 0x10003CFF0, symSize: 0x3C }
  - { offsetInCU: 0x303B1, offset: 0x54419, size: 0x8, addend: 0x0, symName: __ZN8nlohmann16json_abi_v3_11_36detail6concatINSt3__112basic_stringIcNS3_11char_traitsIcEENS3_9allocatorIcEEEEJRA23_KcS9_EEET_DpOT0_, symObjAddr: 0x36BBC, symBinAddr: 0x10003D6C8, symSize: 0xCC }
  - { offsetInCU: 0x30419, offset: 0x54481, size: 0x8, addend: 0x0, symName: __ZN8nlohmann16json_abi_v3_11_36detail11concat_intoINSt3__112basic_stringIcNS3_11char_traitsIcEENS3_9allocatorIcEEEERA23_KcJS9_ELi0EEEvRT_OT0_DpOT1_, symObjAddr: 0x36C88, symBinAddr: 0x10003D794, symSize: 0x3C }
  - { offsetInCU: 0x30484, offset: 0x544EC, size: 0x8, addend: 0x0, symName: __ZN8nlohmann16json_abi_v3_11_36detail13concat_lengthIJNSt3__112basic_stringIcNS3_11char_traitsIcEENS3_9allocatorIcEEEEcEEEmPKcDpRKT_, symObjAddr: 0x36DD8, symBinAddr: 0x10003D8E4, symSize: 0x48 }
  - { offsetInCU: 0x304E1, offset: 0x54549, size: 0x8, addend: 0x0, symName: __ZN8nlohmann16json_abi_v3_11_36detail11concat_intoINSt3__112basic_stringIcNS3_11char_traitsIcEENS3_9allocatorIcEEEERA26_KcJS9_cELi0EEEvRT_OT0_DpOT1_, symObjAddr: 0x36E20, symBinAddr: 0x10003D92C, symSize: 0x44 }
  - { offsetInCU: 0x30560, offset: 0x545C8, size: 0x8, addend: 0x0, symName: __ZN8nlohmann16json_abi_v3_11_36detail13concat_lengthINSt3__112basic_stringIcNS3_11char_traitsIcEENS3_9allocatorIcEEEEJcEEEmRKT_DpRKT0_, symObjAddr: 0x36E64, symBinAddr: 0x10003D970, symSize: 0x44 }
  - { offsetInCU: 0x305B1, offset: 0x54619, size: 0x8, addend: 0x0, symName: __ZN8nlohmann16json_abi_v3_11_36detail13concat_lengthIJEEEmcDpRKT_, symObjAddr: 0x36EA8, symBinAddr: 0x10003D9B4, symSize: 0x24 }
  - { offsetInCU: 0x305E1, offset: 0x54649, size: 0x8, addend: 0x0, symName: __ZN8nlohmann16json_abi_v3_11_36detail11concat_intoINSt3__112basic_stringIcNS3_11char_traitsIcEENS3_9allocatorIcEEEES9_JcELi0EEEvRT_OT0_DpOT1_, symObjAddr: 0x36ECC, symBinAddr: 0x10003D9D8, symSize: 0x3C }
  - { offsetInCU: 0x3064D, offset: 0x546B5, size: 0x8, addend: 0x0, symName: __ZN8nlohmann16json_abi_v3_11_36detail11concat_intoINSt3__112basic_stringIcNS3_11char_traitsIcEENS3_9allocatorIcEEEEcJELi0EEEvRT_OT0_DpOT1_, symObjAddr: 0x36F08, symBinAddr: 0x10003DA14, symSize: 0x38 }
  - { offsetInCU: 0x306A4, offset: 0x5470C, size: 0x8, addend: 0x0, symName: __ZN8nlohmann16json_abi_v3_11_36detail7to_jsonINS0_10basic_jsonINSt3__13mapENS4_6vectorENS4_12basic_stringIcNS4_11char_traitsIcEENS4_9allocatorIcEEEEbxydSA_NS0_14adl_serializerENS6_IhNSA_IhEEEEvEExLi0EEEvRT_T0_, symObjAddr: 0x385C4, symBinAddr: 0x10003F0D0, symSize: 0x2C }
  - { offsetInCU: 0x306F6, offset: 0x5475E, size: 0x8, addend: 0x0, symName: __ZN8nlohmann16json_abi_v3_11_36detail7to_jsonINS0_10basic_jsonINSt3__13mapENS4_6vectorENS4_12basic_stringIcNS4_11char_traitsIcEENS4_9allocatorIcEEEEbxydSA_NS0_14adl_serializerENS6_IhNSA_IhEEEEvEEyLi0EEEvRT_T0_, symObjAddr: 0x390A0, symBinAddr: 0x10003FBAC, symSize: 0x2C }
  - { offsetInCU: 0x30779, offset: 0x547E1, size: 0x8, addend: 0x0, symName: __ZN8nlohmann16json_abi_v3_11_36detail6concatINSt3__112basic_stringIcNS3_11char_traitsIcEENS3_9allocatorIcEEEEJS9_RA12_KcS9_RA3_SA_S9_RKS9_EEET_DpOT0_, symObjAddr: 0x39300, symBinAddr: 0x10003FE0C, symSize: 0xFC }
  - { offsetInCU: 0x30830, offset: 0x54898, size: 0x8, addend: 0x0, symName: __ZN8nlohmann16json_abi_v3_11_36detail13concat_lengthINSt3__112basic_stringIcNS3_11char_traitsIcEENS3_9allocatorIcEEEEJA12_cS9_A3_cS9_S9_EEEmRKT_DpRKT0_, symObjAddr: 0x394FC, symBinAddr: 0x100040008, symSize: 0x60 }
  - { offsetInCU: 0x308D2, offset: 0x5493A, size: 0x8, addend: 0x0, symName: __ZN8nlohmann16json_abi_v3_11_36detail11concat_intoINSt3__112basic_stringIcNS3_11char_traitsIcEENS3_9allocatorIcEEEES9_JRA12_KcS9_RA3_SA_S9_RKS9_ELi0EEEvRT_OT0_DpOT1_, symObjAddr: 0x3955C, symBinAddr: 0x100040068, symSize: 0x5C }
  - { offsetInCU: 0x3098D, offset: 0x549F5, size: 0x8, addend: 0x0, symName: __ZN8nlohmann16json_abi_v3_11_36detail13concat_lengthIJNSt3__112basic_stringIcNS3_11char_traitsIcEENS3_9allocatorIcEEEEA3_cS9_S9_EEEmPKcDpRKT_, symObjAddr: 0x395B8, symBinAddr: 0x1000400C4, symSize: 0x58 }
  - { offsetInCU: 0x30A11, offset: 0x54A79, size: 0x8, addend: 0x0, symName: __ZN8nlohmann16json_abi_v3_11_36detail13concat_lengthINSt3__112basic_stringIcNS3_11char_traitsIcEENS3_9allocatorIcEEEEJA3_cS9_S9_EEEmRKT_DpRKT0_, symObjAddr: 0x39610, symBinAddr: 0x10004011C, symSize: 0x50 }
  - { offsetInCU: 0x30A8A, offset: 0x54AF2, size: 0x8, addend: 0x0, symName: __ZN8nlohmann16json_abi_v3_11_36detail13concat_lengthIJNSt3__112basic_stringIcNS3_11char_traitsIcEENS3_9allocatorIcEEEES9_EEEmPKcDpRKT_, symObjAddr: 0x39660, symBinAddr: 0x10004016C, symSize: 0x48 }
  - { offsetInCU: 0x30AE7, offset: 0x54B4F, size: 0x8, addend: 0x0, symName: __ZN8nlohmann16json_abi_v3_11_36detail11concat_intoINSt3__112basic_stringIcNS3_11char_traitsIcEENS3_9allocatorIcEEEERA12_KcJS9_RA3_SA_S9_RKS9_ELi0EEEvRT_OT0_DpOT1_, symObjAddr: 0x396A8, symBinAddr: 0x1000401B4, symSize: 0x54 }
  - { offsetInCU: 0x30B8F, offset: 0x54BF7, size: 0x8, addend: 0x0, symName: __ZN8nlohmann16json_abi_v3_11_36detail11concat_intoINSt3__112basic_stringIcNS3_11char_traitsIcEENS3_9allocatorIcEEEES9_JRA3_KcS9_RKS9_ELi0EEEvRT_OT0_DpOT1_, symObjAddr: 0x396FC, symBinAddr: 0x100040208, symSize: 0x4C }
  - { offsetInCU: 0x30C23, offset: 0x54C8B, size: 0x8, addend: 0x0, symName: __ZN8nlohmann16json_abi_v3_11_36detail11concat_intoINSt3__112basic_stringIcNS3_11char_traitsIcEENS3_9allocatorIcEEEERA3_KcJS9_RKS9_ELi0EEEvRT_OT0_DpOT1_, symObjAddr: 0x39748, symBinAddr: 0x100040254, symSize: 0x44 }
  - { offsetInCU: 0x30CA2, offset: 0x54D0A, size: 0x8, addend: 0x0, symName: __ZN8nlohmann16json_abi_v3_11_36detail6concatINSt3__112basic_stringIcNS3_11char_traitsIcEENS3_9allocatorIcEEEEJRA10_KcS9_SC_S9_EEET_DpOT0_, symObjAddr: 0x3978C, symBinAddr: 0x100040298, symSize: 0xE4 }
  - { offsetInCU: 0x30D31, offset: 0x54D99, size: 0x8, addend: 0x0, symName: __ZN8nlohmann16json_abi_v3_11_36detail13concat_lengthIJNSt3__112basic_stringIcNS3_11char_traitsIcEENS3_9allocatorIcEEEEA10_cS9_EEEmPKcDpRKT_, symObjAddr: 0x39870, symBinAddr: 0x10004037C, symSize: 0x50 }
  - { offsetInCU: 0x30DA2, offset: 0x54E0A, size: 0x8, addend: 0x0, symName: __ZN8nlohmann16json_abi_v3_11_36detail11concat_intoINSt3__112basic_stringIcNS3_11char_traitsIcEENS3_9allocatorIcEEEERA10_KcJS9_SC_S9_ELi0EEEvRT_OT0_DpOT1_, symObjAddr: 0x398C0, symBinAddr: 0x1000403CC, symSize: 0x4C }
  - { offsetInCU: 0x30E35, offset: 0x54E9D, size: 0x8, addend: 0x0, symName: __ZN8nlohmann16json_abi_v3_11_36detail13concat_lengthINSt3__112basic_stringIcNS3_11char_traitsIcEENS3_9allocatorIcEEEEJA10_cS9_EEEmRKT_DpRKT0_, symObjAddr: 0x3990C, symBinAddr: 0x100040418, symSize: 0x48 }
  - { offsetInCU: 0x30E9B, offset: 0x54F03, size: 0x8, addend: 0x0, symName: __ZN8nlohmann16json_abi_v3_11_36detail11concat_intoINSt3__112basic_stringIcNS3_11char_traitsIcEENS3_9allocatorIcEEEES9_JRA10_KcS9_ELi0EEEvRT_OT0_DpOT1_, symObjAddr: 0x39954, symBinAddr: 0x100040460, symSize: 0x44 }
  - { offsetInCU: 0x30F1B, offset: 0x54F83, size: 0x8, addend: 0x0, symName: __ZN8nlohmann16json_abi_v3_11_36detail11concat_intoINSt3__112basic_stringIcNS3_11char_traitsIcEENS3_9allocatorIcEEEERA10_KcJS9_ELi0EEEvRT_OT0_DpOT1_, symObjAddr: 0x39998, symBinAddr: 0x1000404A4, symSize: 0x3C }
  - { offsetInCU: 0x30F86, offset: 0x54FEE, size: 0x8, addend: 0x0, symName: __ZN8nlohmann16json_abi_v3_11_36detail6concatINSt3__112basic_stringIcNS3_11char_traitsIcEENS3_9allocatorIcEEEEJRA15_KcRKS9_cEEET_DpOT0_, symObjAddr: 0x39A34, symBinAddr: 0x100040540, symSize: 0xD8 }
  - { offsetInCU: 0x31001, offset: 0x55069, size: 0x8, addend: 0x0, symName: __ZN8nlohmann16json_abi_v3_11_36detail6concatINSt3__112basic_stringIcNS3_11char_traitsIcEENS3_9allocatorIcEEEEJPKcRA15_SA_S9_cEEET_DpOT0_, symObjAddr: 0x39B38, symBinAddr: 0x100040644, symSize: 0xE8 }
  - { offsetInCU: 0x31090, offset: 0x550F8, size: 0x8, addend: 0x0, symName: __ZN8nlohmann16json_abi_v3_11_36detail6concatINSt3__112basic_stringIcNS3_11char_traitsIcEENS3_9allocatorIcEEEEJRA12_KcPSA_EEET_DpOT0_, symObjAddr: 0x39C38, symBinAddr: 0x100040744, symSize: 0xC4 }
  - { offsetInCU: 0x310F8, offset: 0x55160, size: 0x8, addend: 0x0, symName: __ZN8nlohmann16json_abi_v3_11_36detail11concat_intoINSt3__112basic_stringIcNS3_11char_traitsIcEENS3_9allocatorIcEEEERA15_KcJRKS9_cELi0EEEvRT_OT0_DpOT1_, symObjAddr: 0x39E88, symBinAddr: 0x100040994, symSize: 0x44 }
  - { offsetInCU: 0x31178, offset: 0x551E0, size: 0x8, addend: 0x0, symName: __ZN8nlohmann16json_abi_v3_11_36detail11concat_intoINSt3__112basic_stringIcNS3_11char_traitsIcEENS3_9allocatorIcEEEERKS9_JcELi0EEEvRT_OT0_DpOT1_, symObjAddr: 0x39ECC, symBinAddr: 0x1000409D8, symSize: 0x3C }
  - { offsetInCU: 0x311E3, offset: 0x5524B, size: 0x8, addend: 0x0, symName: __ZN8nlohmann16json_abi_v3_11_36detail13concat_lengthIJA15_cNSt3__112basic_stringIcNS4_11char_traitsIcEENS4_9allocatorIcEEEEcEEEmPKcDpRKT_, symObjAddr: 0x39F08, symBinAddr: 0x100040A14, symSize: 0x50 }
  - { offsetInCU: 0x31254, offset: 0x552BC, size: 0x8, addend: 0x0, symName: __ZN8nlohmann16json_abi_v3_11_36detail11concat_intoINSt3__112basic_stringIcNS3_11char_traitsIcEENS3_9allocatorIcEEEEPKcJRA15_SA_S9_cELi0EEEvRT_OT0_DpOT1_, symObjAddr: 0x39F58, symBinAddr: 0x100040A64, symSize: 0x50 }
  - { offsetInCU: 0x312E8, offset: 0x55350, size: 0x8, addend: 0x0, symName: __ZN8nlohmann16json_abi_v3_11_36detail11concat_intoINSt3__112basic_stringIcNS3_11char_traitsIcEENS3_9allocatorIcEEEERA15_KcJS9_cELi0EEEvRT_OT0_DpOT1_, symObjAddr: 0x39FA8, symBinAddr: 0x100040AB4, symSize: 0x44 }
  - { offsetInCU: 0x31368, offset: 0x553D0, size: 0x8, addend: 0x0, symName: __ZN8nlohmann16json_abi_v3_11_36detail11concat_intoINSt3__112basic_stringIcNS3_11char_traitsIcEENS3_9allocatorIcEEEERA12_KcJPSA_ELi0EEEvRT_OT0_DpOT1_, symObjAddr: 0x39FEC, symBinAddr: 0x100040AF8, symSize: 0x3C }
  - { offsetInCU: 0x313D4, offset: 0x5543C, size: 0x8, addend: 0x0, symName: __ZN8nlohmann16json_abi_v3_11_36detaileqENS1_20primitive_iterator_tES2_, symObjAddr: 0x3D6F4, symBinAddr: 0x100043BD4, symSize: 0x28 }
  - { offsetInCU: 0x31412, offset: 0x5547A, size: 0x8, addend: 0x0, symName: __ZN8nlohmann16json_abi_v3_11_36detail9from_jsonINS0_10basic_jsonINSt3__13mapENS4_6vectorENS4_12basic_stringIcNS4_11char_traitsIcEENS4_9allocatorIcEEEEbxydSA_NS0_14adl_serializerENS6_IhNSA_IhEEEEvEEEEvRKT_RNSH_8string_tE, symObjAddr: 0x40548, symBinAddr: 0x100046984, symSize: 0x118 }
  - { offsetInCU: 0x31454, offset: 0x554BC, size: 0x8, addend: 0x0, symName: __ZN8nlohmann16json_abi_v3_11_36detail7to_jsonINS0_10basic_jsonINSt3__13mapENS4_6vectorENS4_12basic_stringIcNS4_11char_traitsIcEENS4_9allocatorIcEEEEbxydSA_NS0_14adl_serializerENS6_IhNSA_IhEEEEvEEEEvRT_ONSH_8string_tE, symObjAddr: 0x45A08, symBinAddr: 0x10004B600, symSize: 0x2C }
  - { offsetInCU: 0x33334, offset: 0x5739C, size: 0x8, addend: 0x0, symName: __ZN8nlohmann16json_abi_v3_11_3eqERKNS0_10basic_jsonINSt3__13mapENS2_6vectorENS2_12basic_stringIcNS2_11char_traitsIcEENS2_9allocatorIcEEEEbxydS8_NS0_14adl_serializerENS4_IhNS8_IhEEEEvEESG_, symObjAddr: 0x5AB8, symBinAddr: 0x10000DF8C, symSize: 0x470 }
  - { offsetInCU: 0x34627, offset: 0x5868F, size: 0x8, addend: 0x0, symName: __ZN8nlohmann16json_abi_v3_11_36detail10serializerINS0_10basic_jsonINSt3__13mapENS4_6vectorENS4_12basic_stringIcNS4_11char_traitsIcEENS4_9allocatorIcEEEEbxydSA_NS0_14adl_serializerENS6_IhNSA_IhEEEEvEEE6decodeERhRjh, symObjAddr: 0x1ED50, symBinAddr: 0x10002585C, symSize: 0x180 }
  - { offsetInCU: 0x34647, offset: 0x586AF, size: 0x8, addend: 0x0, symName: __ZZN8nlohmann16json_abi_v3_11_36detail10serializerINS0_10basic_jsonINSt3__13mapENS4_6vectorENS4_12basic_stringIcNS4_11char_traitsIcEENS4_9allocatorIcEEEEbxydSA_NS0_14adl_serializerENS6_IhNSA_IhEEEEvEEE6decodeERhRjhE5utf8d, symObjAddr: 0x4CC72, symBinAddr: 0x10005042A, symSize: 0x0 }
  - { offsetInCU: 0x346EE, offset: 0x58756, size: 0x8, addend: 0x0, symName: __ZN8nlohmann16json_abi_v3_11_36detail10serializerINS0_10basic_jsonINSt3__13mapENS4_6vectorENS4_12basic_stringIcNS4_11char_traitsIcEENS4_9allocatorIcEEEEbxydSA_NS0_14adl_serializerENS6_IhNSA_IhEEEEvEEE12dump_integerIhLi0EEEvT_, symObjAddr: 0x1E288, symBinAddr: 0x100024D94, symSize: 0x2C8 }
  - { offsetInCU: 0x34712, offset: 0x5877A, size: 0x8, addend: 0x0, symName: __ZZN8nlohmann16json_abi_v3_11_36detail10serializerINS0_10basic_jsonINSt3__13mapENS4_6vectorENS4_12basic_stringIcNS4_11char_traitsIcEENS4_9allocatorIcEEEEbxydSA_NS0_14adl_serializerENS6_IhNSA_IhEEEEvEEE12dump_integerIhLi0EEEvT_E12digits_to_99, symObjAddr: 0x4CE02, symBinAddr: 0x1000505BA, symSize: 0x0 }
  - { offsetInCU: 0x34828, offset: 0x58890, size: 0x8, addend: 0x0, symName: __ZN8nlohmann16json_abi_v3_11_36detail10serializerINS0_10basic_jsonINSt3__13mapENS4_6vectorENS4_12basic_stringIcNS4_11char_traitsIcEENS4_9allocatorIcEEEEbxydSA_NS0_14adl_serializerENS6_IhNSA_IhEEEEvEEE12dump_integerIyLi0EEEvT_, symObjAddr: 0x1E5C0, symBinAddr: 0x1000250CC, symSize: 0x2C4 }
  - { offsetInCU: 0x3484C, offset: 0x588B4, size: 0x8, addend: 0x0, symName: __ZZN8nlohmann16json_abi_v3_11_36detail10serializerINS0_10basic_jsonINSt3__13mapENS4_6vectorENS4_12basic_stringIcNS4_11char_traitsIcEENS4_9allocatorIcEEEEbxydSA_NS0_14adl_serializerENS6_IhNSA_IhEEEEvEEE12dump_integerIyLi0EEEvT_E12digits_to_99, symObjAddr: 0x4CECA, symBinAddr: 0x100050682, symSize: 0x0 }
  - { offsetInCU: 0x348F0, offset: 0x58958, size: 0x8, addend: 0x0, symName: __ZN8nlohmann16json_abi_v3_11_36detail10serializerINS0_10basic_jsonINSt3__13mapENS4_6vectorENS4_12basic_stringIcNS4_11char_traitsIcEENS4_9allocatorIcEEEEbxydSA_NS0_14adl_serializerENS6_IhNSA_IhEEEEvEEE12dump_integerIxLi0EEEvT_, symObjAddr: 0x1E8C8, symBinAddr: 0x1000253D4, symSize: 0x2C4 }
  - { offsetInCU: 0x34914, offset: 0x5897C, size: 0x8, addend: 0x0, symName: __ZZN8nlohmann16json_abi_v3_11_36detail10serializerINS0_10basic_jsonINSt3__13mapENS4_6vectorENS4_12basic_stringIcNS4_11char_traitsIcEENS4_9allocatorIcEEEEbxydSA_NS0_14adl_serializerENS6_IhNSA_IhEEEEvEEE12dump_integerIxLi0EEEvT_E12digits_to_99, symObjAddr: 0x4CF92, symBinAddr: 0x10005074A, symSize: 0x0 }
  - { offsetInCU: 0x349B8, offset: 0x58A20, size: 0x8, addend: 0x0, symName: __ZN8nlohmann16json_abi_v3_11_36detail10serializerINS0_10basic_jsonINSt3__13mapENS4_6vectorENS4_12basic_stringIcNS4_11char_traitsIcEENS4_9allocatorIcEEEEbxydSA_NS0_14adl_serializerENS6_IhNSA_IhEEEEvEEE10dump_floatEd, symObjAddr: 0x1EB8C, symBinAddr: 0x100025698, symSize: 0x6C }
  - { offsetInCU: 0x349DC, offset: 0x58A44, size: 0x8, addend: 0x0, symName: __ZZN8nlohmann16json_abi_v3_11_36detail10serializerINS0_10basic_jsonINSt3__13mapENS4_6vectorENS4_12basic_stringIcNS4_11char_traitsIcEENS4_9allocatorIcEEEEbxydSA_NS0_14adl_serializerENS6_IhNSA_IhEEEEvEEE10dump_floatEdE24is_ieee_single_or_double, symObjAddr: 0x4D05A, symBinAddr: 0x100050812, symSize: 0x0 }
  - { offsetInCU: 0x35213, offset: 0x5927B, size: 0x8, addend: 0x0, symName: __ZNSt3__16vectorI5PointNS_9allocatorIS1_EEE26__swap_out_circular_bufferERNS_14__split_bufferIS1_RS3_EE, symObjAddr: 0xFFDC, symBinAddr: 0x100017138, symSize: 0x118 }
  - { offsetInCU: 0x35290, offset: 0x592F8, size: 0x8, addend: 0x0, symName: __ZNSt3__16vectorIN8nlohmann16json_abi_v3_11_310basic_jsonINS_3mapES0_NS_12basic_stringIcNS_11char_traitsIcEENS_9allocatorIcEEEEbxydS8_NS2_14adl_serializerENS0_IhNS8_IhEEEEvEENS8_ISE_EEE26__swap_out_circular_bufferERNS_14__split_bufferISE_RSF_EE, symObjAddr: 0x12584, symBinAddr: 0x1000191DC, symSize: 0x118 }
  - { offsetInCU: 0x355A7, offset: 0x5960F, size: 0x8, addend: 0x0, symName: __ZNSt3__16vectorIcNS_9allocatorIcEEE26__swap_out_circular_bufferERNS_14__split_bufferIcRS2_EE, symObjAddr: 0x26600, symBinAddr: 0x10002D10C, symSize: 0x118 }
  - { offsetInCU: 0x358B1, offset: 0x59919, size: 0x8, addend: 0x0, symName: __ZNSt3__16vectorIPN8nlohmann16json_abi_v3_11_310basic_jsonINS_3mapES0_NS_12basic_stringIcNS_11char_traitsIcEENS_9allocatorIcEEEEbxydS8_NS2_14adl_serializerENS0_IhNS8_IhEEEEvEENS8_ISF_EEE26__swap_out_circular_bufferERNS_14__split_bufferISF_RSG_EE, symObjAddr: 0x303C8, symBinAddr: 0x100036ED4, symSize: 0x118 }
  - { offsetInCU: 0x35CCF, offset: 0x59D37, size: 0x8, addend: 0x0, symName: __ZNSt3__16vectorIP6SectorNS_9allocatorIS2_EEE26__swap_out_circular_bufferERNS_14__split_bufferIS2_RS4_EE, symObjAddr: 0x3DD08, symBinAddr: 0x1000441D4, symSize: 0x118 }
  - { offsetInCU: 0x35D24, offset: 0x59D8C, size: 0x8, addend: 0x0, symName: __ZNSt3__16vectorIdNS_9allocatorIdEEE26__swap_out_circular_bufferERNS_14__split_bufferIdRS2_EE, symObjAddr: 0x3F828, symBinAddr: 0x100045C64, symSize: 0x118 }
  - { offsetInCU: 0x35D65, offset: 0x59DCD, size: 0x8, addend: 0x0, symName: __ZNSt3__16vectorINS_12basic_stringIcNS_11char_traitsIcEENS_9allocatorIcEEEENS4_IS6_EEE26__swap_out_circular_bufferERNS_14__split_bufferIS6_RS7_EE, symObjAddr: 0x40B9C, symBinAddr: 0x100046E64, symSize: 0x118 }
  - { offsetInCU: 0x3633F, offset: 0x5A3A7, size: 0x8, addend: 0x0, symName: __Z11test_outputv, symObjAddr: 0x8910, symBinAddr: 0x100010C28, symSize: 0x294 }
  - { offsetInCU: 0x381C1, offset: 0x5C229, size: 0x8, addend: 0x0, symName: __Z18serializeSectorBSTRK6Sector, symObjAddr: 0x0, symBinAddr: 0x10000892C, symSize: 0x24C }
  - { offsetInCU: 0x381FD, offset: 0x5C265, size: 0x8, addend: 0x0, symName: __ZN8nlohmann16json_abi_v3_11_310basic_jsonINSt3__13mapENS2_6vectorENS2_12basic_stringIcNS2_11char_traitsIcEENS2_9allocatorIcEEEEbxydS8_NS0_14adl_serializerENS4_IhNS8_IhEEEEvEC1EDn, symObjAddr: 0x24C, symBinAddr: 0x100008B78, symSize: 0x4C }
  - { offsetInCU: 0x38235, offset: 0x5C29D, size: 0x8, addend: 0x0, symName: __ZN8nlohmann16json_abi_v3_11_310basic_jsonINSt3__13mapENS2_6vectorENS2_12basic_stringIcNS2_11char_traitsIcEENS2_9allocatorIcEEEEbxydS8_NS0_14adl_serializerENS4_IhNS8_IhEEEEvEC1IRKiiLi0EEEOT_, symObjAddr: 0x298, symBinAddr: 0x100008BC4, symSize: 0x34 }
  - { offsetInCU: 0x38285, offset: 0x5C2ED, size: 0x8, addend: 0x0, symName: __ZN8nlohmann16json_abi_v3_11_310basic_jsonINSt3__13mapENS2_6vectorENS2_12basic_stringIcNS2_11char_traitsIcEENS2_9allocatorIcEEEEbxydS8_NS0_14adl_serializerENS4_IhNS8_IhEEEEvEixIKcEERSE_PT_, symObjAddr: 0x2CC, symBinAddr: 0x100008BF8, symSize: 0x78 }
  - { offsetInCU: 0x382C1, offset: 0x5C329, size: 0x8, addend: 0x0, symName: __ZN8nlohmann16json_abi_v3_11_310basic_jsonINSt3__13mapENS2_6vectorENS2_12basic_stringIcNS2_11char_traitsIcEENS2_9allocatorIcEEEEbxydS8_NS0_14adl_serializerENS4_IhNS8_IhEEEEvEaSESE_, symObjAddr: 0x344, symBinAddr: 0x100008C70, symSize: 0x80 }
  - { offsetInCU: 0x382F5, offset: 0x5C35D, size: 0x8, addend: 0x0, symName: __ZN8nlohmann16json_abi_v3_11_310basic_jsonINSt3__13mapENS2_6vectorENS2_12basic_stringIcNS2_11char_traitsIcEENS2_9allocatorIcEEEEbxydS8_NS0_14adl_serializerENS4_IhNS8_IhEEEEvED1Ev, symObjAddr: 0x3C4, symBinAddr: 0x100008CF0, symSize: 0x2C }
  - { offsetInCU: 0x3831D, offset: 0x5C385, size: 0x8, addend: 0x0, symName: __ZN8nlohmann16json_abi_v3_11_310basic_jsonINSt3__13mapENS2_6vectorENS2_12basic_stringIcNS2_11char_traitsIcEENS2_9allocatorIcEEEEbxydS8_NS0_14adl_serializerENS4_IhNS8_IhEEEEvEC1IRKddLi0EEEOT_, symObjAddr: 0x3F0, symBinAddr: 0x100008D1C, symSize: 0x34 }
  - { offsetInCU: 0x3836D, offset: 0x5C3D5, size: 0x8, addend: 0x0, symName: __ZN8nlohmann16json_abi_v3_11_310basic_jsonINSt3__13mapENS2_6vectorENS2_12basic_stringIcNS2_11char_traitsIcEENS2_9allocatorIcEEEEbxydS8_NS0_14adl_serializerENS4_IhNS8_IhEEEEvEC1IRKSA_SA_Li0EEEOT_, symObjAddr: 0x424, symBinAddr: 0x100008D50, symSize: 0x34 }
  - { offsetInCU: 0x383BC, offset: 0x5C424, size: 0x8, addend: 0x0, symName: __Z12serializeBSTPK6Sector, symObjAddr: 0x458, symBinAddr: 0x100008D84, symSize: 0x1C4 }
  - { offsetInCU: 0x383F7, offset: 0x5C45F, size: 0x8, addend: 0x0, symName: __Z20serializeSectorLLRBTRK6Sector, symObjAddr: 0x61C, symBinAddr: 0x100008F48, symSize: 0x2AC }
  - { offsetInCU: 0x38433, offset: 0x5C49B, size: 0x8, addend: 0x0, symName: __ZN8nlohmann16json_abi_v3_11_310basic_jsonINSt3__13mapENS2_6vectorENS2_12basic_stringIcNS2_11char_traitsIcEENS2_9allocatorIcEEEEbxydS8_NS0_14adl_serializerENS4_IhNS8_IhEEEEvEC1IRKbbLi0EEEOT_, symObjAddr: 0x8C8, symBinAddr: 0x1000091F4, symSize: 0x34 }
  - { offsetInCU: 0x38482, offset: 0x5C4EA, size: 0x8, addend: 0x0, symName: __Z14serializeLLRBTPK6Sector, symObjAddr: 0x8FC, symBinAddr: 0x100009228, symSize: 0x1C4 }
  - { offsetInCU: 0x384BD, offset: 0x5C525, size: 0x8, addend: 0x0, symName: __Z14serializePointRK5Point, symObjAddr: 0xAC0, symBinAddr: 0x1000093EC, symSize: 0x1A0 }
  - { offsetInCU: 0x3853C, offset: 0x5C5A4, size: 0x8, addend: 0x0, symName: __ZNKSt3__16vectorIdNS_9allocatorIdEEE5beginB7v160006Ev, symObjAddr: 0xC60, symBinAddr: 0x10000958C, symSize: 0x30 }
  - { offsetInCU: 0x38562, offset: 0x5C5CA, size: 0x8, addend: 0x0, symName: __ZNKSt3__16vectorIdNS_9allocatorIdEEE3endB7v160006Ev, symObjAddr: 0xC90, symBinAddr: 0x1000095BC, symSize: 0x30 }
  - { offsetInCU: 0x38588, offset: 0x5C5F0, size: 0x8, addend: 0x0, symName: __ZNKSt3__111__wrap_iterIPKdEdeB7v160006Ev, symObjAddr: 0xCF4, symBinAddr: 0x100009620, symSize: 0x18 }
  - { offsetInCU: 0x385AC, offset: 0x5C614, size: 0x8, addend: 0x0, symName: __ZN8nlohmann16json_abi_v3_11_310basic_jsonINSt3__13mapENS2_6vectorENS2_12basic_stringIcNS2_11char_traitsIcEENS2_9allocatorIcEEEEbxydS8_NS0_14adl_serializerENS4_IhNS8_IhEEEEvE9push_backEOSE_, symObjAddr: 0xD0C, symBinAddr: 0x100009638, symSize: 0x1B0 }
  - { offsetInCU: 0x385EF, offset: 0x5C657, size: 0x8, addend: 0x0, symName: __ZNSt3__111__wrap_iterIPKdEppB7v160006Ev, symObjAddr: 0xEBC, symBinAddr: 0x1000097E8, symSize: 0x20 }
  - { offsetInCU: 0x38612, offset: 0x5C67A, size: 0x8, addend: 0x0, symName: __Z16serializeDatasetRK7Dataset, symObjAddr: 0xEDC, symBinAddr: 0x100009808, symSize: 0x144 }
  - { offsetInCU: 0x38698, offset: 0x5C700, size: 0x8, addend: 0x0, symName: __ZNKSt3__16vectorI5PointNS_9allocatorIS1_EEE5beginB7v160006Ev, symObjAddr: 0x1020, symBinAddr: 0x10000994C, symSize: 0x30 }
  - { offsetInCU: 0x386BE, offset: 0x5C726, size: 0x8, addend: 0x0, symName: __ZNKSt3__16vectorI5PointNS_9allocatorIS1_EEE3endB7v160006Ev, symObjAddr: 0x1050, symBinAddr: 0x10000997C, symSize: 0x30 }
  - { offsetInCU: 0x386E4, offset: 0x5C74C, size: 0x8, addend: 0x0, symName: __ZNKSt3__111__wrap_iterIPK5PointEdeB7v160006Ev, symObjAddr: 0x10B4, symBinAddr: 0x1000099E0, symSize: 0x18 }
  - { offsetInCU: 0x38708, offset: 0x5C770, size: 0x8, addend: 0x0, symName: __ZNSt3__111__wrap_iterIPK5PointEppB7v160006Ev, symObjAddr: 0x10CC, symBinAddr: 0x1000099F8, symSize: 0x20 }
  - { offsetInCU: 0x3872B, offset: 0x5C793, size: 0x8, addend: 0x0, symName: __Z15serializeKDNodePK10KDTreeNode, symObjAddr: 0x10EC, symBinAddr: 0x100009A18, symSize: 0x254 }
  - { offsetInCU: 0x3879F, offset: 0x5C807, size: 0x8, addend: 0x0, symName: __ZN8nlohmann16json_abi_v3_11_310basic_jsonINSt3__13mapENS2_6vectorENS2_12basic_stringIcNS2_11char_traitsIcEENS2_9allocatorIcEEEEbxydS8_NS0_14adl_serializerENS4_IhNS8_IhEEEEvEC1IbbLi0EEEOT_, symObjAddr: 0x1340, symBinAddr: 0x100009C6C, symSize: 0x34 }
  - { offsetInCU: 0x387EE, offset: 0x5C856, size: 0x8, addend: 0x0, symName: __Z15serializeKDTreePK10KDTreeNode, symObjAddr: 0x1374, symBinAddr: 0x100009CA0, symSize: 0x23C }
  - { offsetInCU: 0x3883D, offset: 0x5C8A5, size: 0x8, addend: 0x0, symName: __Z16serializePathBSTRKNSt3__16vectorIP6SectorNS_9allocatorIS2_EEEE, symObjAddr: 0x15B0, symBinAddr: 0x100009EDC, symSize: 0x118 }
  - { offsetInCU: 0x388C2, offset: 0x5C92A, size: 0x8, addend: 0x0, symName: __ZNKSt3__16vectorIP6SectorNS_9allocatorIS2_EEE5beginB7v160006Ev, symObjAddr: 0x16C8, symBinAddr: 0x100009FF4, symSize: 0x30 }
  - { offsetInCU: 0x388E8, offset: 0x5C950, size: 0x8, addend: 0x0, symName: __ZNKSt3__16vectorIP6SectorNS_9allocatorIS2_EEE3endB7v160006Ev, symObjAddr: 0x16F8, symBinAddr: 0x10000A024, symSize: 0x30 }
  - { offsetInCU: 0x3890E, offset: 0x5C976, size: 0x8, addend: 0x0, symName: __ZNKSt3__111__wrap_iterIPKP6SectorEdeB7v160006Ev, symObjAddr: 0x175C, symBinAddr: 0x10000A088, symSize: 0x18 }
  - { offsetInCU: 0x38932, offset: 0x5C99A, size: 0x8, addend: 0x0, symName: __ZNSt3__111__wrap_iterIPKP6SectorEppB7v160006Ev, symObjAddr: 0x1774, symBinAddr: 0x10000A0A0, symSize: 0x20 }
  - { offsetInCU: 0x38956, offset: 0x5C9BE, size: 0x8, addend: 0x0, symName: __ZNK8nlohmann16json_abi_v3_11_310basic_jsonINSt3__13mapENS2_6vectorENS2_12basic_stringIcNS2_11char_traitsIcEENS2_9allocatorIcEEEEbxydS8_NS0_14adl_serializerENS4_IhNS8_IhEEEEvE4dumpEicbNS0_6detail15error_handler_tE, symObjAddr: 0x1794, symBinAddr: 0x10000A0C0, symSize: 0x1F4 }
  - { offsetInCU: 0x389DD, offset: 0x5CA45, size: 0x8, addend: 0x0, symName: __Z18serializePathLLRBTRKNSt3__16vectorIP6SectorNS_9allocatorIS2_EEEE, symObjAddr: 0x1988, symBinAddr: 0x10000A2B4, symSize: 0x118 }
  - { offsetInCU: 0x38A61, offset: 0x5CAC9, size: 0x8, addend: 0x0, symName: __Z20deserializeSectorBSTRKN8nlohmann16json_abi_v3_11_310basic_jsonINSt3__13mapENS2_6vectorENS2_12basic_stringIcNS2_11char_traitsIcEENS2_9allocatorIcEEEEbxydS8_NS0_14adl_serializerENS4_IhNS8_IhEEEEvEE, symObjAddr: 0x1AA0, symBinAddr: 0x10000A3CC, symSize: 0xF0 }
  - { offsetInCU: 0x38AC6, offset: 0x5CB2E, size: 0x8, addend: 0x0, symName: __ZNK8nlohmann16json_abi_v3_11_310basic_jsonINSt3__13mapENS2_6vectorENS2_12basic_stringIcNS2_11char_traitsIcEENS2_9allocatorIcEEEEbxydS8_NS0_14adl_serializerENS4_IhNS8_IhEEEEvEixIKcEERKSE_PT_, symObjAddr: 0x1B90, symBinAddr: 0x10000A4BC, symSize: 0x78 }
  - { offsetInCU: 0x38B02, offset: 0x5CB6A, size: 0x8, addend: 0x0, symName: __ZNK8nlohmann16json_abi_v3_11_310basic_jsonINSt3__13mapENS2_6vectorENS2_12basic_stringIcNS2_11char_traitsIcEENS2_9allocatorIcEEEEbxydS8_NS0_14adl_serializerENS4_IhNS8_IhEEEEvEcvT_IiLi0EEEv, symObjAddr: 0x1C08, symBinAddr: 0x10000A534, symSize: 0x24 }
  - { offsetInCU: 0x38B36, offset: 0x5CB9E, size: 0x8, addend: 0x0, symName: __ZNK8nlohmann16json_abi_v3_11_310basic_jsonINSt3__13mapENS2_6vectorENS2_12basic_stringIcNS2_11char_traitsIcEENS2_9allocatorIcEEEEbxydS8_NS0_14adl_serializerENS4_IhNS8_IhEEEEvEcvT_IdLi0EEEv, symObjAddr: 0x1C2C, symBinAddr: 0x10000A558, symSize: 0x24 }
  - { offsetInCU: 0x38B6F, offset: 0x5CBD7, size: 0x8, addend: 0x0, symName: __ZNSt3__112basic_stringIcNS_11char_traitsIcEENS_9allocatorIcEEEaSIN8nlohmann16json_abi_v3_11_310basic_jsonINS_3mapENS_6vectorES5_bxydS3_NS8_14adl_serializerENSB_IhNS3_IhEEEEvEEvEERS5_RKT_, symObjAddr: 0x1C50, symBinAddr: 0x10000A57C, symSize: 0x4C }
  - { offsetInCU: 0x38BBB, offset: 0x5CC23, size: 0x8, addend: 0x0, symName: __Z14deserializeBSTRKN8nlohmann16json_abi_v3_11_310basic_jsonINSt3__13mapENS2_6vectorENS2_12basic_stringIcNS2_11char_traitsIcEENS2_9allocatorIcEEEEbxydS8_NS0_14adl_serializerENS4_IhNS8_IhEEEEvEE, symObjAddr: 0x1C9C, symBinAddr: 0x10000A5C8, symSize: 0xEC }
  - { offsetInCU: 0x38BF6, offset: 0x5CC5E, size: 0x8, addend: 0x0, symName: __ZNK8nlohmann16json_abi_v3_11_310basic_jsonINSt3__13mapENS2_6vectorENS2_12basic_stringIcNS2_11char_traitsIcEENS2_9allocatorIcEEEEbxydS8_NS0_14adl_serializerENS4_IhNS8_IhEEEEvE7is_nullEv, symObjAddr: 0x1D88, symBinAddr: 0x10000A6B4, symSize: 0x24 }
  - { offsetInCU: 0x38C19, offset: 0x5CC81, size: 0x8, addend: 0x0, symName: __Z22deserializeSectorLLRBTRKN8nlohmann16json_abi_v3_11_310basic_jsonINSt3__13mapENS2_6vectorENS2_12basic_stringIcNS2_11char_traitsIcEENS2_9allocatorIcEEEEbxydS8_NS0_14adl_serializerENS4_IhNS8_IhEEEEvEE, symObjAddr: 0x1DAC, symBinAddr: 0x10000A6D8, symSize: 0x110 }
  - { offsetInCU: 0x38C7E, offset: 0x5CCE6, size: 0x8, addend: 0x0, symName: __ZNK8nlohmann16json_abi_v3_11_310basic_jsonINSt3__13mapENS2_6vectorENS2_12basic_stringIcNS2_11char_traitsIcEENS2_9allocatorIcEEEEbxydS8_NS0_14adl_serializerENS4_IhNS8_IhEEEEvEcvT_IbLi0EEEv, symObjAddr: 0x1EBC, symBinAddr: 0x10000A7E8, symSize: 0x28 }
  - { offsetInCU: 0x38CB1, offset: 0x5CD19, size: 0x8, addend: 0x0, symName: __Z16deserializeLLRBTRKN8nlohmann16json_abi_v3_11_310basic_jsonINSt3__13mapENS2_6vectorENS2_12basic_stringIcNS2_11char_traitsIcEENS2_9allocatorIcEEEEbxydS8_NS0_14adl_serializerENS4_IhNS8_IhEEEEvEE, symObjAddr: 0x1EE4, symBinAddr: 0x10000A810, symSize: 0xEC }
  - { offsetInCU: 0x38CEB, offset: 0x5CD53, size: 0x8, addend: 0x0, symName: __Z18deserializePathBSTRKNSt3__112basic_stringIcNS_11char_traitsIcEENS_9allocatorIcEEEE, symObjAddr: 0x1FD0, symBinAddr: 0x10000A8FC, symSize: 0x1C0 }
  - { offsetInCU: 0x38D83, offset: 0x5CDEB, size: 0x8, addend: 0x0, symName: __ZN8nlohmann16json_abi_v3_11_310basic_jsonINSt3__13mapENS2_6vectorENS2_12basic_stringIcNS2_11char_traitsIcEENS2_9allocatorIcEEEEbxydS8_NS0_14adl_serializerENS4_IhNS8_IhEEEEvE5parseIRKSA_EESE_OT_NS2_8functionIFbiNS0_6detail13parse_event_tERSE_EEEbb, symObjAddr: 0x2190, symBinAddr: 0x10000AABC, symSize: 0x1A4 }
  - { offsetInCU: 0x38DF3, offset: 0x5CE5B, size: 0x8, addend: 0x0, symName: __ZNSt3__18functionIFbiN8nlohmann16json_abi_v3_11_36detail13parse_event_tERNS2_10basic_jsonINS_3mapENS_6vectorENS_12basic_stringIcNS_11char_traitsIcEENS_9allocatorIcEEEEbxydSB_NS2_14adl_serializerENS7_IhNSB_IhEEEEvEEEEC1B7v160006EDn, symObjAddr: 0x2334, symBinAddr: 0x10000AC60, symSize: 0x34 }
  - { offsetInCU: 0x38E26, offset: 0x5CE8E, size: 0x8, addend: 0x0, symName: __ZNSt3__18functionIFbiN8nlohmann16json_abi_v3_11_36detail13parse_event_tERNS2_10basic_jsonINS_3mapENS_6vectorENS_12basic_stringIcNS_11char_traitsIcEENS_9allocatorIcEEEEbxydSB_NS2_14adl_serializerENS7_IhNSB_IhEEEEvEEEED1Ev, symObjAddr: 0x2368, symBinAddr: 0x10000AC94, symSize: 0x2C }
  - { offsetInCU: 0x38E51, offset: 0x5CEB9, size: 0x8, addend: 0x0, symName: __ZN8nlohmann16json_abi_v3_11_310basic_jsonINSt3__13mapENS2_6vectorENS2_12basic_stringIcNS2_11char_traitsIcEENS2_9allocatorIcEEEEbxydS8_NS0_14adl_serializerENS4_IhNS8_IhEEEEvE5beginEv, symObjAddr: 0x23C0, symBinAddr: 0x10000ACC0, symSize: 0x40 }
  - { offsetInCU: 0x38E86, offset: 0x5CEEE, size: 0x8, addend: 0x0, symName: __ZN8nlohmann16json_abi_v3_11_310basic_jsonINSt3__13mapENS2_6vectorENS2_12basic_stringIcNS2_11char_traitsIcEENS2_9allocatorIcEEEEbxydS8_NS0_14adl_serializerENS4_IhNS8_IhEEEEvE3endEv, symObjAddr: 0x2400, symBinAddr: 0x10000AD00, symSize: 0x40 }
  - { offsetInCU: 0x38EBB, offset: 0x5CF23, size: 0x8, addend: 0x0, symName: __ZNK8nlohmann16json_abi_v3_11_36detail9iter_implINS0_10basic_jsonINSt3__13mapENS4_6vectorENS4_12basic_stringIcNS4_11char_traitsIcEENS4_9allocatorIcEEEEbxydSA_NS0_14adl_serializerENS6_IhNSA_IhEEEEvEEEneISH_LDn0EEEbRKT_, symObjAddr: 0x2440, symBinAddr: 0x10000AD40, symSize: 0x34 }
  - { offsetInCU: 0x38EFE, offset: 0x5CF66, size: 0x8, addend: 0x0, symName: __ZNK8nlohmann16json_abi_v3_11_36detail9iter_implINS0_10basic_jsonINSt3__13mapENS4_6vectorENS4_12basic_stringIcNS4_11char_traitsIcEENS4_9allocatorIcEEEEbxydSA_NS0_14adl_serializerENS6_IhNSA_IhEEEEvEEEdeEv, symObjAddr: 0x2474, symBinAddr: 0x10000AD74, symSize: 0x32C }
  - { offsetInCU: 0x38F22, offset: 0x5CF8A, size: 0x8, addend: 0x0, symName: __ZNSt3__16vectorIP6SectorNS_9allocatorIS2_EEE9push_backB7v160006EOS2_, symObjAddr: 0x27C8, symBinAddr: 0x10000B0C8, symSize: 0x6C }
  - { offsetInCU: 0x38F57, offset: 0x5CFBF, size: 0x8, addend: 0x0, symName: __ZN8nlohmann16json_abi_v3_11_36detail9iter_implINS0_10basic_jsonINSt3__13mapENS4_6vectorENS4_12basic_stringIcNS4_11char_traitsIcEENS4_9allocatorIcEEEEbxydSA_NS0_14adl_serializerENS6_IhNSA_IhEEEEvEEEppEv, symObjAddr: 0x2834, symBinAddr: 0x10000B134, symSize: 0xE0 }
  - { offsetInCU: 0x38F7A, offset: 0x5CFE2, size: 0x8, addend: 0x0, symName: __Z20deserializePathLLRBTRKNSt3__112basic_stringIcNS_11char_traitsIcEENS_9allocatorIcEEEE, symObjAddr: 0x2968, symBinAddr: 0x10000B23C, symSize: 0x1C0 }
  - { offsetInCU: 0x39011, offset: 0x5D079, size: 0x8, addend: 0x0, symName: __Z16deserializePointRKN8nlohmann16json_abi_v3_11_310basic_jsonINSt3__13mapENS2_6vectorENS2_12basic_stringIcNS2_11char_traitsIcEENS2_9allocatorIcEEEEbxydS8_NS0_14adl_serializerENS4_IhNS8_IhEEEEvEE, symObjAddr: 0x2B28, symBinAddr: 0x10000B3FC, symSize: 0x164 }
  - { offsetInCU: 0x390B0, offset: 0x5D118, size: 0x8, addend: 0x0, symName: __ZNSt3__16vectorIdNS_9allocatorIdEEEC1B7v160006Ev, symObjAddr: 0x2C8C, symBinAddr: 0x10000B560, symSize: 0x2C }
  - { offsetInCU: 0x390D8, offset: 0x5D140, size: 0x8, addend: 0x0, symName: __ZNK8nlohmann16json_abi_v3_11_310basic_jsonINSt3__13mapENS2_6vectorENS2_12basic_stringIcNS2_11char_traitsIcEENS2_9allocatorIcEEEEbxydS8_NS0_14adl_serializerENS4_IhNS8_IhEEEEvE5beginEv, symObjAddr: 0x2CB8, symBinAddr: 0x10000B58C, symSize: 0x2C }
  - { offsetInCU: 0x390FC, offset: 0x5D164, size: 0x8, addend: 0x0, symName: __ZNK8nlohmann16json_abi_v3_11_310basic_jsonINSt3__13mapENS2_6vectorENS2_12basic_stringIcNS2_11char_traitsIcEENS2_9allocatorIcEEEEbxydS8_NS0_14adl_serializerENS4_IhNS8_IhEEEEvE3endEv, symObjAddr: 0x2CE4, symBinAddr: 0x10000B5B8, symSize: 0x2C }
  - { offsetInCU: 0x39120, offset: 0x5D188, size: 0x8, addend: 0x0, symName: __ZNK8nlohmann16json_abi_v3_11_36detail9iter_implIKNS0_10basic_jsonINSt3__13mapENS4_6vectorENS4_12basic_stringIcNS4_11char_traitsIcEENS4_9allocatorIcEEEEbxydSA_NS0_14adl_serializerENS6_IhNSA_IhEEEEvEEEneISI_LDn0EEEbRKT_, symObjAddr: 0x2D10, symBinAddr: 0x10000B5E4, symSize: 0x34 }
  - { offsetInCU: 0x39163, offset: 0x5D1CB, size: 0x8, addend: 0x0, symName: __ZNK8nlohmann16json_abi_v3_11_36detail9iter_implIKNS0_10basic_jsonINSt3__13mapENS4_6vectorENS4_12basic_stringIcNS4_11char_traitsIcEENS4_9allocatorIcEEEEbxydSA_NS0_14adl_serializerENS6_IhNSA_IhEEEEvEEEdeEv, symObjAddr: 0x2D44, symBinAddr: 0x10000B618, symSize: 0x32C }
  - { offsetInCU: 0x39187, offset: 0x5D1EF, size: 0x8, addend: 0x0, symName: __ZNSt3__16vectorIdNS_9allocatorIdEEE9push_backB7v160006EOd, symObjAddr: 0x3098, symBinAddr: 0x10000B96C, symSize: 0x6C }
  - { offsetInCU: 0x391BC, offset: 0x5D224, size: 0x8, addend: 0x0, symName: __ZN8nlohmann16json_abi_v3_11_36detail9iter_implIKNS0_10basic_jsonINSt3__13mapENS4_6vectorENS4_12basic_stringIcNS4_11char_traitsIcEENS4_9allocatorIcEEEEbxydSA_NS0_14adl_serializerENS6_IhNSA_IhEEEEvEEEppEv, symObjAddr: 0x3104, symBinAddr: 0x10000B9D8, symSize: 0xE0 }
  - { offsetInCU: 0x391E0, offset: 0x5D248, size: 0x8, addend: 0x0, symName: __ZNK8nlohmann16json_abi_v3_11_310basic_jsonINSt3__13mapENS2_6vectorENS2_12basic_stringIcNS2_11char_traitsIcEENS2_9allocatorIcEEEEbxydS8_NS0_14adl_serializerENS4_IhNS8_IhEEEEvEcvT_ISA_Li0EEEv, symObjAddr: 0x320C, symBinAddr: 0x10000BAE0, symSize: 0x2C }
  - { offsetInCU: 0x39214, offset: 0x5D27C, size: 0x8, addend: 0x0, symName: __ZN5PointC1ERKNSt3__16vectorIdNS0_9allocatorIdEEEERKNS0_12basic_stringIcNS0_11char_traitsIcEENS2_IcEEEE, symObjAddr: 0x3238, symBinAddr: 0x10000BB0C, symSize: 0x3C }
  - { offsetInCU: 0x39258, offset: 0x5D2C0, size: 0x8, addend: 0x0, symName: __ZNSt3__16vectorIdNS_9allocatorIdEEED1B7v160006Ev, symObjAddr: 0x3274, symBinAddr: 0x10000BB48, symSize: 0x2C }
  - { offsetInCU: 0x3927F, offset: 0x5D2E7, size: 0x8, addend: 0x0, symName: __Z18deserializeDatasetRKN8nlohmann16json_abi_v3_11_310basic_jsonINSt3__13mapENS2_6vectorENS2_12basic_stringIcNS2_11char_traitsIcEENS2_9allocatorIcEEEEbxydS8_NS0_14adl_serializerENS4_IhNS8_IhEEEEvEE, symObjAddr: 0x32A0, symBinAddr: 0x10000BB74, symSize: 0x158 }
  - { offsetInCU: 0x39308, offset: 0x5D370, size: 0x8, addend: 0x0, symName: __ZN7DatasetC1Ev, symObjAddr: 0x33F8, symBinAddr: 0x10000BCCC, symSize: 0x2C }
  - { offsetInCU: 0x39330, offset: 0x5D398, size: 0x8, addend: 0x0, symName: __ZNSt3__16vectorI5PointNS_9allocatorIS1_EEE9push_backB7v160006EOS1_, symObjAddr: 0x3424, symBinAddr: 0x10000BCF8, symSize: 0x6C }
  - { offsetInCU: 0x39365, offset: 0x5D3CD, size: 0x8, addend: 0x0, symName: __ZN5PointD1Ev, symObjAddr: 0x3490, symBinAddr: 0x10000BD64, symSize: 0x2C }
  - { offsetInCU: 0x3938F, offset: 0x5D3F7, size: 0x8, addend: 0x0, symName: __ZN7DatasetD1Ev, symObjAddr: 0x34BC, symBinAddr: 0x10000BD90, symSize: 0x2C }
  - { offsetInCU: 0x393B8, offset: 0x5D420, size: 0x8, addend: 0x0, symName: __Z17deserializeKDNodeRKN8nlohmann16json_abi_v3_11_310basic_jsonINSt3__13mapENS2_6vectorENS2_12basic_stringIcNS2_11char_traitsIcEENS2_9allocatorIcEEEEbxydS8_NS0_14adl_serializerENS4_IhNS8_IhEEEEvEE, symObjAddr: 0x34E8, symBinAddr: 0x10000BDBC, symSize: 0x19C }
  - { offsetInCU: 0x3943D, offset: 0x5D4A5, size: 0x8, addend: 0x0, symName: __ZN7DatasetC1ERKS_, symObjAddr: 0x3684, symBinAddr: 0x10000BF58, symSize: 0x34 }
  - { offsetInCU: 0x39470, offset: 0x5D4D8, size: 0x8, addend: 0x0, symName: __ZN17kd_tree_leaf_nodeC1E7Dataset, symObjAddr: 0x36B8, symBinAddr: 0x10000BF8C, symSize: 0x34 }
  - { offsetInCU: 0x394A7, offset: 0x5D50F, size: 0x8, addend: 0x0, symName: __ZN18kd_tree_inter_nodeC1Eid, symObjAddr: 0x36EC, symBinAddr: 0x10000BFC0, symSize: 0x3C }
  - { offsetInCU: 0x394EA, offset: 0x5D552, size: 0x8, addend: 0x0, symName: __Z17deserializeKDTreeRKN8nlohmann16json_abi_v3_11_310basic_jsonINSt3__13mapENS2_6vectorENS2_12basic_stringIcNS2_11char_traitsIcEENS2_9allocatorIcEEEEbxydS8_NS0_14adl_serializerENS4_IhNS8_IhEEEEvEE, symObjAddr: 0x3728, symBinAddr: 0x10000BFFC, symSize: 0x108 }
  - { offsetInCU: 0x39541, offset: 0x5D5A9, size: 0x8, addend: 0x0, symName: __Z28read_string_vector_from_fileRKNSt3__112basic_stringIcNS_11char_traitsIcEENS_9allocatorIcEEEE, symObjAddr: 0x3830, symBinAddr: 0x10000C104, symSize: 0x264 }
  - { offsetInCU: 0x3959D, offset: 0x5D605, size: 0x8, addend: 0x0, symName: __ZNSt3__16vectorINS_12basic_stringIcNS_11char_traitsIcEENS_9allocatorIcEEEENS4_IS6_EEEC1B7v160006Ev, symObjAddr: 0x3A94, symBinAddr: 0x10000C368, symSize: 0x2C }
  - { offsetInCU: 0x395DE, offset: 0x5D646, size: 0x8, addend: 0x0, symName: __ZNKSt3__112basic_stringIcNS_11char_traitsIcEENS_9allocatorIcEEE5emptyB7v160006Ev, symObjAddr: 0x3D0C, symBinAddr: 0x10000C394, symSize: 0x30 }
  - { offsetInCU: 0x39602, offset: 0x5D66A, size: 0x8, addend: 0x0, symName: __ZNSt3__16vectorINS_12basic_stringIcNS_11char_traitsIcEENS_9allocatorIcEEEENS4_IS6_EEE9push_backB7v160006ERKS6_, symObjAddr: 0x3D3C, symBinAddr: 0x10000C3C4, symSize: 0x6C }
  - { offsetInCU: 0x39637, offset: 0x5D69F, size: 0x8, addend: 0x0, symName: __ZNSt3__114basic_ifstreamIcNS_11char_traitsIcEEE5closeEv, symObjAddr: 0x3DA8, symBinAddr: 0x10000C430, symSize: 0x58 }
  - { offsetInCU: 0x39662, offset: 0x5D6CA, size: 0x8, addend: 0x0, symName: __ZNSt3__16vectorINS_12basic_stringIcNS_11char_traitsIcEENS_9allocatorIcEEEENS4_IS6_EEED1B7v160006Ev, symObjAddr: 0x3E40, symBinAddr: 0x10000C488, symSize: 0x2C }
  - { offsetInCU: 0x39689, offset: 0x5D6F1, size: 0x8, addend: 0x0, symName: __Z11delete_treeP6Sector, symObjAddr: 0x3E6C, symBinAddr: 0x10000C4B4, symSize: 0x78 }
  - { offsetInCU: 0x396B2, offset: 0x5D71A, size: 0x8, addend: 0x0, symName: __Z14delete_kd_treeP10KDTreeNode, symObjAddr: 0x3EE4, symBinAddr: 0x10000C52C, symSize: 0x9C }
  - { offsetInCU: 0x396F8, offset: 0x5D760, size: 0x8, addend: 0x0, symName: __Z14deserializeBSTNSt3__112basic_stringIcNS_11char_traitsIcEENS_9allocatorIcEEEE, symObjAddr: 0x3F80, symBinAddr: 0x10000C5C8, symSize: 0x218 }
  - { offsetInCU: 0x39795, offset: 0x5D7FD, size: 0x8, addend: 0x0, symName: __ZNSt3__118basic_stringstreamIcNS_11char_traitsIcEENS_9allocatorIcEEEC1B7v160006Ev, symObjAddr: 0x4264, symBinAddr: 0x10000C7E0, symSize: 0x104 }
  - { offsetInCU: 0x397BD, offset: 0x5D825, size: 0x8, addend: 0x0, symName: __ZNKSt3__114basic_ifstreamIcNS_11char_traitsIcEEE5rdbufEv, symObjAddr: 0x4368, symBinAddr: 0x10000C8E4, symSize: 0x18 }
  - { offsetInCU: 0x397E4, offset: 0x5D84C, size: 0x8, addend: 0x0, symName: __ZNKSt3__118basic_stringstreamIcNS_11char_traitsIcEENS_9allocatorIcEEE3strB7v160006Ev, symObjAddr: 0x4380, symBinAddr: 0x10000C8FC, symSize: 0x30 }
  - { offsetInCU: 0x39808, offset: 0x5D870, size: 0x8, addend: 0x0, symName: __ZN8nlohmann16json_abi_v3_11_310basic_jsonINSt3__13mapENS2_6vectorENS2_12basic_stringIcNS2_11char_traitsIcEENS2_9allocatorIcEEEEbxydS8_NS0_14adl_serializerENS4_IhNS8_IhEEEEvE5parseIRSA_EESE_OT_NS2_8functionIFbiNS0_6detail13parse_event_tERSE_EEEbb, symObjAddr: 0x43B0, symBinAddr: 0x10000C92C, symSize: 0x1A4 }
  - { offsetInCU: 0x3987C, offset: 0x5D8E4, size: 0x8, addend: 0x0, symName: __Z16deserializeLLRBTNSt3__112basic_stringIcNS_11char_traitsIcEENS_9allocatorIcEEEE, symObjAddr: 0x4594, symBinAddr: 0x10000CAD0, symSize: 0x218 }
  - { offsetInCU: 0x398F5, offset: 0x5D95D, size: 0x8, addend: 0x0, symName: __Z16load_root_kdtreeNSt3__112basic_stringIcNS_11char_traitsIcEENS_9allocatorIcEEEE, symObjAddr: 0x47AC, symBinAddr: 0x10000CCE8, symSize: 0x218 }
  - { offsetInCU: 0x3996E, offset: 0x5D9D6, size: 0x8, addend: 0x0, symName: __Z13load_path_bstNSt3__112basic_stringIcNS_11char_traitsIcEENS_9allocatorIcEEEE, symObjAddr: 0x49C4, symBinAddr: 0x10000CF00, symSize: 0x278 }
  - { offsetInCU: 0x399E8, offset: 0x5DA50, size: 0x8, addend: 0x0, symName: __Z15load_path_llrbtNSt3__112basic_stringIcNS_11char_traitsIcEENS_9allocatorIcEEEE, symObjAddr: 0x4C3C, symBinAddr: 0x10000D178, symSize: 0x278 }
  - { offsetInCU: 0x39A62, offset: 0x5DACA, size: 0x8, addend: 0x0, symName: __Z11test_silentPFdvE, symObjAddr: 0x4EB4, symBinAddr: 0x10000D3F0, symSize: 0xDC }
  - { offsetInCU: 0x39AA8, offset: 0x5DB10, size: 0x8, addend: 0x0, symName: __ZNSt3__113basic_ostreamIcNS_11char_traitsIcEEElsB7v160006EPFRNS_8ios_baseES5_E, symObjAddr: 0x4FD0, symBinAddr: 0x10000D50C, symSize: 0x40 }
  - { offsetInCU: 0x39AD9, offset: 0x5DB41, size: 0x8, addend: 0x0, symName: __Z5splitNSt3__112basic_stringIcNS_11char_traitsIcEENS_9allocatorIcEEEES5_, symObjAddr: 0x506C, symBinAddr: 0x10000D5A8, symSize: 0x198 }
  - { offsetInCU: 0x39B5E, offset: 0x5DBC6, size: 0x8, addend: 0x0, symName: __ZNKSt3__112basic_stringIcNS_11char_traitsIcEENS_9allocatorIcEEE6lengthB7v160006Ev, symObjAddr: 0x5204, symBinAddr: 0x10000D740, symSize: 0x24 }
  - { offsetInCU: 0x39B82, offset: 0x5DBEA, size: 0x8, addend: 0x0, symName: __ZNKSt3__112basic_stringIcNS_11char_traitsIcEENS_9allocatorIcEEE4findB7v160006ERKS5_m, symObjAddr: 0x5228, symBinAddr: 0x10000D764, symSize: 0x78 }
  - { offsetInCU: 0x39BC6, offset: 0x5DC2E, size: 0x8, addend: 0x0, symName: __ZNKSt3__112basic_stringIcNS_11char_traitsIcEENS_9allocatorIcEEE6substrB7v160006Emm, symObjAddr: 0x52A0, symBinAddr: 0x10000D7DC, symSize: 0x68 }
  - { offsetInCU: 0x39C08, offset: 0x5DC70, size: 0x8, addend: 0x0, symName: __ZNSt3__16vectorINS_12basic_stringIcNS_11char_traitsIcEENS_9allocatorIcEEEENS4_IS6_EEE9push_backB7v160006EOS6_, symObjAddr: 0x533C, symBinAddr: 0x10000D844, symSize: 0x6C }
  - { offsetInCU: 0x39C3C, offset: 0x5DCA4, size: 0x8, addend: 0x0, symName: __Z10split_trimNSt3__112basic_stringIcNS_11char_traitsIcEENS_9allocatorIcEEEES5_, symObjAddr: 0x53A8, symBinAddr: 0x10000D8B0, symSize: 0x1E4 }
  - { offsetInCU: 0x39CC0, offset: 0x5DD28, size: 0x8, addend: 0x0, symName: __Z4trimRNSt3__112basic_stringIcNS_11char_traitsIcEENS_9allocatorIcEEEEPKc, symObjAddr: 0x558C, symBinAddr: 0x10000DA94, symSize: 0x34 }
  - { offsetInCU: 0x39CFA, offset: 0x5DD62, size: 0x8, addend: 0x0, symName: __Z13test_init_bstv, symObjAddr: 0x55F4, symBinAddr: 0x10000DAC8, symSize: 0x328 }
  - { offsetInCU: 0x39D88, offset: 0x5DDF0, size: 0x8, addend: 0x0, symName: __Z15test_delete_bstv, symObjAddr: 0x5F50, symBinAddr: 0x10000E424, symSize: 0x4A4 }
  - { offsetInCU: 0x39E3B, offset: 0x5DEA3, size: 0x8, addend: 0x0, symName: __ZNKSt3__16vectorINS_12basic_stringIcNS_11char_traitsIcEENS_9allocatorIcEEEENS4_IS6_EEE4sizeB7v160006Ev, symObjAddr: 0x63F4, symBinAddr: 0x10000E8C8, symSize: 0x28 }
  - { offsetInCU: 0x39E5F, offset: 0x5DEC7, size: 0x8, addend: 0x0, symName: __ZNSt3__16vectorINS_12basic_stringIcNS_11char_traitsIcEENS_9allocatorIcEEEENS4_IS6_EEE2atEm, symObjAddr: 0x641C, symBinAddr: 0x10000E8F0, symSize: 0x68 }
  - { offsetInCU: 0x39E93, offset: 0x5DEFB, size: 0x8, addend: 0x0, symName: __Z17grade_output_fileRKNSt3__112basic_stringIcNS_11char_traitsIcEENS_9allocatorIcEEEENS_8functionIFvvEEE, symObjAddr: 0x6484, symBinAddr: 0x10000E958, symSize: 0x50C }
  - { offsetInCU: 0x39F9F, offset: 0x5E007, size: 0x8, addend: 0x0, symName: __ZNSt3__119basic_ostringstreamIcNS_11char_traitsIcEENS_9allocatorIcEEEC1B7v160006Ev, symObjAddr: 0x69DC, symBinAddr: 0x10000EE64, symSize: 0xEC }
  - { offsetInCU: 0x39FC7, offset: 0x5E02F, size: 0x8, addend: 0x0, symName: __ZNSt3__19basic_iosIcNS_11char_traitsIcEEE5rdbufB7v160006EPNS_15basic_streambufIcS2_EE, symObjAddr: 0x6AC8, symBinAddr: 0x10000EF50, symSize: 0x44 }
  - { offsetInCU: 0x3A00C, offset: 0x5E074, size: 0x8, addend: 0x0, symName: __ZNKSt3__119basic_ostringstreamIcNS_11char_traitsIcEENS_9allocatorIcEEE5rdbufB7v160006Ev, symObjAddr: 0x6B0C, symBinAddr: 0x10000EF94, symSize: 0x18 }
  - { offsetInCU: 0x3A071, offset: 0x5E0D9, size: 0x8, addend: 0x0, symName: __ZNKSt3__18functionIFvvEEclEv, symObjAddr: 0x6B24, symBinAddr: 0x10000EFAC, symSize: 0x24 }
  - { offsetInCU: 0x3A097, offset: 0x5E0FF, size: 0x8, addend: 0x0, symName: __ZNKSt3__119basic_ostringstreamIcNS_11char_traitsIcEENS_9allocatorIcEEE3strB7v160006Ev, symObjAddr: 0x6B48, symBinAddr: 0x10000EFD0, symSize: 0x30 }
  - { offsetInCU: 0x3A0BB, offset: 0x5E123, size: 0x8, addend: 0x0, symName: __ZNSt3__16vectorINS_12basic_stringIcNS_11char_traitsIcEENS_9allocatorIcEEEENS4_IS6_EEEixB7v160006Em, symObjAddr: 0x6CC0, symBinAddr: 0x10000F000, symSize: 0x2C }
  - { offsetInCU: 0x3A0F6, offset: 0x5E15E, size: 0x8, addend: 0x0, symName: __ZNSt3__119basic_ostringstreamIcNS_11char_traitsIcEENS_9allocatorIcEEED1Ev, symObjAddr: 0x6CEC, symBinAddr: 0x10000F02C, symSize: 0x40 }
  - { offsetInCU: 0x3A121, offset: 0x5E189, size: 0x8, addend: 0x0, symName: __Z19test_bst_traversalsv, symObjAddr: 0x6D2C, symBinAddr: 0x10000F06C, symSize: 0x620 }
  - { offsetInCU: 0x3A188, offset: 0x5E1F0, size: 0x8, addend: 0x0, symName: __ZNSt3__18functionIFvvEEC1INS_6__bindIM14SpaceSectorBSTFvvEJPS5_EEEvEET_, symObjAddr: 0x7384, symBinAddr: 0x10000F6C4, symSize: 0x34 }
  - { offsetInCU: 0x3A1CD, offset: 0x5E235, size: 0x8, addend: 0x0, symName: __ZNSt3__18functionIFvvEED1Ev, symObjAddr: 0x73B8, symBinAddr: 0x10000F6F8, symSize: 0x2C }
  - { offsetInCU: 0x3A1F7, offset: 0x5E25F, size: 0x8, addend: 0x0, symName: __Z20test_bst_pathfindingv, symObjAddr: 0x73E4, symBinAddr: 0x10000F724, symSize: 0x610 }
  - { offsetInCU: 0x3A2F1, offset: 0x5E359, size: 0x8, addend: 0x0, symName: __ZN8nlohmann16json_abi_v3_11_310basic_jsonINSt3__13mapENS2_6vectorENS2_12basic_stringIcNS2_11char_traitsIcEENS2_9allocatorIcEEEEbxydS8_NS0_14adl_serializerENS4_IhNS8_IhEEEEvEC1ISA_SA_Li0EEEOT_, symObjAddr: 0x79F4, symBinAddr: 0x10000FD34, symSize: 0x34 }
  - { offsetInCU: 0x3A341, offset: 0x5E3A9, size: 0x8, addend: 0x0, symName: __ZNSt3__16vectorIP6SectorNS_9allocatorIS2_EEEixB7v160006Em, symObjAddr: 0x7A50, symBinAddr: 0x10000FD68, symSize: 0x24 }
  - { offsetInCU: 0x3A376, offset: 0x5E3DE, size: 0x8, addend: 0x0, symName: __Z15test_init_llrbtv, symObjAddr: 0x7A74, symBinAddr: 0x10000FD8C, symSize: 0x328 }
  - { offsetInCU: 0x3A404, offset: 0x5E46C, size: 0x8, addend: 0x0, symName: __Z22test_llrbt_pathfindingv, symObjAddr: 0x7D9C, symBinAddr: 0x1000100B4, symSize: 0x610 }
  - { offsetInCU: 0x3A4F8, offset: 0x5E560, size: 0x8, addend: 0x0, symName: __Z15run_sample_maini, symObjAddr: 0x83AC, symBinAddr: 0x1000106C4, symSize: 0x564 }
  - { offsetInCU: 0x3A5BF, offset: 0x5E627, size: 0x8, addend: 0x0, symName: '__ZNSt3__18functionIFvvEEC1IZ11test_outputvE3$_0vEET_', symObjAddr: 0x8BA4, symBinAddr: 0x100010EBC, symSize: 0x3C }
  - { offsetInCU: 0x3A602, offset: 0x5E66A, size: 0x8, addend: 0x0, symName: __Z25test_bonus_tree_constructv, symObjAddr: 0x8BE0, symBinAddr: 0x100010EF8, symSize: 0x444 }
  - { offsetInCU: 0x3A78C, offset: 0x5E7F4, size: 0x8, addend: 0x0, symName: __ZN14kNN_Dat_Parser5parseERKNSt3__112basic_stringIcNS0_11char_traitsIcEENS0_9allocatorIcEEEE, symObjAddr: 0x9024, symBinAddr: 0x10001133C, symSize: 0x550 }
  - { offsetInCU: 0x3A8FE, offset: 0x5E966, size: 0x8, addend: 0x0, symName: __ZN3KNND1Ev, symObjAddr: 0x9574, symBinAddr: 0x10001188C, symSize: 0x2C }
  - { offsetInCU: 0x3A927, offset: 0x5E98F, size: 0x8, addend: 0x0, symName: __Z18test_bonus_predictv, symObjAddr: 0x95A0, symBinAddr: 0x1000118B8, symSize: 0x534 }
  - { offsetInCU: 0x3AA8A, offset: 0x5EAF2, size: 0x8, addend: 0x0, symName: __ZNSt3__16vectorIdNS_9allocatorIdEEEC1B7v160006ESt16initializer_listIdE, symObjAddr: 0x9AD4, symBinAddr: 0x100011DEC, symSize: 0x3C }
  - { offsetInCU: 0x3AAC4, offset: 0x5EB2C, size: 0x8, addend: 0x0, symName: _main, symObjAddr: 0x9B10, symBinAddr: 0x100011E28, symSize: 0x1A4 }
  - { offsetInCU: 0x3AAFE, offset: 0x5EB66, size: 0x8, addend: 0x0, symName: __ZNKSt3__111__wrap_iterIPKdE4baseB7v160006Ev, symObjAddr: 0x9CFC, symBinAddr: 0x100012014, symSize: 0x18 }
  - { offsetInCU: 0x3AB22, offset: 0x5EB8A, size: 0x8, addend: 0x0, symName: __ZNKSt3__111__wrap_iterIPK5PointE4baseB7v160006Ev, symObjAddr: 0x9D5C, symBinAddr: 0x100012074, symSize: 0x18 }
  - { offsetInCU: 0x3AB46, offset: 0x5EBAE, size: 0x8, addend: 0x0, symName: __ZNKSt3__111__wrap_iterIPKP6SectorE4baseB7v160006Ev, symObjAddr: 0x9DBC, symBinAddr: 0x1000120D4, symSize: 0x18 }
  - { offsetInCU: 0x3AB6A, offset: 0x5EBD2, size: 0x8, addend: 0x0, symName: __ZN5PointC2ERKNSt3__16vectorIdNS0_9allocatorIdEEEERKNS0_12basic_stringIcNS0_11char_traitsIcEENS2_IcEEEE, symObjAddr: 0x9DD4, symBinAddr: 0x1000120EC, symSize: 0x70 }
  - { offsetInCU: 0x3ABAE, offset: 0x5EC16, size: 0x8, addend: 0x0, symName: __ZNSt3__16vectorIdNS_9allocatorIdEEEC1ERKS3_, symObjAddr: 0x9E44, symBinAddr: 0x10001215C, symSize: 0x34 }
  - { offsetInCU: 0x3ABE8, offset: 0x5EC50, size: 0x8, addend: 0x0, symName: __ZNSt3__16vectorIdNS_9allocatorIdEEEC2ERKS3_, symObjAddr: 0x9E78, symBinAddr: 0x100012190, symSize: 0x114 }
  - { offsetInCU: 0x3AC52, offset: 0x5ECBA, size: 0x8, addend: 0x0, symName: __ZNSt3__116allocator_traitsINS_9allocatorIdEEE37select_on_container_copy_constructionB7v160006IS2_vvEES2_RKS2_, symObjAddr: 0x9F8C, symBinAddr: 0x1000122A4, symSize: 0x10 }
  - { offsetInCU: 0x3AC80, offset: 0x5ECE8, size: 0x8, addend: 0x0, symName: __ZNKSt3__16vectorIdNS_9allocatorIdEEE7__allocB7v160006Ev, symObjAddr: 0x9F9C, symBinAddr: 0x1000122B4, symSize: 0x28 }
  - { offsetInCU: 0x3ACAE, offset: 0x5ED16, size: 0x8, addend: 0x0, symName: __ZNSt3__117__compressed_pairIPdNS_9allocatorIdEEEC1B7v160006IDnS3_EEOT_OT0_, symObjAddr: 0x9FC4, symBinAddr: 0x1000122DC, symSize: 0x3C }
  - { offsetInCU: 0x3AD04, offset: 0x5ED6C, size: 0x8, addend: 0x0, symName: __ZNSt3__16vectorIdNS_9allocatorIdEEE16__destroy_vectorC1ERS3_, symObjAddr: 0xA040, symBinAddr: 0x100012358, symSize: 0x34 }
  - { offsetInCU: 0x3AD3B, offset: 0x5EDA3, size: 0x8, addend: 0x0, symName: __ZNKSt3__16vectorIdNS_9allocatorIdEEE4sizeB7v160006Ev, symObjAddr: 0xA084, symBinAddr: 0x10001239C, symSize: 0x28 }
  - { offsetInCU: 0x3AD5F, offset: 0x5EDC7, size: 0x8, addend: 0x0, symName: __ZNSt3__16vectorIdNS_9allocatorIdEEE11__vallocateB7v160006Em, symObjAddr: 0xA0AC, symBinAddr: 0x1000123C4, symSize: 0xAC }
  - { offsetInCU: 0x3ADA2, offset: 0x5EE0A, size: 0x8, addend: 0x0, symName: __ZNSt3__16vectorIdNS_9allocatorIdEEE18__construct_at_endIPdLi0EEEvT_S6_m, symObjAddr: 0xA158, symBinAddr: 0x100012470, symSize: 0x8C }
  - { offsetInCU: 0x3AE15, offset: 0x5EE7D, size: 0x8, addend: 0x0, symName: __ZNSt3__128__exception_guard_exceptionsINS_6vectorIdNS_9allocatorIdEEE16__destroy_vectorEE10__completeB7v160006Ev, symObjAddr: 0xA1E4, symBinAddr: 0x1000124FC, symSize: 0x1C }
  - { offsetInCU: 0x3AE39, offset: 0x5EEA1, size: 0x8, addend: 0x0, symName: __ZNSt3__128__exception_guard_exceptionsINS_6vectorIdNS_9allocatorIdEEE16__destroy_vectorEED1B7v160006Ev, symObjAddr: 0xA200, symBinAddr: 0x100012518, symSize: 0x2C }
  - { offsetInCU: 0x3AE61, offset: 0x5EEC9, size: 0x8, addend: 0x0, symName: __ZNKSt3__117__compressed_pairIPdNS_9allocatorIdEEE6secondB7v160006Ev, symObjAddr: 0xA22C, symBinAddr: 0x100012544, symSize: 0x24 }
  - { offsetInCU: 0x3AE85, offset: 0x5EEED, size: 0x8, addend: 0x0, symName: __ZNKSt3__122__compressed_pair_elemINS_9allocatorIdEELi1ELb1EE5__getB7v160006Ev, symObjAddr: 0xA250, symBinAddr: 0x100012568, symSize: 0x14 }
  - { offsetInCU: 0x3AEA9, offset: 0x5EF11, size: 0x8, addend: 0x0, symName: __ZNSt3__117__compressed_pairIPdNS_9allocatorIdEEEC2B7v160006IDnS3_EEOT_OT0_, symObjAddr: 0xA264, symBinAddr: 0x10001257C, symSize: 0x44 }
  - { offsetInCU: 0x3AEFF, offset: 0x5EF67, size: 0x8, addend: 0x0, symName: __ZNSt3__122__compressed_pair_elemIPdLi0ELb0EEC2B7v160006IDnvEEOT_, symObjAddr: 0xA2A8, symBinAddr: 0x1000125C0, symSize: 0x1C }
  - { offsetInCU: 0x3AF3F, offset: 0x5EFA7, size: 0x8, addend: 0x0, symName: __ZNSt3__122__compressed_pair_elemINS_9allocatorIdEELi1ELb1EEC2B7v160006IS2_vEEOT_, symObjAddr: 0xA2C4, symBinAddr: 0x1000125DC, symSize: 0x18 }
  - { offsetInCU: 0x3AF7F, offset: 0x5EFE7, size: 0x8, addend: 0x0, symName: __ZNSt3__128__exception_guard_exceptionsINS_6vectorIdNS_9allocatorIdEEE16__destroy_vectorEEC1B7v160006ES5_, symObjAddr: 0xA2DC, symBinAddr: 0x1000125F4, symSize: 0x34 }
  - { offsetInCU: 0x3AFB5, offset: 0x5F01D, size: 0x8, addend: 0x0, symName: __ZNSt3__128__exception_guard_exceptionsINS_6vectorIdNS_9allocatorIdEEE16__destroy_vectorEEC2B7v160006ES5_, symObjAddr: 0xA310, symBinAddr: 0x100012628, symSize: 0x24 }
  - { offsetInCU: 0x3AFEB, offset: 0x5F053, size: 0x8, addend: 0x0, symName: __ZNSt3__16vectorIdNS_9allocatorIdEEE16__destroy_vectorC2ERS3_, symObjAddr: 0xA334, symBinAddr: 0x10001264C, symSize: 0x20 }
  - { offsetInCU: 0x3B022, offset: 0x5F08A, size: 0x8, addend: 0x0, symName: __ZNKSt3__16vectorIdNS_9allocatorIdEEE8max_sizeEv, symObjAddr: 0xA354, symBinAddr: 0x10001266C, symSize: 0x60 }
  - { offsetInCU: 0x3B048, offset: 0x5F0B0, size: 0x8, addend: 0x0, symName: __ZNKSt3__16vectorIdNS_9allocatorIdEEE20__throw_length_errorB7v160006Ev, symObjAddr: 0xA3B4, symBinAddr: 0x1000126CC, symSize: 0x1C }
  - { offsetInCU: 0x3B06C, offset: 0x5F0D4, size: 0x8, addend: 0x0, symName: __ZNSt3__16vectorIdNS_9allocatorIdEEE7__allocB7v160006Ev, symObjAddr: 0xA410, symBinAddr: 0x100012728, symSize: 0x28 }
  - { offsetInCU: 0x3B090, offset: 0x5F0F8, size: 0x8, addend: 0x0, symName: __ZNSt3__16vectorIdNS_9allocatorIdEEE9__end_capB7v160006Ev, symObjAddr: 0xA438, symBinAddr: 0x100012750, symSize: 0x28 }
  - { offsetInCU: 0x3B0B4, offset: 0x5F11C, size: 0x8, addend: 0x0, symName: __ZNKSt3__16vectorIdNS_9allocatorIdEEE14__annotate_newB7v160006Em, symObjAddr: 0xA460, symBinAddr: 0x100012778, symSize: 0xAC }
  - { offsetInCU: 0x3B0E7, offset: 0x5F14F, size: 0x8, addend: 0x0, symName: __ZNSt3__116allocator_traitsINS_9allocatorIdEEE8max_sizeB7v160006IS2_vEEmRKS2_, symObjAddr: 0xA538, symBinAddr: 0x100012850, symSize: 0x24 }
  - { offsetInCU: 0x3B114, offset: 0x5F17C, size: 0x8, addend: 0x0, symName: __ZNSt3__114numeric_limitsIlE3maxB7v160006Ev, symObjAddr: 0xA55C, symBinAddr: 0x100012874, symSize: 0x14 }
  - { offsetInCU: 0x3B128, offset: 0x5F190, size: 0x8, addend: 0x0, symName: __ZNKSt3__19allocatorIdE8max_sizeB7v160006Ev, symObjAddr: 0xA604, symBinAddr: 0x1000128DC, symSize: 0x14 }
  - { offsetInCU: 0x3B14C, offset: 0x5F1B4, size: 0x8, addend: 0x0, symName: __ZNSt3__123__libcpp_numeric_limitsIlLb1EE3maxB7v160006Ev, symObjAddr: 0xA618, symBinAddr: 0x1000128F0, symSize: 0x8 }
  - { offsetInCU: 0x3B160, offset: 0x5F1C8, size: 0x8, addend: 0x0, symName: __ZNSt12length_errorC1B7v160006EPKc, symObjAddr: 0xA684, symBinAddr: 0x10001295C, symSize: 0x34 }
  - { offsetInCU: 0x3B196, offset: 0x5F1FE, size: 0x8, addend: 0x0, symName: __ZNSt12length_errorC2B7v160006EPKc, symObjAddr: 0xA6B8, symBinAddr: 0x100012990, symSize: 0x4C }
  - { offsetInCU: 0x3B1CC, offset: 0x5F234, size: 0x8, addend: 0x0, symName: __ZNSt3__19allocatorIdE8allocateB7v160006Em, symObjAddr: 0xA704, symBinAddr: 0x1000129DC, symSize: 0x58 }
  - { offsetInCU: 0x3B1FE, offset: 0x5F266, size: 0x8, addend: 0x0, symName: __ZNSt3__117__compressed_pairIPdNS_9allocatorIdEEE6secondB7v160006Ev, symObjAddr: 0xA7DC, symBinAddr: 0x100012A34, symSize: 0x24 }
  - { offsetInCU: 0x3B222, offset: 0x5F28A, size: 0x8, addend: 0x0, symName: __ZNSt3__122__compressed_pair_elemINS_9allocatorIdEELi1ELb1EE5__getB7v160006Ev, symObjAddr: 0xA800, symBinAddr: 0x100012A58, symSize: 0x14 }
  - { offsetInCU: 0x3B246, offset: 0x5F2AE, size: 0x8, addend: 0x0, symName: __ZNSt3__117__compressed_pairIPdNS_9allocatorIdEEE5firstB7v160006Ev, symObjAddr: 0xA814, symBinAddr: 0x100012A6C, symSize: 0x24 }
  - { offsetInCU: 0x3B26A, offset: 0x5F2D2, size: 0x8, addend: 0x0, symName: __ZNSt3__122__compressed_pair_elemIPdLi0ELb0EE5__getB7v160006Ev, symObjAddr: 0xA838, symBinAddr: 0x100012A90, symSize: 0x14 }
  - { offsetInCU: 0x3B28E, offset: 0x5F2F6, size: 0x8, addend: 0x0, symName: __ZNKSt3__16vectorIdNS_9allocatorIdEEE31__annotate_contiguous_containerB7v160006EPKvS5_S5_S5_, symObjAddr: 0xA84C, symBinAddr: 0x100012AA4, symSize: 0x20 }
  - { offsetInCU: 0x3B2DE, offset: 0x5F346, size: 0x8, addend: 0x0, symName: __ZNKSt3__16vectorIdNS_9allocatorIdEEE4dataB7v160006Ev, symObjAddr: 0xA86C, symBinAddr: 0x100012AC4, symSize: 0x28 }
  - { offsetInCU: 0x3B302, offset: 0x5F36A, size: 0x8, addend: 0x0, symName: __ZNKSt3__16vectorIdNS_9allocatorIdEEE8capacityB7v160006Ev, symObjAddr: 0xA894, symBinAddr: 0x100012AEC, symSize: 0x40 }
  - { offsetInCU: 0x3B326, offset: 0x5F38E, size: 0x8, addend: 0x0, symName: __ZNKSt3__16vectorIdNS_9allocatorIdEEE9__end_capB7v160006Ev, symObjAddr: 0xA8E8, symBinAddr: 0x100012B40, symSize: 0x28 }
  - { offsetInCU: 0x3B34A, offset: 0x5F3B2, size: 0x8, addend: 0x0, symName: __ZNKSt3__117__compressed_pairIPdNS_9allocatorIdEEE5firstB7v160006Ev, symObjAddr: 0xA910, symBinAddr: 0x100012B68, symSize: 0x24 }
  - { offsetInCU: 0x3B36E, offset: 0x5F3D6, size: 0x8, addend: 0x0, symName: __ZNKSt3__122__compressed_pair_elemIPdLi0ELb0EE5__getB7v160006Ev, symObjAddr: 0xA934, symBinAddr: 0x100012B8C, symSize: 0x14 }
  - { offsetInCU: 0x3B3AB, offset: 0x5F413, size: 0x8, addend: 0x0, symName: __ZNSt3__16vectorIdNS_9allocatorIdEEE21_ConstructTransactionC1B7v160006ERS3_m, symObjAddr: 0xA948, symBinAddr: 0x100012BA0, symSize: 0x3C }
  - { offsetInCU: 0x3B3F1, offset: 0x5F459, size: 0x8, addend: 0x0, symName: __ZNSt3__16vectorIdNS_9allocatorIdEEE21_ConstructTransactionD1B7v160006Ev, symObjAddr: 0xAA78, symBinAddr: 0x100012CD0, symSize: 0x2C }
  - { offsetInCU: 0x3B419, offset: 0x5F481, size: 0x8, addend: 0x0, symName: __ZNSt3__16vectorIdNS_9allocatorIdEEE21_ConstructTransactionC2B7v160006ERS3_m, symObjAddr: 0xAAA4, symBinAddr: 0x100012CFC, symSize: 0x44 }
  - { offsetInCU: 0x3B45F, offset: 0x5F4C7, size: 0x8, addend: 0x0, symName: __ZNSt3__129_AllocatorDestroyRangeReverseINS_9allocatorIdEEPdEC1B7v160006ERS2_RS3_S6_, symObjAddr: 0xAB34, symBinAddr: 0x100012D8C, symSize: 0x44 }
  - { offsetInCU: 0x3B4B4, offset: 0x5F51C, size: 0x8, addend: 0x0, symName: __ZNSt3__116allocator_traitsINS_9allocatorIdEEE9constructB7v160006IdJRdEvEEvRS2_PT_DpOT0_, symObjAddr: 0xAB78, symBinAddr: 0x100012DD0, symSize: 0x34 }
  - { offsetInCU: 0x3B50A, offset: 0x5F572, size: 0x8, addend: 0x0, symName: __ZNSt3__128__exception_guard_exceptionsINS_29_AllocatorDestroyRangeReverseINS_9allocatorIdEEPdEEE10__completeB7v160006Ev, symObjAddr: 0xABAC, symBinAddr: 0x100012E04, symSize: 0x1C }
  - { offsetInCU: 0x3B52E, offset: 0x5F596, size: 0x8, addend: 0x0, symName: __ZNSt3__128__exception_guard_exceptionsINS_29_AllocatorDestroyRangeReverseINS_9allocatorIdEEPdEEED1B7v160006Ev, symObjAddr: 0xABC8, symBinAddr: 0x100012E20, symSize: 0x2C }
  - { offsetInCU: 0x3B556, offset: 0x5F5BE, size: 0x8, addend: 0x0, symName: __ZNSt3__128__exception_guard_exceptionsINS_29_AllocatorDestroyRangeReverseINS_9allocatorIdEEPdEEEC1B7v160006ES5_, symObjAddr: 0xABF4, symBinAddr: 0x100012E4C, symSize: 0x34 }
  - { offsetInCU: 0x3B58D, offset: 0x5F5F5, size: 0x8, addend: 0x0, symName: __ZNSt3__128__exception_guard_exceptionsINS_29_AllocatorDestroyRangeReverseINS_9allocatorIdEEPdEEEC2B7v160006ES5_, symObjAddr: 0xAC28, symBinAddr: 0x100012E80, symSize: 0x30 }
  - { offsetInCU: 0x3B5C4, offset: 0x5F62C, size: 0x8, addend: 0x0, symName: __ZNSt3__129_AllocatorDestroyRangeReverseINS_9allocatorIdEEPdEC2B7v160006ERS2_RS3_S6_, symObjAddr: 0xAC58, symBinAddr: 0x100012EB0, symSize: 0x38 }
  - { offsetInCU: 0x3B619, offset: 0x5F681, size: 0x8, addend: 0x0, symName: __ZNSt3__19allocatorIdE9constructB7v160006IdJRdEEEvPT_DpOT0_, symObjAddr: 0xAC90, symBinAddr: 0x100012EE8, symSize: 0x28 }
  - { offsetInCU: 0x3B66D, offset: 0x5F6D5, size: 0x8, addend: 0x0, symName: __ZNSt3__128__exception_guard_exceptionsINS_29_AllocatorDestroyRangeReverseINS_9allocatorIdEEPdEEED2B7v160006Ev, symObjAddr: 0xACB8, symBinAddr: 0x100012F10, symSize: 0x50 }
  - { offsetInCU: 0x3B695, offset: 0x5F6FD, size: 0x8, addend: 0x0, symName: __ZNKSt3__129_AllocatorDestroyRangeReverseINS_9allocatorIdEEPdEclB7v160006Ev, symObjAddr: 0xAD08, symBinAddr: 0x100012F60, symSize: 0x68 }
  - { offsetInCU: 0x3B6B9, offset: 0x5F721, size: 0x8, addend: 0x0, symName: __ZNSt3__116reverse_iteratorIPdEC1B7v160006ES1_, symObjAddr: 0xADE0, symBinAddr: 0x100013038, symSize: 0x34 }
  - { offsetInCU: 0x3B6EF, offset: 0x5F757, size: 0x8, addend: 0x0, symName: __ZNSt3__116allocator_traitsINS_9allocatorIdEEE7destroyB7v160006IdvEEvRS2_PT_, symObjAddr: 0xAE5C, symBinAddr: 0x1000130B4, symSize: 0x2C }
  - { offsetInCU: 0x3B72B, offset: 0x5F793, size: 0x8, addend: 0x0, symName: __ZNSt3__116reverse_iteratorIPdEppB7v160006Ev, symObjAddr: 0xAEAC, symBinAddr: 0x100013104, symSize: 0x20 }
  - { offsetInCU: 0x3B74F, offset: 0x5F7B7, size: 0x8, addend: 0x0, symName: __ZNKSt3__116reverse_iteratorIPdE4baseB7v160006Ev, symObjAddr: 0xAECC, symBinAddr: 0x100013124, symSize: 0x18 }
  - { offsetInCU: 0x3B773, offset: 0x5F7DB, size: 0x8, addend: 0x0, symName: __ZNSt3__19allocatorIdE7destroyB7v160006EPd, symObjAddr: 0xAEE4, symBinAddr: 0x10001313C, symSize: 0x14 }
  - { offsetInCU: 0x3B7AA, offset: 0x5F812, size: 0x8, addend: 0x0, symName: __ZNSt3__119__to_address_helperINS_16reverse_iteratorIPdEEvE6__callB7v160006ERKS3_, symObjAddr: 0xAEF8, symBinAddr: 0x100013150, symSize: 0x38 }
  - { offsetInCU: 0x3B7CC, offset: 0x5F834, size: 0x8, addend: 0x0, symName: __ZNKSt3__116reverse_iteratorIPdEptB7v160006Ev, symObjAddr: 0xAF30, symBinAddr: 0x100013188, symSize: 0x24 }
  - { offsetInCU: 0x3B7F0, offset: 0x5F858, size: 0x8, addend: 0x0, symName: __ZNKSt3__116reverse_iteratorIPdEdeB7v160006Ev, symObjAddr: 0xAF54, symBinAddr: 0x1000131AC, symSize: 0x28 }
  - { offsetInCU: 0x3B822, offset: 0x5F88A, size: 0x8, addend: 0x0, symName: __ZNSt3__116reverse_iteratorIPdEC2B7v160006ES1_, symObjAddr: 0xAF7C, symBinAddr: 0x1000131D4, symSize: 0x28 }
  - { offsetInCU: 0x3B858, offset: 0x5F8C0, size: 0x8, addend: 0x0, symName: __ZNSt3__16vectorIdNS_9allocatorIdEEE21_ConstructTransactionD2B7v160006Ev, symObjAddr: 0xAFA4, symBinAddr: 0x1000131FC, symSize: 0x20 }
  - { offsetInCU: 0x3B880, offset: 0x5F8E8, size: 0x8, addend: 0x0, symName: __ZNSt3__128__exception_guard_exceptionsINS_6vectorIdNS_9allocatorIdEEE16__destroy_vectorEED2B7v160006Ev, symObjAddr: 0xAFC4, symBinAddr: 0x10001321C, symSize: 0x50 }
  - { offsetInCU: 0x3B8A8, offset: 0x5F910, size: 0x8, addend: 0x0, symName: __ZNSt3__16vectorIdNS_9allocatorIdEEE16__destroy_vectorclB7v160006Ev, symObjAddr: 0xB014, symBinAddr: 0x10001326C, symSize: 0x9C }
  - { offsetInCU: 0x3B8CC, offset: 0x5F934, size: 0x8, addend: 0x0, symName: __ZNKSt3__16vectorIdNS_9allocatorIdEEE17__annotate_deleteB7v160006Ev, symObjAddr: 0xB0B0, symBinAddr: 0x100013308, symSize: 0xB8 }
  - { offsetInCU: 0x3B8F0, offset: 0x5F958, size: 0x8, addend: 0x0, symName: __ZNSt3__16vectorIdNS_9allocatorIdEEE7__clearB7v160006Ev, symObjAddr: 0xB178, symBinAddr: 0x1000133D0, symSize: 0x28 }
  - { offsetInCU: 0x3B914, offset: 0x5F97C, size: 0x8, addend: 0x0, symName: __ZNSt3__116allocator_traitsINS_9allocatorIdEEE10deallocateB7v160006ERS2_Pdm, symObjAddr: 0xB1A0, symBinAddr: 0x1000133F8, symSize: 0x34 }
  - { offsetInCU: 0x3B955, offset: 0x5F9BD, size: 0x8, addend: 0x0, symName: __ZNSt3__16vectorIdNS_9allocatorIdEEE22__base_destruct_at_endB7v160006EPd, symObjAddr: 0xB1D4, symBinAddr: 0x10001342C, symSize: 0x8C }
  - { offsetInCU: 0x3B998, offset: 0x5FA00, size: 0x8, addend: 0x0, symName: __ZNSt3__19allocatorIdE10deallocateB7v160006EPdm, symObjAddr: 0xB260, symBinAddr: 0x1000134B8, symSize: 0x40 }
  - { offsetInCU: 0x3B9D8, offset: 0x5FA40, size: 0x8, addend: 0x0, symName: __ZN7DatasetC2Ev, symObjAddr: 0xB31C, symBinAddr: 0x1000134F8, symSize: 0x38 }
  - { offsetInCU: 0x3BA00, offset: 0x5FA68, size: 0x8, addend: 0x0, symName: __ZNSt3__16vectorI5PointNS_9allocatorIS1_EEEC1B7v160006Ev, symObjAddr: 0xB354, symBinAddr: 0x100013530, symSize: 0x2C }
  - { offsetInCU: 0x3BA28, offset: 0x5FA90, size: 0x8, addend: 0x0, symName: __ZNSt3__16vectorI5PointNS_9allocatorIS1_EEEC2B7v160006Ev, symObjAddr: 0xB380, symBinAddr: 0x10001355C, symSize: 0x58 }
  - { offsetInCU: 0x3BA55, offset: 0x5FABD, size: 0x8, addend: 0x0, symName: __ZNSt3__117__compressed_pairIP5PointNS_9allocatorIS1_EEEC1B7v160006IDnNS_18__default_init_tagEEEOT_OT0_, symObjAddr: 0xB3D8, symBinAddr: 0x1000135B4, symSize: 0x3C }
  - { offsetInCU: 0x3BAAB, offset: 0x5FB13, size: 0x8, addend: 0x0, symName: __ZNSt3__117__compressed_pairIP5PointNS_9allocatorIS1_EEEC2B7v160006IDnNS_18__default_init_tagEEEOT_OT0_, symObjAddr: 0xB424, symBinAddr: 0x100013600, symSize: 0x40 }
  - { offsetInCU: 0x3BB01, offset: 0x5FB69, size: 0x8, addend: 0x0, symName: __ZNSt3__122__compressed_pair_elemIP5PointLi0ELb0EEC2B7v160006IDnvEEOT_, symObjAddr: 0xB464, symBinAddr: 0x100013640, symSize: 0x1C }
  - { offsetInCU: 0x3BB41, offset: 0x5FBA9, size: 0x8, addend: 0x0, symName: __ZNSt3__122__compressed_pair_elemINS_9allocatorI5PointEELi1ELb1EEC2B7v160006ENS_18__default_init_tagE, symObjAddr: 0xB480, symBinAddr: 0x10001365C, symSize: 0x2C }
  - { offsetInCU: 0x3BB73, offset: 0x5FBDB, size: 0x8, addend: 0x0, symName: __ZNSt3__19allocatorI5PointEC2B7v160006Ev, symObjAddr: 0xB4AC, symBinAddr: 0x100013688, symSize: 0x2C }
  - { offsetInCU: 0x3BB9B, offset: 0x5FC03, size: 0x8, addend: 0x0, symName: __ZNSt3__116__non_trivial_ifILb1ENS_9allocatorI5PointEEEC2B7v160006Ev, symObjAddr: 0xB4D8, symBinAddr: 0x1000136B4, symSize: 0x14 }
  - { offsetInCU: 0x3BBC3, offset: 0x5FC2B, size: 0x8, addend: 0x0, symName: __ZN5PointD2Ev, symObjAddr: 0xB4EC, symBinAddr: 0x1000136C8, symSize: 0x38 }
  - { offsetInCU: 0x3BBED, offset: 0x5FC55, size: 0x8, addend: 0x0, symName: __ZN7DatasetD2Ev, symObjAddr: 0xB524, symBinAddr: 0x100013700, symSize: 0x38 }
  - { offsetInCU: 0x3BC17, offset: 0x5FC7F, size: 0x8, addend: 0x0, symName: __ZNSt3__16vectorI5PointNS_9allocatorIS1_EEED1B7v160006Ev, symObjAddr: 0xB55C, symBinAddr: 0x100013738, symSize: 0x2C }
  - { offsetInCU: 0x3BC3F, offset: 0x5FCA7, size: 0x8, addend: 0x0, symName: __ZNSt3__16vectorI5PointNS_9allocatorIS1_EEED2B7v160006Ev, symObjAddr: 0xB588, symBinAddr: 0x100013764, symSize: 0x44 }
  - { offsetInCU: 0x3BC67, offset: 0x5FCCF, size: 0x8, addend: 0x0, symName: __ZNSt3__16vectorI5PointNS_9allocatorIS1_EEE16__destroy_vectorC1ERS4_, symObjAddr: 0xB5CC, symBinAddr: 0x1000137A8, symSize: 0x34 }
  - { offsetInCU: 0x3BC9E, offset: 0x5FD06, size: 0x8, addend: 0x0, symName: __ZNSt3__16vectorI5PointNS_9allocatorIS1_EEE16__destroy_vectorclB7v160006Ev, symObjAddr: 0xB600, symBinAddr: 0x1000137DC, symSize: 0x9C }
  - { offsetInCU: 0x3BCC2, offset: 0x5FD2A, size: 0x8, addend: 0x0, symName: __ZNSt3__16vectorI5PointNS_9allocatorIS1_EEE16__destroy_vectorC2ERS4_, symObjAddr: 0xB69C, symBinAddr: 0x100013878, symSize: 0x20 }
  - { offsetInCU: 0x3BCF9, offset: 0x5FD61, size: 0x8, addend: 0x0, symName: __ZNKSt3__16vectorI5PointNS_9allocatorIS1_EEE17__annotate_deleteB7v160006Ev, symObjAddr: 0xB6BC, symBinAddr: 0x100013898, symSize: 0xD4 }
  - { offsetInCU: 0x3BD1D, offset: 0x5FD85, size: 0x8, addend: 0x0, symName: __ZNSt3__16vectorI5PointNS_9allocatorIS1_EEE7__clearB7v160006Ev, symObjAddr: 0xB7A0, symBinAddr: 0x10001397C, symSize: 0x28 }
  - { offsetInCU: 0x3BD41, offset: 0x5FDA9, size: 0x8, addend: 0x0, symName: __ZNSt3__116allocator_traitsINS_9allocatorI5PointEEE10deallocateB7v160006ERS3_PS2_m, symObjAddr: 0xB7C8, symBinAddr: 0x1000139A4, symSize: 0x34 }
  - { offsetInCU: 0x3BD82, offset: 0x5FDEA, size: 0x8, addend: 0x0, symName: __ZNSt3__16vectorI5PointNS_9allocatorIS1_EEE7__allocB7v160006Ev, symObjAddr: 0xB7FC, symBinAddr: 0x1000139D8, symSize: 0x28 }
  - { offsetInCU: 0x3BDA6, offset: 0x5FE0E, size: 0x8, addend: 0x0, symName: __ZNKSt3__16vectorI5PointNS_9allocatorIS1_EEE8capacityB7v160006Ev, symObjAddr: 0xB824, symBinAddr: 0x100013A00, symSize: 0x40 }
  - { offsetInCU: 0x3BDCA, offset: 0x5FE32, size: 0x8, addend: 0x0, symName: __ZNKSt3__16vectorI5PointNS_9allocatorIS1_EEE31__annotate_contiguous_containerB7v160006EPKvS6_S6_S6_, symObjAddr: 0xB864, symBinAddr: 0x100013A40, symSize: 0x20 }
  - { offsetInCU: 0x3BE1A, offset: 0x5FE82, size: 0x8, addend: 0x0, symName: __ZNKSt3__16vectorI5PointNS_9allocatorIS1_EEE4dataB7v160006Ev, symObjAddr: 0xB884, symBinAddr: 0x100013A60, symSize: 0x28 }
  - { offsetInCU: 0x3BE3E, offset: 0x5FEA6, size: 0x8, addend: 0x0, symName: __ZNKSt3__16vectorI5PointNS_9allocatorIS1_EEE4sizeB7v160006Ev, symObjAddr: 0xB8AC, symBinAddr: 0x100013A88, symSize: 0x28 }
  - { offsetInCU: 0x3BE62, offset: 0x5FECA, size: 0x8, addend: 0x0, symName: __ZNSt3__16vectorI5PointNS_9allocatorIS1_EEE22__base_destruct_at_endB7v160006EPS1_, symObjAddr: 0xB8E8, symBinAddr: 0x100013AC4, symSize: 0x8C }
  - { offsetInCU: 0x3BEA5, offset: 0x5FF0D, size: 0x8, addend: 0x0, symName: __ZNSt3__116allocator_traitsINS_9allocatorI5PointEEE7destroyB7v160006IS2_vEEvRS3_PT_, symObjAddr: 0xB974, symBinAddr: 0x100013B50, symSize: 0x2C }
  - { offsetInCU: 0x3BEE1, offset: 0x5FF49, size: 0x8, addend: 0x0, symName: __ZNSt3__19allocatorI5PointE7destroyB7v160006EPS1_, symObjAddr: 0xB9A0, symBinAddr: 0x100013B7C, symSize: 0x28 }
  - { offsetInCU: 0x3BF13, offset: 0x5FF7B, size: 0x8, addend: 0x0, symName: __ZNSt3__19allocatorI5PointE10deallocateB7v160006EPS1_m, symObjAddr: 0xB9C8, symBinAddr: 0x100013BA4, symSize: 0x44 }
  - { offsetInCU: 0x3BF53, offset: 0x5FFBB, size: 0x8, addend: 0x0, symName: __ZNSt3__117__compressed_pairIP5PointNS_9allocatorIS1_EEE6secondB7v160006Ev, symObjAddr: 0xBA0C, symBinAddr: 0x100013BE8, symSize: 0x24 }
  - { offsetInCU: 0x3BF77, offset: 0x5FFDF, size: 0x8, addend: 0x0, symName: __ZNSt3__122__compressed_pair_elemINS_9allocatorI5PointEELi1ELb1EE5__getB7v160006Ev, symObjAddr: 0xBA30, symBinAddr: 0x100013C0C, symSize: 0x14 }
  - { offsetInCU: 0x3BF9B, offset: 0x60003, size: 0x8, addend: 0x0, symName: __ZNKSt3__16vectorI5PointNS_9allocatorIS1_EEE9__end_capB7v160006Ev, symObjAddr: 0xBA44, symBinAddr: 0x100013C20, symSize: 0x28 }
  - { offsetInCU: 0x3BFBF, offset: 0x60027, size: 0x8, addend: 0x0, symName: __ZNKSt3__117__compressed_pairIP5PointNS_9allocatorIS1_EEE5firstB7v160006Ev, symObjAddr: 0xBA6C, symBinAddr: 0x100013C48, symSize: 0x24 }
  - { offsetInCU: 0x3BFE3, offset: 0x6004B, size: 0x8, addend: 0x0, symName: __ZNKSt3__122__compressed_pair_elemIP5PointLi0ELb0EE5__getB7v160006Ev, symObjAddr: 0xBA90, symBinAddr: 0x100013C6C, symSize: 0x14 }
  - { offsetInCU: 0x3C007, offset: 0x6006F, size: 0x8, addend: 0x0, symName: __ZN7DatasetC2ERKS_, symObjAddr: 0xBAA4, symBinAddr: 0x100013C80, symSize: 0x7C }
  - { offsetInCU: 0x3C03A, offset: 0x600A2, size: 0x8, addend: 0x0, symName: __ZNSt3__16vectorI5PointNS_9allocatorIS1_EEEC1ERKS4_, symObjAddr: 0xBB20, symBinAddr: 0x100013CFC, symSize: 0x34 }
  - { offsetInCU: 0x3C074, offset: 0x600DC, size: 0x8, addend: 0x0, symName: __ZNSt3__16vectorINS_12basic_stringIcNS_11char_traitsIcEENS_9allocatorIcEEEENS4_IS6_EEEC1ERKS8_, symObjAddr: 0xBB54, symBinAddr: 0x100013D30, symSize: 0x34 }
  - { offsetInCU: 0x3C0AE, offset: 0x60116, size: 0x8, addend: 0x0, symName: __ZNSt3__16vectorI5PointNS_9allocatorIS1_EEEC2ERKS4_, symObjAddr: 0xBB88, symBinAddr: 0x100013D64, symSize: 0x110 }
  - { offsetInCU: 0x3C118, offset: 0x60180, size: 0x8, addend: 0x0, symName: __ZNSt3__116allocator_traitsINS_9allocatorI5PointEEE37select_on_container_copy_constructionB7v160006IS3_vvEES3_RKS3_, symObjAddr: 0xBC98, symBinAddr: 0x100013E74, symSize: 0x10 }
  - { offsetInCU: 0x3C146, offset: 0x601AE, size: 0x8, addend: 0x0, symName: __ZNKSt3__16vectorI5PointNS_9allocatorIS1_EEE7__allocB7v160006Ev, symObjAddr: 0xBCA8, symBinAddr: 0x100013E84, symSize: 0x28 }
  - { offsetInCU: 0x3C16F, offset: 0x601D7, size: 0x8, addend: 0x0, symName: __ZNSt3__117__compressed_pairIP5PointNS_9allocatorIS1_EEEC1B7v160006IDnS4_EEOT_OT0_, symObjAddr: 0xBCD0, symBinAddr: 0x100013EAC, symSize: 0x3C }
  - { offsetInCU: 0x3C1C5, offset: 0x6022D, size: 0x8, addend: 0x0, symName: __ZNSt3__16vectorI5PointNS_9allocatorIS1_EEE11__vallocateB7v160006Em, symObjAddr: 0xBD4C, symBinAddr: 0x100013F28, symSize: 0xB4 }
  - { offsetInCU: 0x3C208, offset: 0x60270, size: 0x8, addend: 0x0, symName: __ZNSt3__16vectorI5PointNS_9allocatorIS1_EEE18__construct_at_endIPS1_Li0EEEvT_S7_m, symObjAddr: 0xBE00, symBinAddr: 0x100013FDC, symSize: 0x8C }
  - { offsetInCU: 0x3C27B, offset: 0x602E3, size: 0x8, addend: 0x0, symName: __ZNSt3__128__exception_guard_exceptionsINS_6vectorI5PointNS_9allocatorIS2_EEE16__destroy_vectorEE10__completeB7v160006Ev, symObjAddr: 0xBE8C, symBinAddr: 0x100014068, symSize: 0x1C }
  - { offsetInCU: 0x3C29F, offset: 0x60307, size: 0x8, addend: 0x0, symName: __ZNSt3__128__exception_guard_exceptionsINS_6vectorI5PointNS_9allocatorIS2_EEE16__destroy_vectorEED1B7v160006Ev, symObjAddr: 0xBEA8, symBinAddr: 0x100014084, symSize: 0x2C }
  - { offsetInCU: 0x3C2C7, offset: 0x6032F, size: 0x8, addend: 0x0, symName: __ZNKSt3__117__compressed_pairIP5PointNS_9allocatorIS1_EEE6secondB7v160006Ev, symObjAddr: 0xBED4, symBinAddr: 0x1000140B0, symSize: 0x24 }
  - { offsetInCU: 0x3C2EB, offset: 0x60353, size: 0x8, addend: 0x0, symName: __ZNKSt3__122__compressed_pair_elemINS_9allocatorI5PointEELi1ELb1EE5__getB7v160006Ev, symObjAddr: 0xBEF8, symBinAddr: 0x1000140D4, symSize: 0x14 }
  - { offsetInCU: 0x3C30F, offset: 0x60377, size: 0x8, addend: 0x0, symName: __ZNSt3__117__compressed_pairIP5PointNS_9allocatorIS1_EEEC2B7v160006IDnS4_EEOT_OT0_, symObjAddr: 0xBF0C, symBinAddr: 0x1000140E8, symSize: 0x44 }
  - { offsetInCU: 0x3C365, offset: 0x603CD, size: 0x8, addend: 0x0, symName: __ZNSt3__122__compressed_pair_elemINS_9allocatorI5PointEELi1ELb1EEC2B7v160006IS3_vEEOT_, symObjAddr: 0xBF50, symBinAddr: 0x10001412C, symSize: 0x18 }
  - { offsetInCU: 0x3C3A5, offset: 0x6040D, size: 0x8, addend: 0x0, symName: __ZNSt3__128__exception_guard_exceptionsINS_6vectorI5PointNS_9allocatorIS2_EEE16__destroy_vectorEEC1B7v160006ES6_, symObjAddr: 0xBF68, symBinAddr: 0x100014144, symSize: 0x34 }
  - { offsetInCU: 0x3C3DB, offset: 0x60443, size: 0x8, addend: 0x0, symName: __ZNSt3__128__exception_guard_exceptionsINS_6vectorI5PointNS_9allocatorIS2_EEE16__destroy_vectorEEC2B7v160006ES6_, symObjAddr: 0xBF9C, symBinAddr: 0x100014178, symSize: 0x24 }
  - { offsetInCU: 0x3C411, offset: 0x60479, size: 0x8, addend: 0x0, symName: __ZNKSt3__16vectorI5PointNS_9allocatorIS1_EEE8max_sizeEv, symObjAddr: 0xBFC0, symBinAddr: 0x10001419C, symSize: 0x60 }
  - { offsetInCU: 0x3C437, offset: 0x6049F, size: 0x8, addend: 0x0, symName: __ZNKSt3__16vectorI5PointNS_9allocatorIS1_EEE20__throw_length_errorB7v160006Ev, symObjAddr: 0xC020, symBinAddr: 0x1000141FC, symSize: 0x1C }
  - { offsetInCU: 0x3C45B, offset: 0x604C3, size: 0x8, addend: 0x0, symName: __ZNSt3__16vectorI5PointNS_9allocatorIS1_EEE9__end_capB7v160006Ev, symObjAddr: 0xC07C, symBinAddr: 0x100014258, symSize: 0x28 }
  - { offsetInCU: 0x3C47F, offset: 0x604E7, size: 0x8, addend: 0x0, symName: __ZNKSt3__16vectorI5PointNS_9allocatorIS1_EEE14__annotate_newB7v160006Em, symObjAddr: 0xC0A4, symBinAddr: 0x100014280, symSize: 0xC8 }
  - { offsetInCU: 0x3C4B2, offset: 0x6051A, size: 0x8, addend: 0x0, symName: __ZNSt3__116allocator_traitsINS_9allocatorI5PointEEE8max_sizeB7v160006IS3_vEEmRKS3_, symObjAddr: 0xC16C, symBinAddr: 0x100014348, symSize: 0x24 }
  - { offsetInCU: 0x3C4DF, offset: 0x60547, size: 0x8, addend: 0x0, symName: __ZNKSt3__19allocatorI5PointE8max_sizeB7v160006Ev, symObjAddr: 0xC190, symBinAddr: 0x10001436C, symSize: 0x18 }
  - { offsetInCU: 0x3C503, offset: 0x6056B, size: 0x8, addend: 0x0, symName: __ZNSt3__19allocatorI5PointE8allocateB7v160006Em, symObjAddr: 0xC1A8, symBinAddr: 0x100014384, symSize: 0x5C }
  - { offsetInCU: 0x3C535, offset: 0x6059D, size: 0x8, addend: 0x0, symName: __ZNSt3__117__compressed_pairIP5PointNS_9allocatorIS1_EEE5firstB7v160006Ev, symObjAddr: 0xC204, symBinAddr: 0x1000143E0, symSize: 0x24 }
  - { offsetInCU: 0x3C559, offset: 0x605C1, size: 0x8, addend: 0x0, symName: __ZNSt3__122__compressed_pair_elemIP5PointLi0ELb0EE5__getB7v160006Ev, symObjAddr: 0xC228, symBinAddr: 0x100014404, symSize: 0x14 }
  - { offsetInCU: 0x3C596, offset: 0x605FE, size: 0x8, addend: 0x0, symName: __ZNSt3__16vectorI5PointNS_9allocatorIS1_EEE21_ConstructTransactionC1B7v160006ERS4_m, symObjAddr: 0xC23C, symBinAddr: 0x100014418, symSize: 0x3C }
  - { offsetInCU: 0x3C5DC, offset: 0x60644, size: 0x8, addend: 0x0, symName: __ZNSt3__16vectorI5PointNS_9allocatorIS1_EEE21_ConstructTransactionD1B7v160006Ev, symObjAddr: 0xC36C, symBinAddr: 0x100014548, symSize: 0x2C }
  - { offsetInCU: 0x3C604, offset: 0x6066C, size: 0x8, addend: 0x0, symName: __ZNSt3__16vectorI5PointNS_9allocatorIS1_EEE21_ConstructTransactionC2B7v160006ERS4_m, symObjAddr: 0xC398, symBinAddr: 0x100014574, symSize: 0x4C }
  - { offsetInCU: 0x3C64A, offset: 0x606B2, size: 0x8, addend: 0x0, symName: __ZNSt3__129_AllocatorDestroyRangeReverseINS_9allocatorI5PointEEPS2_EC1B7v160006ERS3_RS4_S7_, symObjAddr: 0xC430, symBinAddr: 0x10001460C, symSize: 0x44 }
  - { offsetInCU: 0x3C69F, offset: 0x60707, size: 0x8, addend: 0x0, symName: __ZNSt3__116allocator_traitsINS_9allocatorI5PointEEE9constructB7v160006IS2_JRS2_EvEEvRS3_PT_DpOT0_, symObjAddr: 0xC474, symBinAddr: 0x100014650, symSize: 0x34 }
  - { offsetInCU: 0x3C6F5, offset: 0x6075D, size: 0x8, addend: 0x0, symName: __ZNSt3__128__exception_guard_exceptionsINS_29_AllocatorDestroyRangeReverseINS_9allocatorI5PointEEPS3_EEE10__completeB7v160006Ev, symObjAddr: 0xC4A8, symBinAddr: 0x100014684, symSize: 0x1C }
  - { offsetInCU: 0x3C719, offset: 0x60781, size: 0x8, addend: 0x0, symName: __ZNSt3__128__exception_guard_exceptionsINS_29_AllocatorDestroyRangeReverseINS_9allocatorI5PointEEPS3_EEED1B7v160006Ev, symObjAddr: 0xC4C4, symBinAddr: 0x1000146A0, symSize: 0x2C }
  - { offsetInCU: 0x3C741, offset: 0x607A9, size: 0x8, addend: 0x0, symName: __ZNSt3__128__exception_guard_exceptionsINS_29_AllocatorDestroyRangeReverseINS_9allocatorI5PointEEPS3_EEEC1B7v160006ES6_, symObjAddr: 0xC4F0, symBinAddr: 0x1000146CC, symSize: 0x34 }
  - { offsetInCU: 0x3C778, offset: 0x607E0, size: 0x8, addend: 0x0, symName: __ZNSt3__128__exception_guard_exceptionsINS_29_AllocatorDestroyRangeReverseINS_9allocatorI5PointEEPS3_EEEC2B7v160006ES6_, symObjAddr: 0xC524, symBinAddr: 0x100014700, symSize: 0x30 }
  - { offsetInCU: 0x3C7AF, offset: 0x60817, size: 0x8, addend: 0x0, symName: __ZNSt3__129_AllocatorDestroyRangeReverseINS_9allocatorI5PointEEPS2_EC2B7v160006ERS3_RS4_S7_, symObjAddr: 0xC554, symBinAddr: 0x100014730, symSize: 0x38 }
  - { offsetInCU: 0x3C804, offset: 0x6086C, size: 0x8, addend: 0x0, symName: __ZNSt3__19allocatorI5PointE9constructB7v160006IS1_JRS1_EEEvPT_DpOT0_, symObjAddr: 0xC58C, symBinAddr: 0x100014768, symSize: 0x30 }
  - { offsetInCU: 0x3C858, offset: 0x608C0, size: 0x8, addend: 0x0, symName: __ZN5PointC1ERKS_, symObjAddr: 0xC5BC, symBinAddr: 0x100014798, symSize: 0x34 }
  - { offsetInCU: 0x3C88B, offset: 0x608F3, size: 0x8, addend: 0x0, symName: __ZN5PointC2ERKS_, symObjAddr: 0xC5F0, symBinAddr: 0x1000147CC, symSize: 0x70 }
  - { offsetInCU: 0x3C8BE, offset: 0x60926, size: 0x8, addend: 0x0, symName: __ZNSt3__128__exception_guard_exceptionsINS_29_AllocatorDestroyRangeReverseINS_9allocatorI5PointEEPS3_EEED2B7v160006Ev, symObjAddr: 0xC660, symBinAddr: 0x10001483C, symSize: 0x50 }
  - { offsetInCU: 0x3C8E6, offset: 0x6094E, size: 0x8, addend: 0x0, symName: __ZNKSt3__129_AllocatorDestroyRangeReverseINS_9allocatorI5PointEEPS2_EclB7v160006Ev, symObjAddr: 0xC6B0, symBinAddr: 0x10001488C, symSize: 0x68 }
  - { offsetInCU: 0x3C90A, offset: 0x60972, size: 0x8, addend: 0x0, symName: __ZNSt3__116reverse_iteratorIP5PointEC1B7v160006ES2_, symObjAddr: 0xC788, symBinAddr: 0x100014964, symSize: 0x34 }
  - { offsetInCU: 0x3C940, offset: 0x609A8, size: 0x8, addend: 0x0, symName: __ZNSt3__116reverse_iteratorIP5PointEppB7v160006Ev, symObjAddr: 0xC828, symBinAddr: 0x100014A04, symSize: 0x20 }
  - { offsetInCU: 0x3C964, offset: 0x609CC, size: 0x8, addend: 0x0, symName: __ZNKSt3__116reverse_iteratorIP5PointE4baseB7v160006Ev, symObjAddr: 0xC848, symBinAddr: 0x100014A24, symSize: 0x18 }
  - { offsetInCU: 0x3C98D, offset: 0x609F5, size: 0x8, addend: 0x0, symName: __ZNSt3__119__to_address_helperINS_16reverse_iteratorIP5PointEEvE6__callB7v160006ERKS4_, symObjAddr: 0xC860, symBinAddr: 0x100014A3C, symSize: 0x38 }
  - { offsetInCU: 0x3C9AF, offset: 0x60A17, size: 0x8, addend: 0x0, symName: __ZNKSt3__116reverse_iteratorIP5PointEptB7v160006Ev, symObjAddr: 0xC898, symBinAddr: 0x100014A74, symSize: 0x24 }
  - { offsetInCU: 0x3C9D3, offset: 0x60A3B, size: 0x8, addend: 0x0, symName: __ZNKSt3__116reverse_iteratorIP5PointEdeB7v160006Ev, symObjAddr: 0xC8BC, symBinAddr: 0x100014A98, symSize: 0x28 }
  - { offsetInCU: 0x3CA05, offset: 0x60A6D, size: 0x8, addend: 0x0, symName: __ZNSt3__116reverse_iteratorIP5PointEC2B7v160006ES2_, symObjAddr: 0xC8E4, symBinAddr: 0x100014AC0, symSize: 0x28 }
  - { offsetInCU: 0x3CA3B, offset: 0x60AA3, size: 0x8, addend: 0x0, symName: __ZNSt3__16vectorI5PointNS_9allocatorIS1_EEE21_ConstructTransactionD2B7v160006Ev, symObjAddr: 0xC90C, symBinAddr: 0x100014AE8, symSize: 0x20 }
  - { offsetInCU: 0x3CA63, offset: 0x60ACB, size: 0x8, addend: 0x0, symName: __ZNSt3__128__exception_guard_exceptionsINS_6vectorI5PointNS_9allocatorIS2_EEE16__destroy_vectorEED2B7v160006Ev, symObjAddr: 0xC92C, symBinAddr: 0x100014B08, symSize: 0x50 }
  - { offsetInCU: 0x3CA8B, offset: 0x60AF3, size: 0x8, addend: 0x0, symName: __ZNSt3__16vectorINS_12basic_stringIcNS_11char_traitsIcEENS_9allocatorIcEEEENS4_IS6_EEEC2ERKS8_, symObjAddr: 0xC97C, symBinAddr: 0x100014B58, symSize: 0x114 }
  - { offsetInCU: 0x3CAF5, offset: 0x60B5D, size: 0x8, addend: 0x0, symName: __ZNSt3__116allocator_traitsINS_9allocatorINS_12basic_stringIcNS_11char_traitsIcEENS1_IcEEEEEEE37select_on_container_copy_constructionB7v160006IS7_vvEES7_RKS7_, symObjAddr: 0xCA90, symBinAddr: 0x100014C6C, symSize: 0x10 }
  - { offsetInCU: 0x3CB23, offset: 0x60B8B, size: 0x8, addend: 0x0, symName: __ZNKSt3__16vectorINS_12basic_stringIcNS_11char_traitsIcEENS_9allocatorIcEEEENS4_IS6_EEE7__allocB7v160006Ev, symObjAddr: 0xCAA0, symBinAddr: 0x100014C7C, symSize: 0x28 }
  - { offsetInCU: 0x3CB4C, offset: 0x60BB4, size: 0x8, addend: 0x0, symName: __ZNSt3__117__compressed_pairIPNS_12basic_stringIcNS_11char_traitsIcEENS_9allocatorIcEEEENS4_IS6_EEEC1B7v160006IDnS8_EEOT_OT0_, symObjAddr: 0xCAC8, symBinAddr: 0x100014CA4, symSize: 0x3C }
  - { offsetInCU: 0x3CBA2, offset: 0x60C0A, size: 0x8, addend: 0x0, symName: __ZNSt3__16vectorINS_12basic_stringIcNS_11char_traitsIcEENS_9allocatorIcEEEENS4_IS6_EEE16__destroy_vectorC1ERS8_, symObjAddr: 0xCB44, symBinAddr: 0x100014D20, symSize: 0x34 }
  - { offsetInCU: 0x3CBD9, offset: 0x60C41, size: 0x8, addend: 0x0, symName: __ZNSt3__16vectorINS_12basic_stringIcNS_11char_traitsIcEENS_9allocatorIcEEEENS4_IS6_EEE11__vallocateB7v160006Em, symObjAddr: 0xCB88, symBinAddr: 0x100014D64, symSize: 0xB4 }
  - { offsetInCU: 0x3CC1C, offset: 0x60C84, size: 0x8, addend: 0x0, symName: __ZNSt3__16vectorINS_12basic_stringIcNS_11char_traitsIcEENS_9allocatorIcEEEENS4_IS6_EEE18__construct_at_endIPS6_Li0EEEvT_SB_m, symObjAddr: 0xCC3C, symBinAddr: 0x100014E18, symSize: 0x8C }
  - { offsetInCU: 0x3CC8F, offset: 0x60CF7, size: 0x8, addend: 0x0, symName: __ZNSt3__128__exception_guard_exceptionsINS_6vectorINS_12basic_stringIcNS_11char_traitsIcEENS_9allocatorIcEEEENS5_IS7_EEE16__destroy_vectorEE10__completeB7v160006Ev, symObjAddr: 0xCCC8, symBinAddr: 0x100014EA4, symSize: 0x1C }
  - { offsetInCU: 0x3CCB3, offset: 0x60D1B, size: 0x8, addend: 0x0, symName: __ZNSt3__128__exception_guard_exceptionsINS_6vectorINS_12basic_stringIcNS_11char_traitsIcEENS_9allocatorIcEEEENS5_IS7_EEE16__destroy_vectorEED1B7v160006Ev, symObjAddr: 0xCCE4, symBinAddr: 0x100014EC0, symSize: 0x2C }
  - { offsetInCU: 0x3CCDB, offset: 0x60D43, size: 0x8, addend: 0x0, symName: __ZNKSt3__117__compressed_pairIPNS_12basic_stringIcNS_11char_traitsIcEENS_9allocatorIcEEEENS4_IS6_EEE6secondB7v160006Ev, symObjAddr: 0xCD10, symBinAddr: 0x100014EEC, symSize: 0x24 }
  - { offsetInCU: 0x3CCFF, offset: 0x60D67, size: 0x8, addend: 0x0, symName: __ZNKSt3__122__compressed_pair_elemINS_9allocatorINS_12basic_stringIcNS_11char_traitsIcEENS1_IcEEEEEELi1ELb1EE5__getB7v160006Ev, symObjAddr: 0xCD34, symBinAddr: 0x100014F10, symSize: 0x14 }
  - { offsetInCU: 0x3CD23, offset: 0x60D8B, size: 0x8, addend: 0x0, symName: __ZNSt3__117__compressed_pairIPNS_12basic_stringIcNS_11char_traitsIcEENS_9allocatorIcEEEENS4_IS6_EEEC2B7v160006IDnS8_EEOT_OT0_, symObjAddr: 0xCD48, symBinAddr: 0x100014F24, symSize: 0x44 }
  - { offsetInCU: 0x3CD79, offset: 0x60DE1, size: 0x8, addend: 0x0, symName: __ZNSt3__122__compressed_pair_elemIPNS_12basic_stringIcNS_11char_traitsIcEENS_9allocatorIcEEEELi0ELb0EEC2B7v160006IDnvEEOT_, symObjAddr: 0xCD8C, symBinAddr: 0x100014F68, symSize: 0x1C }
  - { offsetInCU: 0x3CDB9, offset: 0x60E21, size: 0x8, addend: 0x0, symName: __ZNSt3__122__compressed_pair_elemINS_9allocatorINS_12basic_stringIcNS_11char_traitsIcEENS1_IcEEEEEELi1ELb1EEC2B7v160006IS7_vEEOT_, symObjAddr: 0xCDA8, symBinAddr: 0x100014F84, symSize: 0x18 }
  - { offsetInCU: 0x3CDF9, offset: 0x60E61, size: 0x8, addend: 0x0, symName: __ZNSt3__128__exception_guard_exceptionsINS_6vectorINS_12basic_stringIcNS_11char_traitsIcEENS_9allocatorIcEEEENS5_IS7_EEE16__destroy_vectorEEC1B7v160006ESA_, symObjAddr: 0xCDC0, symBinAddr: 0x100014F9C, symSize: 0x34 }
  - { offsetInCU: 0x3CE2F, offset: 0x60E97, size: 0x8, addend: 0x0, symName: __ZNSt3__128__exception_guard_exceptionsINS_6vectorINS_12basic_stringIcNS_11char_traitsIcEENS_9allocatorIcEEEENS5_IS7_EEE16__destroy_vectorEEC2B7v160006ESA_, symObjAddr: 0xCDF4, symBinAddr: 0x100014FD0, symSize: 0x24 }
  - { offsetInCU: 0x3CE65, offset: 0x60ECD, size: 0x8, addend: 0x0, symName: __ZNSt3__16vectorINS_12basic_stringIcNS_11char_traitsIcEENS_9allocatorIcEEEENS4_IS6_EEE16__destroy_vectorC2ERS8_, symObjAddr: 0xCE18, symBinAddr: 0x100014FF4, symSize: 0x20 }
  - { offsetInCU: 0x3CE9C, offset: 0x60F04, size: 0x8, addend: 0x0, symName: __ZNKSt3__16vectorINS_12basic_stringIcNS_11char_traitsIcEENS_9allocatorIcEEEENS4_IS6_EEE8max_sizeEv, symObjAddr: 0xCE38, symBinAddr: 0x100015014, symSize: 0x60 }
  - { offsetInCU: 0x3CEC2, offset: 0x60F2A, size: 0x8, addend: 0x0, symName: __ZNKSt3__16vectorINS_12basic_stringIcNS_11char_traitsIcEENS_9allocatorIcEEEENS4_IS6_EEE20__throw_length_errorB7v160006Ev, symObjAddr: 0xCE98, symBinAddr: 0x100015074, symSize: 0x1C }
  - { offsetInCU: 0x3CEE6, offset: 0x60F4E, size: 0x8, addend: 0x0, symName: __ZNSt3__16vectorINS_12basic_stringIcNS_11char_traitsIcEENS_9allocatorIcEEEENS4_IS6_EEE7__allocB7v160006Ev, symObjAddr: 0xCEF4, symBinAddr: 0x1000150D0, symSize: 0x28 }
  - { offsetInCU: 0x3CF0A, offset: 0x60F72, size: 0x8, addend: 0x0, symName: __ZNSt3__16vectorINS_12basic_stringIcNS_11char_traitsIcEENS_9allocatorIcEEEENS4_IS6_EEE9__end_capB7v160006Ev, symObjAddr: 0xCF1C, symBinAddr: 0x1000150F8, symSize: 0x28 }
  - { offsetInCU: 0x3CF2E, offset: 0x60F96, size: 0x8, addend: 0x0, symName: __ZNKSt3__16vectorINS_12basic_stringIcNS_11char_traitsIcEENS_9allocatorIcEEEENS4_IS6_EEE14__annotate_newB7v160006Em, symObjAddr: 0xCF44, symBinAddr: 0x100015120, symSize: 0xC8 }
  - { offsetInCU: 0x3CF61, offset: 0x60FC9, size: 0x8, addend: 0x0, symName: __ZNSt3__116allocator_traitsINS_9allocatorINS_12basic_stringIcNS_11char_traitsIcEENS1_IcEEEEEEE8max_sizeB7v160006IS7_vEEmRKS7_, symObjAddr: 0xD00C, symBinAddr: 0x1000151E8, symSize: 0x24 }
  - { offsetInCU: 0x3CF8E, offset: 0x60FF6, size: 0x8, addend: 0x0, symName: __ZNKSt3__19allocatorINS_12basic_stringIcNS_11char_traitsIcEENS0_IcEEEEE8max_sizeB7v160006Ev, symObjAddr: 0xD030, symBinAddr: 0x10001520C, symSize: 0x18 }
  - { offsetInCU: 0x3CFB2, offset: 0x6101A, size: 0x8, addend: 0x0, symName: __ZNSt3__19allocatorINS_12basic_stringIcNS_11char_traitsIcEENS0_IcEEEEE8allocateB7v160006Em, symObjAddr: 0xD048, symBinAddr: 0x100015224, symSize: 0x5C }
  - { offsetInCU: 0x3CFE4, offset: 0x6104C, size: 0x8, addend: 0x0, symName: __ZNSt3__117__compressed_pairIPNS_12basic_stringIcNS_11char_traitsIcEENS_9allocatorIcEEEENS4_IS6_EEE6secondB7v160006Ev, symObjAddr: 0xD0A4, symBinAddr: 0x100015280, symSize: 0x24 }
  - { offsetInCU: 0x3D008, offset: 0x61070, size: 0x8, addend: 0x0, symName: __ZNSt3__122__compressed_pair_elemINS_9allocatorINS_12basic_stringIcNS_11char_traitsIcEENS1_IcEEEEEELi1ELb1EE5__getB7v160006Ev, symObjAddr: 0xD0C8, symBinAddr: 0x1000152A4, symSize: 0x14 }
  - { offsetInCU: 0x3D02C, offset: 0x61094, size: 0x8, addend: 0x0, symName: __ZNSt3__117__compressed_pairIPNS_12basic_stringIcNS_11char_traitsIcEENS_9allocatorIcEEEENS4_IS6_EEE5firstB7v160006Ev, symObjAddr: 0xD0DC, symBinAddr: 0x1000152B8, symSize: 0x24 }
  - { offsetInCU: 0x3D050, offset: 0x610B8, size: 0x8, addend: 0x0, symName: __ZNSt3__122__compressed_pair_elemIPNS_12basic_stringIcNS_11char_traitsIcEENS_9allocatorIcEEEELi0ELb0EE5__getB7v160006Ev, symObjAddr: 0xD100, symBinAddr: 0x1000152DC, symSize: 0x14 }
  - { offsetInCU: 0x3D074, offset: 0x610DC, size: 0x8, addend: 0x0, symName: __ZNKSt3__16vectorINS_12basic_stringIcNS_11char_traitsIcEENS_9allocatorIcEEEENS4_IS6_EEE31__annotate_contiguous_containerB7v160006EPKvSA_SA_SA_, symObjAddr: 0xD114, symBinAddr: 0x1000152F0, symSize: 0x20 }
  - { offsetInCU: 0x3D0C4, offset: 0x6112C, size: 0x8, addend: 0x0, symName: __ZNKSt3__16vectorINS_12basic_stringIcNS_11char_traitsIcEENS_9allocatorIcEEEENS4_IS6_EEE4dataB7v160006Ev, symObjAddr: 0xD134, symBinAddr: 0x100015310, symSize: 0x28 }
  - { offsetInCU: 0x3D0E8, offset: 0x61150, size: 0x8, addend: 0x0, symName: __ZNKSt3__16vectorINS_12basic_stringIcNS_11char_traitsIcEENS_9allocatorIcEEEENS4_IS6_EEE8capacityB7v160006Ev, symObjAddr: 0xD15C, symBinAddr: 0x100015338, symSize: 0x40 }
  - { offsetInCU: 0x3D10C, offset: 0x61174, size: 0x8, addend: 0x0, symName: __ZNKSt3__16vectorINS_12basic_stringIcNS_11char_traitsIcEENS_9allocatorIcEEEENS4_IS6_EEE9__end_capB7v160006Ev, symObjAddr: 0xD1B0, symBinAddr: 0x10001538C, symSize: 0x28 }
  - { offsetInCU: 0x3D130, offset: 0x61198, size: 0x8, addend: 0x0, symName: __ZNKSt3__117__compressed_pairIPNS_12basic_stringIcNS_11char_traitsIcEENS_9allocatorIcEEEENS4_IS6_EEE5firstB7v160006Ev, symObjAddr: 0xD1D8, symBinAddr: 0x1000153B4, symSize: 0x24 }
  - { offsetInCU: 0x3D154, offset: 0x611BC, size: 0x8, addend: 0x0, symName: __ZNKSt3__122__compressed_pair_elemIPNS_12basic_stringIcNS_11char_traitsIcEENS_9allocatorIcEEEELi0ELb0EE5__getB7v160006Ev, symObjAddr: 0xD1FC, symBinAddr: 0x1000153D8, symSize: 0x14 }
  - { offsetInCU: 0x3D191, offset: 0x611F9, size: 0x8, addend: 0x0, symName: __ZNSt3__16vectorINS_12basic_stringIcNS_11char_traitsIcEENS_9allocatorIcEEEENS4_IS6_EEE21_ConstructTransactionC1B7v160006ERS8_m, symObjAddr: 0xD210, symBinAddr: 0x1000153EC, symSize: 0x3C }
  - { offsetInCU: 0x3D1D7, offset: 0x6123F, size: 0x8, addend: 0x0, symName: __ZNSt3__16vectorINS_12basic_stringIcNS_11char_traitsIcEENS_9allocatorIcEEEENS4_IS6_EEE21_ConstructTransactionD1B7v160006Ev, symObjAddr: 0xD340, symBinAddr: 0x10001551C, symSize: 0x2C }
  - { offsetInCU: 0x3D1FF, offset: 0x61267, size: 0x8, addend: 0x0, symName: __ZNSt3__16vectorINS_12basic_stringIcNS_11char_traitsIcEENS_9allocatorIcEEEENS4_IS6_EEE21_ConstructTransactionC2B7v160006ERS8_m, symObjAddr: 0xD36C, symBinAddr: 0x100015548, symSize: 0x4C }
  - { offsetInCU: 0x3D245, offset: 0x612AD, size: 0x8, addend: 0x0, symName: __ZNSt3__129_AllocatorDestroyRangeReverseINS_9allocatorINS_12basic_stringIcNS_11char_traitsIcEENS1_IcEEEEEEPS6_EC1B7v160006ERS7_RS8_SB_, symObjAddr: 0xD404, symBinAddr: 0x1000155E0, symSize: 0x44 }
  - { offsetInCU: 0x3D29A, offset: 0x61302, size: 0x8, addend: 0x0, symName: __ZNSt3__116allocator_traitsINS_9allocatorINS_12basic_stringIcNS_11char_traitsIcEENS1_IcEEEEEEE9constructB7v160006IS6_JRS6_EvEEvRS7_PT_DpOT0_, symObjAddr: 0xD448, symBinAddr: 0x100015624, symSize: 0x34 }
  - { offsetInCU: 0x3D2F0, offset: 0x61358, size: 0x8, addend: 0x0, symName: __ZNSt3__128__exception_guard_exceptionsINS_29_AllocatorDestroyRangeReverseINS_9allocatorINS_12basic_stringIcNS_11char_traitsIcEENS2_IcEEEEEEPS7_EEE10__completeB7v160006Ev, symObjAddr: 0xD47C, symBinAddr: 0x100015658, symSize: 0x1C }
  - { offsetInCU: 0x3D314, offset: 0x6137C, size: 0x8, addend: 0x0, symName: __ZNSt3__128__exception_guard_exceptionsINS_29_AllocatorDestroyRangeReverseINS_9allocatorINS_12basic_stringIcNS_11char_traitsIcEENS2_IcEEEEEEPS7_EEED1B7v160006Ev, symObjAddr: 0xD498, symBinAddr: 0x100015674, symSize: 0x2C }
  - { offsetInCU: 0x3D33C, offset: 0x613A4, size: 0x8, addend: 0x0, symName: __ZNSt3__128__exception_guard_exceptionsINS_29_AllocatorDestroyRangeReverseINS_9allocatorINS_12basic_stringIcNS_11char_traitsIcEENS2_IcEEEEEEPS7_EEEC1B7v160006ESA_, symObjAddr: 0xD4C4, symBinAddr: 0x1000156A0, symSize: 0x34 }
  - { offsetInCU: 0x3D373, offset: 0x613DB, size: 0x8, addend: 0x0, symName: __ZNSt3__128__exception_guard_exceptionsINS_29_AllocatorDestroyRangeReverseINS_9allocatorINS_12basic_stringIcNS_11char_traitsIcEENS2_IcEEEEEEPS7_EEEC2B7v160006ESA_, symObjAddr: 0xD4F8, symBinAddr: 0x1000156D4, symSize: 0x30 }
  - { offsetInCU: 0x3D3AA, offset: 0x61412, size: 0x8, addend: 0x0, symName: __ZNSt3__129_AllocatorDestroyRangeReverseINS_9allocatorINS_12basic_stringIcNS_11char_traitsIcEENS1_IcEEEEEEPS6_EC2B7v160006ERS7_RS8_SB_, symObjAddr: 0xD528, symBinAddr: 0x100015704, symSize: 0x38 }
  - { offsetInCU: 0x3D3FF, offset: 0x61467, size: 0x8, addend: 0x0, symName: __ZNSt3__19allocatorINS_12basic_stringIcNS_11char_traitsIcEENS0_IcEEEEE9constructB7v160006IS5_JRS5_EEEvPT_DpOT0_, symObjAddr: 0xD560, symBinAddr: 0x10001573C, symSize: 0x30 }
  - { offsetInCU: 0x3D453, offset: 0x614BB, size: 0x8, addend: 0x0, symName: __ZNSt3__128__exception_guard_exceptionsINS_29_AllocatorDestroyRangeReverseINS_9allocatorINS_12basic_stringIcNS_11char_traitsIcEENS2_IcEEEEEEPS7_EEED2B7v160006Ev, symObjAddr: 0xD590, symBinAddr: 0x10001576C, symSize: 0x50 }
  - { offsetInCU: 0x3D47B, offset: 0x614E3, size: 0x8, addend: 0x0, symName: __ZNKSt3__129_AllocatorDestroyRangeReverseINS_9allocatorINS_12basic_stringIcNS_11char_traitsIcEENS1_IcEEEEEEPS6_EclB7v160006Ev, symObjAddr: 0xD5E0, symBinAddr: 0x1000157BC, symSize: 0x68 }
  - { offsetInCU: 0x3D49F, offset: 0x61507, size: 0x8, addend: 0x0, symName: __ZNSt3__116reverse_iteratorIPNS_12basic_stringIcNS_11char_traitsIcEENS_9allocatorIcEEEEEC1B7v160006ES7_, symObjAddr: 0xD6B8, symBinAddr: 0x100015894, symSize: 0x34 }
  - { offsetInCU: 0x3D4D5, offset: 0x6153D, size: 0x8, addend: 0x0, symName: __ZNSt3__116allocator_traitsINS_9allocatorINS_12basic_stringIcNS_11char_traitsIcEENS1_IcEEEEEEE7destroyB7v160006IS6_vEEvRS7_PT_, symObjAddr: 0xD734, symBinAddr: 0x100015910, symSize: 0x2C }
  - { offsetInCU: 0x3D511, offset: 0x61579, size: 0x8, addend: 0x0, symName: __ZNSt3__116reverse_iteratorIPNS_12basic_stringIcNS_11char_traitsIcEENS_9allocatorIcEEEEEppB7v160006Ev, symObjAddr: 0xD784, symBinAddr: 0x100015960, symSize: 0x20 }
  - { offsetInCU: 0x3D535, offset: 0x6159D, size: 0x8, addend: 0x0, symName: __ZNKSt3__116reverse_iteratorIPNS_12basic_stringIcNS_11char_traitsIcEENS_9allocatorIcEEEEE4baseB7v160006Ev, symObjAddr: 0xD7A4, symBinAddr: 0x100015980, symSize: 0x18 }
  - { offsetInCU: 0x3D559, offset: 0x615C1, size: 0x8, addend: 0x0, symName: __ZNSt3__19allocatorINS_12basic_stringIcNS_11char_traitsIcEENS0_IcEEEEE7destroyB7v160006EPS5_, symObjAddr: 0xD7BC, symBinAddr: 0x100015998, symSize: 0x28 }
  - { offsetInCU: 0x3D590, offset: 0x615F8, size: 0x8, addend: 0x0, symName: __ZNSt3__119__to_address_helperINS_16reverse_iteratorIPNS_12basic_stringIcNS_11char_traitsIcEENS_9allocatorIcEEEEEEvE6__callB7v160006ERKS9_, symObjAddr: 0xD7E4, symBinAddr: 0x1000159C0, symSize: 0x38 }
  - { offsetInCU: 0x3D5B2, offset: 0x6161A, size: 0x8, addend: 0x0, symName: __ZNKSt3__116reverse_iteratorIPNS_12basic_stringIcNS_11char_traitsIcEENS_9allocatorIcEEEEEptB7v160006Ev, symObjAddr: 0xD81C, symBinAddr: 0x1000159F8, symSize: 0x24 }
  - { offsetInCU: 0x3D5D6, offset: 0x6163E, size: 0x8, addend: 0x0, symName: __ZNKSt3__116reverse_iteratorIPNS_12basic_stringIcNS_11char_traitsIcEENS_9allocatorIcEEEEEdeB7v160006Ev, symObjAddr: 0xD840, symBinAddr: 0x100015A1C, symSize: 0x28 }
  - { offsetInCU: 0x3D608, offset: 0x61670, size: 0x8, addend: 0x0, symName: __ZNSt3__116reverse_iteratorIPNS_12basic_stringIcNS_11char_traitsIcEENS_9allocatorIcEEEEEC2B7v160006ES7_, symObjAddr: 0xD868, symBinAddr: 0x100015A44, symSize: 0x28 }
  - { offsetInCU: 0x3D63E, offset: 0x616A6, size: 0x8, addend: 0x0, symName: __ZNSt3__16vectorINS_12basic_stringIcNS_11char_traitsIcEENS_9allocatorIcEEEENS4_IS6_EEE21_ConstructTransactionD2B7v160006Ev, symObjAddr: 0xD890, symBinAddr: 0x100015A6C, symSize: 0x20 }
  - { offsetInCU: 0x3D666, offset: 0x616CE, size: 0x8, addend: 0x0, symName: __ZNSt3__128__exception_guard_exceptionsINS_6vectorINS_12basic_stringIcNS_11char_traitsIcEENS_9allocatorIcEEEENS5_IS7_EEE16__destroy_vectorEED2B7v160006Ev, symObjAddr: 0xD8B0, symBinAddr: 0x100015A8C, symSize: 0x50 }
  - { offsetInCU: 0x3D68E, offset: 0x616F6, size: 0x8, addend: 0x0, symName: __ZNSt3__16vectorINS_12basic_stringIcNS_11char_traitsIcEENS_9allocatorIcEEEENS4_IS6_EEE16__destroy_vectorclB7v160006Ev, symObjAddr: 0xD900, symBinAddr: 0x100015ADC, symSize: 0x9C }
  - { offsetInCU: 0x3D6B2, offset: 0x6171A, size: 0x8, addend: 0x0, symName: __ZNKSt3__16vectorINS_12basic_stringIcNS_11char_traitsIcEENS_9allocatorIcEEEENS4_IS6_EEE17__annotate_deleteB7v160006Ev, symObjAddr: 0xD99C, symBinAddr: 0x100015B78, symSize: 0xD4 }
  - { offsetInCU: 0x3D6D6, offset: 0x6173E, size: 0x8, addend: 0x0, symName: __ZNSt3__16vectorINS_12basic_stringIcNS_11char_traitsIcEENS_9allocatorIcEEEENS4_IS6_EEE7__clearB7v160006Ev, symObjAddr: 0xDA80, symBinAddr: 0x100015C5C, symSize: 0x28 }
  - { offsetInCU: 0x3D6FA, offset: 0x61762, size: 0x8, addend: 0x0, symName: __ZNSt3__116allocator_traitsINS_9allocatorINS_12basic_stringIcNS_11char_traitsIcEENS1_IcEEEEEEE10deallocateB7v160006ERS7_PS6_m, symObjAddr: 0xDAA8, symBinAddr: 0x100015C84, symSize: 0x34 }
  - { offsetInCU: 0x3D73B, offset: 0x617A3, size: 0x8, addend: 0x0, symName: __ZNSt3__16vectorINS_12basic_stringIcNS_11char_traitsIcEENS_9allocatorIcEEEENS4_IS6_EEE22__base_destruct_at_endB7v160006EPS6_, symObjAddr: 0xDADC, symBinAddr: 0x100015CB8, symSize: 0x8C }
  - { offsetInCU: 0x3D77E, offset: 0x617E6, size: 0x8, addend: 0x0, symName: __ZNSt3__19allocatorINS_12basic_stringIcNS_11char_traitsIcEENS0_IcEEEEE10deallocateB7v160006EPS5_m, symObjAddr: 0xDB68, symBinAddr: 0x100015D44, symSize: 0x44 }
  - { offsetInCU: 0x3D7BE, offset: 0x61826, size: 0x8, addend: 0x0, symName: __ZN17kd_tree_leaf_nodeC2E7Dataset, symObjAddr: 0xDBAC, symBinAddr: 0x100015D88, symSize: 0x84 }
  - { offsetInCU: 0x3D7F5, offset: 0x6185D, size: 0x8, addend: 0x0, symName: __ZN10KDTreeNodeC2Ev, symObjAddr: 0xDC30, symBinAddr: 0x100015E0C, symSize: 0x24 }
  - { offsetInCU: 0x3D81F, offset: 0x61887, size: 0x8, addend: 0x0, symName: __ZN10KDTreeNodeD2Ev, symObjAddr: 0xDC54, symBinAddr: 0x100015E30, symSize: 0x14 }
  - { offsetInCU: 0x3D847, offset: 0x618AF, size: 0x8, addend: 0x0, symName: __ZN17kd_tree_leaf_nodeD1Ev, symObjAddr: 0xDC68, symBinAddr: 0x100015E44, symSize: 0x2C }
  - { offsetInCU: 0x3D86F, offset: 0x618D7, size: 0x8, addend: 0x0, symName: __ZN17kd_tree_leaf_nodeD0Ev, symObjAddr: 0xDC94, symBinAddr: 0x100015E70, symSize: 0x30 }
  - { offsetInCU: 0x3D897, offset: 0x618FF, size: 0x8, addend: 0x0, symName: __ZNK17kd_tree_leaf_node6isLeafEv, symObjAddr: 0xDCC4, symBinAddr: 0x100015EA0, symSize: 0x18 }
  - { offsetInCU: 0x3D8BB, offset: 0x61923, size: 0x8, addend: 0x0, symName: __ZN10KDTreeNodeD1Ev, symObjAddr: 0xDCDC, symBinAddr: 0x100015EB8, symSize: 0x14 }
  - { offsetInCU: 0x3D8E3, offset: 0x6194B, size: 0x8, addend: 0x0, symName: __ZN10KDTreeNodeD0Ev, symObjAddr: 0xDCF0, symBinAddr: 0x100015ECC, symSize: 0xC }
  - { offsetInCU: 0x3D90B, offset: 0x61973, size: 0x8, addend: 0x0, symName: __ZN17kd_tree_leaf_nodeD2Ev, symObjAddr: 0xDCFC, symBinAddr: 0x100015ED8, symSize: 0x48 }
  - { offsetInCU: 0x3D933, offset: 0x6199B, size: 0x8, addend: 0x0, symName: __ZN18kd_tree_inter_nodeC2Eid, symObjAddr: 0xDD44, symBinAddr: 0x100015F20, symSize: 0x64 }
  - { offsetInCU: 0x3D977, offset: 0x619DF, size: 0x8, addend: 0x0, symName: __ZN18kd_tree_inter_nodeD1Ev, symObjAddr: 0xDDA8, symBinAddr: 0x100015F84, symSize: 0x2C }
  - { offsetInCU: 0x3D99F, offset: 0x61A07, size: 0x8, addend: 0x0, symName: __ZN18kd_tree_inter_nodeD0Ev, symObjAddr: 0xDDD4, symBinAddr: 0x100015FB0, symSize: 0x30 }
  - { offsetInCU: 0x3D9C7, offset: 0x61A2F, size: 0x8, addend: 0x0, symName: __ZNK18kd_tree_inter_node6isLeafEv, symObjAddr: 0xDE04, symBinAddr: 0x100015FE0, symSize: 0x18 }
  - { offsetInCU: 0x3D9EB, offset: 0x61A53, size: 0x8, addend: 0x0, symName: __ZN18kd_tree_inter_nodeD2Ev, symObjAddr: 0xDE1C, symBinAddr: 0x100015FF8, symSize: 0x2C }
  - { offsetInCU: 0x3DA18, offset: 0x61A80, size: 0x8, addend: 0x0, symName: __ZNSt3__18ios_base4setfB7v160006Ejj, symObjAddr: 0xDFF8, symBinAddr: 0x100016024, symSize: 0x5C }
  - { offsetInCU: 0x3DA6C, offset: 0x61AD4, size: 0x8, addend: 0x0, symName: __ZNSt3__18ios_base6unsetfB7v160006Ej, symObjAddr: 0xE054, symBinAddr: 0x100016080, symSize: 0x28 }
  - { offsetInCU: 0x3DAA2, offset: 0x61B0A, size: 0x8, addend: 0x0, symName: __ZNSt3__18__iom_t5C1B7v160006Ei, symObjAddr: 0xE07C, symBinAddr: 0x1000160A8, symSize: 0x34 }
  - { offsetInCU: 0x3DAD8, offset: 0x61B40, size: 0x8, addend: 0x0, symName: __ZNSt3__18__iom_t5C2B7v160006Ei, symObjAddr: 0xE0B0, symBinAddr: 0x1000160DC, symSize: 0x20 }
  - { offsetInCU: 0x3DB0D, offset: 0x61B75, size: 0x8, addend: 0x0, symName: __Z5ltrimRNSt3__112basic_stringIcNS_11char_traitsIcEENS_9allocatorIcEEEEPKc, symObjAddr: 0xE0D0, symBinAddr: 0x1000160FC, symSize: 0x50 }
  - { offsetInCU: 0x3DB47, offset: 0x61BAF, size: 0x8, addend: 0x0, symName: __Z5rtrimRNSt3__112basic_stringIcNS_11char_traitsIcEENS_9allocatorIcEEEEPKc, symObjAddr: 0xE120, symBinAddr: 0x10001614C, symSize: 0x54 }
  - { offsetInCU: 0x3DB82, offset: 0x61BEA, size: 0x8, addend: 0x0, symName: __ZNKSt3__112basic_stringIcNS_11char_traitsIcEENS_9allocatorIcEEE17find_first_not_ofB7v160006EPKcm, symObjAddr: 0xE174, symBinAddr: 0x1000161A0, symSize: 0x74 }
  - { offsetInCU: 0x3DBC6, offset: 0x61C2E, size: 0x8, addend: 0x0, symName: __ZNSt3__111char_traitsIcE4findEPKcmRS2_, symObjAddr: 0xE374, symBinAddr: 0x1000162F0, symSize: 0x70 }
  - { offsetInCU: 0x3DC04, offset: 0x61C6C, size: 0x8, addend: 0x0, symName: __ZNKSt3__112basic_stringIcNS_11char_traitsIcEENS_9allocatorIcEEE16find_last_not_ofB7v160006EPKcm, symObjAddr: 0xE5D4, symBinAddr: 0x100016394, symSize: 0x74 }
  - { offsetInCU: 0x3DC48, offset: 0x61CB0, size: 0x8, addend: 0x0, symName: __ZNSt3__119basic_ostringstreamIcNS_11char_traitsIcEENS_9allocatorIcEEED2Ev, symObjAddr: 0xE724, symBinAddr: 0x1000164E4, symSize: 0x64 }
  - { offsetInCU: 0x3DC80, offset: 0x61CE8, size: 0x8, addend: 0x0, symName: __ZTv0_n24_NSt3__119basic_ostringstreamIcNS_11char_traitsIcEENS_9allocatorIcEEED1Ev, symObjAddr: 0xE788, symBinAddr: 0x100016548, symSize: 0x28 }
  - { offsetInCU: 0x3DC97, offset: 0x61CFF, size: 0x8, addend: 0x0, symName: __ZNSt3__112basic_stringIcNS_11char_traitsIcEENS_9allocatorIcEEEixB7v160006Em, symObjAddr: 0xE7B0, symBinAddr: 0x100016570, symSize: 0x30 }
  - { offsetInCU: 0x3DCCA, offset: 0x61D32, size: 0x8, addend: 0x0, symName: __ZNKSt3__112basic_stringIcNS_11char_traitsIcEENS_9allocatorIcEEE4findB7v160006EPKcm, symObjAddr: 0xE7E0, symBinAddr: 0x1000165A0, symSize: 0x74 }
  - { offsetInCU: 0x3DD0E, offset: 0x61D76, size: 0x8, addend: 0x0, symName: __ZNSt3__119basic_istringstreamIcNS_11char_traitsIcEENS_9allocatorIcEEEC1B7v160006ERKNS_12basic_stringIcS2_S4_EEj, symObjAddr: 0xE854, symBinAddr: 0x100016614, symSize: 0xFC }
  - { offsetInCU: 0x3DD59, offset: 0x61DC1, size: 0x8, addend: 0x0, symName: __ZNSt3__119basic_istringstreamIcNS_11char_traitsIcEENS_9allocatorIcEEED1Ev, symObjAddr: 0xEB88, symBinAddr: 0x100016710, symSize: 0x40 }
  - { offsetInCU: 0x3DD85, offset: 0x61DED, size: 0x8, addend: 0x0, symName: __ZNSt3__113basic_istreamIcNS_11char_traitsIcEEErsB7v160006EPFRS3_S4_E, symObjAddr: 0xEBC8, symBinAddr: 0x100016750, symSize: 0x2C }
  - { offsetInCU: 0x3DDB7, offset: 0x61E1F, size: 0x8, addend: 0x0, symName: __ZNSt3__16vectorI5PointNS_9allocatorIS1_EEE12emplace_backIJRNS0_IdNS2_IdEEEERNS_12basic_stringIcNS_11char_traitsIcEENS2_IcEEEEEEEvDpOT_, symObjAddr: 0xEE34, symBinAddr: 0x1000169B4, symSize: 0x78 }
  - { offsetInCU: 0x3DE0B, offset: 0x61E73, size: 0x8, addend: 0x0, symName: __ZNSt3__112basic_stringIcNS_11char_traitsIcEENS_9allocatorIcEEE13__get_pointerB7v160006Ev, symObjAddr: 0xEEAC, symBinAddr: 0x100016A2C, symSize: 0x54 }
  - { offsetInCU: 0x3DE57, offset: 0x61EBF, size: 0x8, addend: 0x0, symName: __ZNSt3__119basic_istringstreamIcNS_11char_traitsIcEENS_9allocatorIcEEED2Ev, symObjAddr: 0xFB30, symBinAddr: 0x100016CB8, symSize: 0x64 }
  - { offsetInCU: 0x3DE8F, offset: 0x61EF7, size: 0x8, addend: 0x0, symName: __ZTv0_n24_NSt3__119basic_istringstreamIcNS_11char_traitsIcEENS_9allocatorIcEEED1Ev, symObjAddr: 0xFB94, symBinAddr: 0x100016D1C, symSize: 0x28 }
  - { offsetInCU: 0x3DEA6, offset: 0x61F0E, size: 0x8, addend: 0x0, symName: __ZNSt3__115basic_streambufIcNS_11char_traitsIcEEE5sgetcB7v160006Ev, symObjAddr: 0xFBE8, symBinAddr: 0x100016D44, symSize: 0x70 }
  - { offsetInCU: 0x3DECF, offset: 0x61F37, size: 0x8, addend: 0x0, symName: __ZNKSt3__15ctypeIcE2isB7v160006Ejc, symObjAddr: 0xFC58, symBinAddr: 0x100016DB4, symSize: 0x7C }
  - { offsetInCU: 0x3DF10, offset: 0x61F78, size: 0x8, addend: 0x0, symName: __Z7isasciii, symObjAddr: 0xFCD4, symBinAddr: 0x100016E30, symSize: 0x24 }
  - { offsetInCU: 0x3DF3D, offset: 0x61FA5, size: 0x8, addend: 0x0, symName: __ZNSt3__16vectorI5PointNS_9allocatorIS1_EEE22__construct_one_at_endB7v160006IJRNS0_IdNS2_IdEEEERNS_12basic_stringIcNS_11char_traitsIcEENS2_IcEEEEEEEvDpOT_, symObjAddr: 0xFCF8, symBinAddr: 0x100016E54, symSize: 0x98 }
  - { offsetInCU: 0x3DF9F, offset: 0x62007, size: 0x8, addend: 0x0, symName: __ZNSt3__16vectorI5PointNS_9allocatorIS1_EEE24__emplace_back_slow_pathIJRNS0_IdNS2_IdEEEERNS_12basic_stringIcNS_11char_traitsIcEENS2_IcEEEEEEEvDpOT_, symObjAddr: 0xFD90, symBinAddr: 0x100016EEC, symSize: 0xE0 }
  - { offsetInCU: 0x3E013, offset: 0x6207B, size: 0x8, addend: 0x0, symName: __ZNSt3__116allocator_traitsINS_9allocatorI5PointEEE9constructB7v160006IS2_JRNS_6vectorIdNS1_IdEEEERNS_12basic_stringIcNS_11char_traitsIcEENS1_IcEEEEEvEEvRS3_PT_DpOT0_, symObjAddr: 0xFE70, symBinAddr: 0x100016FCC, symSize: 0x3C }
  - { offsetInCU: 0x3E07D, offset: 0x620E5, size: 0x8, addend: 0x0, symName: __ZNSt3__19allocatorI5PointE9constructB7v160006IS1_JRNS_6vectorIdNS0_IdEEEERNS_12basic_stringIcNS_11char_traitsIcEENS0_IcEEEEEEEvPT_DpOT0_, symObjAddr: 0xFEAC, symBinAddr: 0x100017008, symSize: 0x38 }
  - { offsetInCU: 0x3E0E4, offset: 0x6214C, size: 0x8, addend: 0x0, symName: __ZNKSt3__16vectorI5PointNS_9allocatorIS1_EEE11__recommendB7v160006Em, symObjAddr: 0xFEE4, symBinAddr: 0x100017040, symSize: 0xB4 }
  - { offsetInCU: 0x3E139, offset: 0x621A1, size: 0x8, addend: 0x0, symName: __ZNSt3__114__split_bufferI5PointRNS_9allocatorIS1_EEEC1EmmS4_, symObjAddr: 0xFF98, symBinAddr: 0x1000170F4, symSize: 0x44 }
  - { offsetInCU: 0x3E18E, offset: 0x621F6, size: 0x8, addend: 0x0, symName: __ZNSt3__114__split_bufferI5PointRNS_9allocatorIS1_EEED1Ev, symObjAddr: 0x100F4, symBinAddr: 0x100017250, symSize: 0x2C }
  - { offsetInCU: 0x3E1B9, offset: 0x62221, size: 0x8, addend: 0x0, symName: __ZNSt3__114__split_bufferI5PointRNS_9allocatorIS1_EEEC2EmmS4_, symObjAddr: 0x101A0, symBinAddr: 0x10001727C, symSize: 0xE0 }
  - { offsetInCU: 0x3E22D, offset: 0x62295, size: 0x8, addend: 0x0, symName: __ZNSt3__117__compressed_pairIP5PointRNS_9allocatorIS1_EEEC1B7v160006IDnS5_EEOT_OT0_, symObjAddr: 0x10280, symBinAddr: 0x10001735C, symSize: 0x3C }
  - { offsetInCU: 0x3E283, offset: 0x622EB, size: 0x8, addend: 0x0, symName: __ZNSt3__114__split_bufferI5PointRNS_9allocatorIS1_EEE7__allocB7v160006Ev, symObjAddr: 0x102BC, symBinAddr: 0x100017398, symSize: 0x28 }
  - { offsetInCU: 0x3E2A7, offset: 0x6230F, size: 0x8, addend: 0x0, symName: __ZNSt3__114__split_bufferI5PointRNS_9allocatorIS1_EEE9__end_capB7v160006Ev, symObjAddr: 0x102E4, symBinAddr: 0x1000173C0, symSize: 0x28 }
  - { offsetInCU: 0x3E2CB, offset: 0x62333, size: 0x8, addend: 0x0, symName: __ZNSt3__117__compressed_pairIP5PointRNS_9allocatorIS1_EEEC2B7v160006IDnS5_EEOT_OT0_, symObjAddr: 0x1030C, symBinAddr: 0x1000173E8, symSize: 0x48 }
  - { offsetInCU: 0x3E321, offset: 0x62389, size: 0x8, addend: 0x0, symName: __ZNSt3__122__compressed_pair_elemIRNS_9allocatorI5PointEELi1ELb0EEC2B7v160006IS4_vEEOT_, symObjAddr: 0x10354, symBinAddr: 0x100017430, symSize: 0x20 }
  - { offsetInCU: 0x3E361, offset: 0x623C9, size: 0x8, addend: 0x0, symName: __ZNSt3__117__compressed_pairIP5PointRNS_9allocatorIS1_EEE6secondB7v160006Ev, symObjAddr: 0x10374, symBinAddr: 0x100017450, symSize: 0x28 }
  - { offsetInCU: 0x3E385, offset: 0x623ED, size: 0x8, addend: 0x0, symName: __ZNSt3__122__compressed_pair_elemIRNS_9allocatorI5PointEELi1ELb0EE5__getB7v160006Ev, symObjAddr: 0x1039C, symBinAddr: 0x100017478, symSize: 0x18 }
  - { offsetInCU: 0x3E3A9, offset: 0x62411, size: 0x8, addend: 0x0, symName: __ZNSt3__117__compressed_pairIP5PointRNS_9allocatorIS1_EEE5firstB7v160006Ev, symObjAddr: 0x103B4, symBinAddr: 0x100017490, symSize: 0x24 }
  - { offsetInCU: 0x3E3CD, offset: 0x62435, size: 0x8, addend: 0x0, symName: __ZNSt3__129_AllocatorDestroyRangeReverseINS_9allocatorI5PointEENS_16reverse_iteratorIPS2_EEEC1B7v160006ERS3_RS6_S9_, symObjAddr: 0x1058C, symBinAddr: 0x100017668, symSize: 0x44 }
  - { offsetInCU: 0x3E427, offset: 0x6248F, size: 0x8, addend: 0x0, symName: __ZNSt3__116allocator_traitsINS_9allocatorI5PointEEE9constructB7v160006IS2_JS2_EvEEvRS3_PT_DpOT0_, symObjAddr: 0x105D0, symBinAddr: 0x1000176AC, symSize: 0x34 }
  - { offsetInCU: 0x3E47D, offset: 0x624E5, size: 0x8, addend: 0x0, symName: __ZNSt3__128__exception_guard_exceptionsINS_29_AllocatorDestroyRangeReverseINS_9allocatorI5PointEENS_16reverse_iteratorIPS3_EEEEE10__completeB7v160006Ev, symObjAddr: 0x10604, symBinAddr: 0x1000176E0, symSize: 0x1C }
  - { offsetInCU: 0x3E4A1, offset: 0x62509, size: 0x8, addend: 0x0, symName: __ZNSt3__128__exception_guard_exceptionsINS_29_AllocatorDestroyRangeReverseINS_9allocatorI5PointEENS_16reverse_iteratorIPS3_EEEEED1B7v160006Ev, symObjAddr: 0x10620, symBinAddr: 0x1000176FC, symSize: 0x2C }
  - { offsetInCU: 0x3E4C9, offset: 0x62531, size: 0x8, addend: 0x0, symName: __ZNSt3__128__exception_guard_exceptionsINS_29_AllocatorDestroyRangeReverseINS_9allocatorI5PointEENS_16reverse_iteratorIPS3_EEEEEC1B7v160006ES8_, symObjAddr: 0x1064C, symBinAddr: 0x100017728, symSize: 0x34 }
  - { offsetInCU: 0x3E500, offset: 0x62568, size: 0x8, addend: 0x0, symName: __ZNSt3__128__exception_guard_exceptionsINS_29_AllocatorDestroyRangeReverseINS_9allocatorI5PointEENS_16reverse_iteratorIPS3_EEEEEC2B7v160006ES8_, symObjAddr: 0x10680, symBinAddr: 0x10001775C, symSize: 0x30 }
  - { offsetInCU: 0x3E537, offset: 0x6259F, size: 0x8, addend: 0x0, symName: __ZNSt3__129_AllocatorDestroyRangeReverseINS_9allocatorI5PointEENS_16reverse_iteratorIPS2_EEEC2B7v160006ERS3_RS6_S9_, symObjAddr: 0x106B0, symBinAddr: 0x10001778C, symSize: 0x38 }
  - { offsetInCU: 0x3E58C, offset: 0x625F4, size: 0x8, addend: 0x0, symName: __ZNSt3__19allocatorI5PointE9constructB7v160006IS1_JS1_EEEvPT_DpOT0_, symObjAddr: 0x106E8, symBinAddr: 0x1000177C4, symSize: 0x30 }
  - { offsetInCU: 0x3E5E0, offset: 0x62648, size: 0x8, addend: 0x0, symName: __ZN5PointC1EOS_, symObjAddr: 0x10718, symBinAddr: 0x1000177F4, symSize: 0x34 }
  - { offsetInCU: 0x3E613, offset: 0x6267B, size: 0x8, addend: 0x0, symName: __ZN5PointC2EOS_, symObjAddr: 0x1074C, symBinAddr: 0x100017828, symSize: 0x48 }
  - { offsetInCU: 0x3E646, offset: 0x626AE, size: 0x8, addend: 0x0, symName: __ZNSt3__16vectorIdNS_9allocatorIdEEEC1B7v160006EOS3_, symObjAddr: 0x10794, symBinAddr: 0x100017870, symSize: 0x34 }
  - { offsetInCU: 0x3E680, offset: 0x626E8, size: 0x8, addend: 0x0, symName: __ZNSt3__16vectorIdNS_9allocatorIdEEEC2B7v160006EOS3_, symObjAddr: 0x107FC, symBinAddr: 0x1000178A4, symSize: 0xDC }
  - { offsetInCU: 0x3E6BA, offset: 0x62722, size: 0x8, addend: 0x0, symName: __ZNSt3__128__exception_guard_exceptionsINS_29_AllocatorDestroyRangeReverseINS_9allocatorI5PointEENS_16reverse_iteratorIPS3_EEEEED2B7v160006Ev, symObjAddr: 0x10980, symBinAddr: 0x100017994, symSize: 0x50 }
  - { offsetInCU: 0x3E6E2, offset: 0x6274A, size: 0x8, addend: 0x0, symName: __ZNKSt3__129_AllocatorDestroyRangeReverseINS_9allocatorI5PointEENS_16reverse_iteratorIPS2_EEEclB7v160006Ev, symObjAddr: 0x109D0, symBinAddr: 0x1000179E4, symSize: 0xB4 }
  - { offsetInCU: 0x3E707, offset: 0x6276F, size: 0x8, addend: 0x0, symName: __ZNSt3__116reverse_iteratorINS0_IP5PointEEEC1B7v160006ES3_, symObjAddr: 0x10AF4, symBinAddr: 0x100017B08, symSize: 0x3C }
  - { offsetInCU: 0x3E73D, offset: 0x627A5, size: 0x8, addend: 0x0, symName: __ZNSt3__116reverse_iteratorINS0_IP5PointEEEppB7v160006Ev, symObjAddr: 0x10BB4, symBinAddr: 0x100017BC8, symSize: 0x30 }
  - { offsetInCU: 0x3E761, offset: 0x627C9, size: 0x8, addend: 0x0, symName: __ZNKSt3__116reverse_iteratorINS0_IP5PointEEE4baseB7v160006Ev, symObjAddr: 0x10BE4, symBinAddr: 0x100017BF8, symSize: 0x24 }
  - { offsetInCU: 0x3E78A, offset: 0x627F2, size: 0x8, addend: 0x0, symName: __ZNSt3__119__to_address_helperINS_16reverse_iteratorINS1_IP5PointEEEEvE6__callB7v160006ERKS5_, symObjAddr: 0x10C08, symBinAddr: 0x100017C1C, symSize: 0x38 }
  - { offsetInCU: 0x3E7AC, offset: 0x62814, size: 0x8, addend: 0x0, symName: __ZNKSt3__116reverse_iteratorINS0_IP5PointEEEptB7v160006Ev, symObjAddr: 0x10C40, symBinAddr: 0x100017C54, symSize: 0x24 }
  - { offsetInCU: 0x3E7D0, offset: 0x62838, size: 0x8, addend: 0x0, symName: __ZNKSt3__116reverse_iteratorINS0_IP5PointEEEdeB7v160006Ev, symObjAddr: 0x10C64, symBinAddr: 0x100017C78, symSize: 0x34 }
  - { offsetInCU: 0x3E802, offset: 0x6286A, size: 0x8, addend: 0x0, symName: __ZNSt3__116reverse_iteratorIP5PointEmmB7v160006Ev, symObjAddr: 0x10C98, symBinAddr: 0x100017CAC, symSize: 0x20 }
  - { offsetInCU: 0x3E826, offset: 0x6288E, size: 0x8, addend: 0x0, symName: __ZNSt3__116reverse_iteratorINS0_IP5PointEEEC2B7v160006ES3_, symObjAddr: 0x10CB8, symBinAddr: 0x100017CCC, symSize: 0x2C }
  - { offsetInCU: 0x3E85C, offset: 0x628C4, size: 0x8, addend: 0x0, symName: __ZNSt3__114__split_bufferI5PointRNS_9allocatorIS1_EEED2Ev, symObjAddr: 0x10CE4, symBinAddr: 0x100017CF8, symSize: 0x8C }
  - { offsetInCU: 0x3E887, offset: 0x628EF, size: 0x8, addend: 0x0, symName: __ZNSt3__114__split_bufferI5PointRNS_9allocatorIS1_EEE5clearB7v160006Ev, symObjAddr: 0x10D70, symBinAddr: 0x100017D84, symSize: 0x28 }
  - { offsetInCU: 0x3E8AB, offset: 0x62913, size: 0x8, addend: 0x0, symName: __ZNKSt3__114__split_bufferI5PointRNS_9allocatorIS1_EEE8capacityB7v160006Ev, symObjAddr: 0x10D98, symBinAddr: 0x100017DAC, symSize: 0x40 }
  - { offsetInCU: 0x3E8CF, offset: 0x62937, size: 0x8, addend: 0x0, symName: __ZNSt3__114__split_bufferI5PointRNS_9allocatorIS1_EEE17__destruct_at_endB7v160006EPS1_, symObjAddr: 0x10DD8, symBinAddr: 0x100017DEC, symSize: 0x2C }
  - { offsetInCU: 0x3E901, offset: 0x62969, size: 0x8, addend: 0x0, symName: __ZNSt3__114__split_bufferI5PointRNS_9allocatorIS1_EEE17__destruct_at_endB7v160006EPS1_NS_17integral_constantIbLb0EEE, symObjAddr: 0x10E04, symBinAddr: 0x100017E18, symSize: 0x80 }
  - { offsetInCU: 0x3E93F, offset: 0x629A7, size: 0x8, addend: 0x0, symName: __ZNKSt3__114__split_bufferI5PointRNS_9allocatorIS1_EEE9__end_capB7v160006Ev, symObjAddr: 0x10E84, symBinAddr: 0x100017E98, symSize: 0x28 }
  - { offsetInCU: 0x3E963, offset: 0x629CB, size: 0x8, addend: 0x0, symName: __ZNKSt3__117__compressed_pairIP5PointRNS_9allocatorIS1_EEE5firstB7v160006Ev, symObjAddr: 0x10EAC, symBinAddr: 0x100017EC0, symSize: 0x24 }
  - { offsetInCU: 0x3E987, offset: 0x629EF, size: 0x8, addend: 0x0, symName: __ZN3KNND2Ev, symObjAddr: 0x10ED0, symBinAddr: 0x100017EE4, symSize: 0x2C }
  - { offsetInCU: 0x3E9B1, offset: 0x62A19, size: 0x8, addend: 0x0, symName: __ZNSt3__18functionIFbiN8nlohmann16json_abi_v3_11_36detail13parse_event_tERNS2_10basic_jsonINS_3mapENS_6vectorENS_12basic_stringIcNS_11char_traitsIcEENS_9allocatorIcEEEEbxydSB_NS2_14adl_serializerENS7_IhNSB_IhEEEEvEEEEC2B7v160006EDn, symObjAddr: 0x112B8, symBinAddr: 0x100017F10, symSize: 0x30 }
  - { offsetInCU: 0x3E9E4, offset: 0x62A4C, size: 0x8, addend: 0x0, symName: __ZNSt3__110__function12__value_funcIFbiN8nlohmann16json_abi_v3_11_36detail13parse_event_tERNS3_10basic_jsonINS_3mapENS_6vectorENS_12basic_stringIcNS_11char_traitsIcEENS_9allocatorIcEEEEbxydSC_NS3_14adl_serializerENS8_IhNSC_IhEEEEvEEEEC1B7v160006Ev, symObjAddr: 0x112E8, symBinAddr: 0x100017F40, symSize: 0x2C }
  - { offsetInCU: 0x3EA0C, offset: 0x62A74, size: 0x8, addend: 0x0, symName: __ZNSt3__110__function12__value_funcIFbiN8nlohmann16json_abi_v3_11_36detail13parse_event_tERNS3_10basic_jsonINS_3mapENS_6vectorENS_12basic_stringIcNS_11char_traitsIcEENS_9allocatorIcEEEEbxydSC_NS3_14adl_serializerENS8_IhNSC_IhEEEEvEEEEC2B7v160006Ev, symObjAddr: 0x11314, symBinAddr: 0x100017F6C, symSize: 0x18 }
  - { offsetInCU: 0x3EA34, offset: 0x62A9C, size: 0x8, addend: 0x0, symName: __ZNSt3__18functionIFbiN8nlohmann16json_abi_v3_11_36detail13parse_event_tERNS2_10basic_jsonINS_3mapENS_6vectorENS_12basic_stringIcNS_11char_traitsIcEENS_9allocatorIcEEEEbxydSB_NS2_14adl_serializerENS7_IhNSB_IhEEEEvEEEED2Ev, symObjAddr: 0x1132C, symBinAddr: 0x100017F84, symSize: 0x2C }
  - { offsetInCU: 0x3EA5F, offset: 0x62AC7, size: 0x8, addend: 0x0, symName: __ZNSt3__110__function12__value_funcIFbiN8nlohmann16json_abi_v3_11_36detail13parse_event_tERNS3_10basic_jsonINS_3mapENS_6vectorENS_12basic_stringIcNS_11char_traitsIcEENS_9allocatorIcEEEEbxydSC_NS3_14adl_serializerENS8_IhNSC_IhEEEEvEEEED1B7v160006Ev, symObjAddr: 0x11358, symBinAddr: 0x100017FB0, symSize: 0x2C }
  - { offsetInCU: 0x3EA87, offset: 0x62AEF, size: 0x8, addend: 0x0, symName: __ZNSt3__110__function12__value_funcIFbiN8nlohmann16json_abi_v3_11_36detail13parse_event_tERNS3_10basic_jsonINS_3mapENS_6vectorENS_12basic_stringIcNS_11char_traitsIcEENS_9allocatorIcEEEEbxydSC_NS3_14adl_serializerENS8_IhNSC_IhEEEEvEEEED2B7v160006Ev, symObjAddr: 0x11384, symBinAddr: 0x100017FDC, symSize: 0x90 }
  - { offsetInCU: 0x3EAAF, offset: 0x62B17, size: 0x8, addend: 0x0, symName: __ZN8nlohmann16json_abi_v3_11_310basic_jsonINSt3__13mapENS2_6vectorENS2_12basic_stringIcNS2_11char_traitsIcEENS2_9allocatorIcEEEEbxydS8_NS0_14adl_serializerENS4_IhNS8_IhEEEEvED2Ev, symObjAddr: 0x11414, symBinAddr: 0x10001806C, symSize: 0x3C }
  - { offsetInCU: 0x3EAD7, offset: 0x62B3F, size: 0x8, addend: 0x0, symName: __ZNK8nlohmann16json_abi_v3_11_310basic_jsonINSt3__13mapENS2_6vectorENS2_12basic_stringIcNS2_11char_traitsIcEENS2_9allocatorIcEEEEbxydS8_NS0_14adl_serializerENS4_IhNS8_IhEEEEvE16assert_invariantEb, symObjAddr: 0x11450, symBinAddr: 0x1000180A8, symSize: 0x1F0 }
  - { offsetInCU: 0x3EB0A, offset: 0x62B72, size: 0x8, addend: 0x0, symName: __ZN8nlohmann16json_abi_v3_11_310basic_jsonINSt3__13mapENS2_6vectorENS2_12basic_stringIcNS2_11char_traitsIcEENS2_9allocatorIcEEEEbxydS8_NS0_14adl_serializerENS4_IhNS8_IhEEEEvE4dataD1Ev, symObjAddr: 0x11640, symBinAddr: 0x100018298, symSize: 0x2C }
  - { offsetInCU: 0x3EB32, offset: 0x62B9A, size: 0x8, addend: 0x0, symName: __ZN8nlohmann16json_abi_v3_11_310basic_jsonINSt3__13mapENS2_6vectorENS2_12basic_stringIcNS2_11char_traitsIcEENS2_9allocatorIcEEEEbxydS8_NS0_14adl_serializerENS4_IhNS8_IhEEEEvE4dataD2Ev, symObjAddr: 0x1166C, symBinAddr: 0x1000182C4, symSize: 0x3C }
  - { offsetInCU: 0x3EB5A, offset: 0x62BC2, size: 0x8, addend: 0x0, symName: __ZN8nlohmann16json_abi_v3_11_310basic_jsonINSt3__13mapENS2_6vectorENS2_12basic_stringIcNS2_11char_traitsIcEENS2_9allocatorIcEEEEbxydS8_NS0_14adl_serializerENS4_IhNS8_IhEEEEvE10json_value7destroyENS0_6detail7value_tE, symObjAddr: 0x116A8, symBinAddr: 0x100018300, symSize: 0x518 }
  - { offsetInCU: 0x3ECEC, offset: 0x62D54, size: 0x8, addend: 0x0, symName: __ZNSt3__16vectorIN8nlohmann16json_abi_v3_11_310basic_jsonINS_3mapES0_NS_12basic_stringIcNS_11char_traitsIcEENS_9allocatorIcEEEEbxydS8_NS2_14adl_serializerENS0_IhNS8_IhEEEEvEENS8_ISE_EEEC1B7v160006Ev, symObjAddr: 0x11BE8, symBinAddr: 0x100018840, symSize: 0x2C }
  - { offsetInCU: 0x3ED14, offset: 0x62D7C, size: 0x8, addend: 0x0, symName: __ZNSt3__16vectorIN8nlohmann16json_abi_v3_11_310basic_jsonINS_3mapES0_NS_12basic_stringIcNS_11char_traitsIcEENS_9allocatorIcEEEEbxydS8_NS2_14adl_serializerENS0_IhNS8_IhEEEEvEENS8_ISE_EEE7reserveEm, symObjAddr: 0x11C14, symBinAddr: 0x10001886C, symSize: 0xE8 }
  - { offsetInCU: 0x3ED70, offset: 0x62DD8, size: 0x8, addend: 0x0, symName: __ZNKSt3__16vectorIN8nlohmann16json_abi_v3_11_310basic_jsonINS_3mapES0_NS_12basic_stringIcNS_11char_traitsIcEENS_9allocatorIcEEEEbxydS8_NS2_14adl_serializerENS0_IhNS8_IhEEEEvEENS8_ISE_EEE4sizeB7v160006Ev, symObjAddr: 0x11CFC, symBinAddr: 0x100018954, symSize: 0x28 }
  - { offsetInCU: 0x3ED94, offset: 0x62DFC, size: 0x8, addend: 0x0, symName: __ZNSt3__16vectorIN8nlohmann16json_abi_v3_11_310basic_jsonINS_3mapES0_NS_12basic_stringIcNS_11char_traitsIcEENS_9allocatorIcEEEEbxydS8_NS2_14adl_serializerENS0_IhNS8_IhEEEEvEENS8_ISE_EEE5beginB7v160006Ev, symObjAddr: 0x11D84, symBinAddr: 0x1000189DC, symSize: 0x30 }
  - { offsetInCU: 0x3EDBA, offset: 0x62E22, size: 0x8, addend: 0x0, symName: __ZNSt3__16vectorIN8nlohmann16json_abi_v3_11_310basic_jsonINS_3mapES0_NS_12basic_stringIcNS_11char_traitsIcEENS_9allocatorIcEEEEbxydS8_NS2_14adl_serializerENS0_IhNS8_IhEEEEvEENS8_ISE_EEE3endB7v160006Ev, symObjAddr: 0x11DB4, symBinAddr: 0x100018A0C, symSize: 0x30 }
  - { offsetInCU: 0x3EDE0, offset: 0x62E48, size: 0x8, addend: 0x0, symName: __ZNKSt3__13mapINS_12basic_stringIcNS_11char_traitsIcEENS_9allocatorIcEEEEN8nlohmann16json_abi_v3_11_310basic_jsonIS0_NS_6vectorES6_bxydS4_NS8_14adl_serializerENSA_IhNS4_IhEEEEvEENS_4lessIS6_EENS4_INS_4pairIKS6_SE_EEEEE4sizeB7v160006Ev, symObjAddr: 0x11E10, symBinAddr: 0x100018A68, symSize: 0x28 }
  - { offsetInCU: 0x3EE04, offset: 0x62E6C, size: 0x8, addend: 0x0, symName: __ZNSt3__13mapINS_12basic_stringIcNS_11char_traitsIcEENS_9allocatorIcEEEEN8nlohmann16json_abi_v3_11_310basic_jsonIS0_NS_6vectorES6_bxydS4_NS8_14adl_serializerENSA_IhNS4_IhEEEEvEENS_4lessIS6_EENS4_INS_4pairIKS6_SE_EEEEE5beginB7v160006Ev, symObjAddr: 0x11E38, symBinAddr: 0x100018A90, symSize: 0x38 }
  - { offsetInCU: 0x3EE28, offset: 0x62E90, size: 0x8, addend: 0x0, symName: __ZNSt3__13mapINS_12basic_stringIcNS_11char_traitsIcEENS_9allocatorIcEEEEN8nlohmann16json_abi_v3_11_310basic_jsonIS0_NS_6vectorES6_bxydS4_NS8_14adl_serializerENSA_IhNS4_IhEEEEvEENS_4lessIS6_EENS4_INS_4pairIKS6_SE_EEEEE3endB7v160006Ev, symObjAddr: 0x11E70, symBinAddr: 0x100018AC8, symSize: 0x38 }
  - { offsetInCU: 0x3EE4C, offset: 0x62EB4, size: 0x8, addend: 0x0, symName: __ZNKSt3__114__map_iteratorINS_15__tree_iteratorINS_12__value_typeINS_12basic_stringIcNS_11char_traitsIcEENS_9allocatorIcEEEEN8nlohmann16json_abi_v3_11_310basic_jsonINS_3mapENS_6vectorES8_bxydS6_NSA_14adl_serializerENSD_IhNS6_IhEEEEvEEEEPNS_11__tree_nodeISI_PvEElEEEdeB7v160006Ev, symObjAddr: 0x11ED8, symBinAddr: 0x100018B30, symSize: 0x28 }
  - { offsetInCU: 0x3EE70, offset: 0x62ED8, size: 0x8, addend: 0x0, symName: __ZNSt3__16vectorIN8nlohmann16json_abi_v3_11_310basic_jsonINS_3mapES0_NS_12basic_stringIcNS_11char_traitsIcEENS_9allocatorIcEEEEbxydS8_NS2_14adl_serializerENS0_IhNS8_IhEEEEvEENS8_ISE_EEE9push_backB7v160006EOSE_, symObjAddr: 0x11F00, symBinAddr: 0x100018B58, symSize: 0x6C }
  - { offsetInCU: 0x3EEA5, offset: 0x62F0D, size: 0x8, addend: 0x0, symName: __ZNSt3__114__map_iteratorINS_15__tree_iteratorINS_12__value_typeINS_12basic_stringIcNS_11char_traitsIcEENS_9allocatorIcEEEEN8nlohmann16json_abi_v3_11_310basic_jsonINS_3mapENS_6vectorES8_bxydS6_NSA_14adl_serializerENSD_IhNS6_IhEEEEvEEEEPNS_11__tree_nodeISI_PvEElEEEppB7v160006Ev, symObjAddr: 0x11F6C, symBinAddr: 0x100018BC4, symSize: 0x2C }
  - { offsetInCU: 0x3EEC9, offset: 0x62F31, size: 0x8, addend: 0x0, symName: __ZNKSt3__16vectorIN8nlohmann16json_abi_v3_11_310basic_jsonINS_3mapES0_NS_12basic_stringIcNS_11char_traitsIcEENS_9allocatorIcEEEEbxydS8_NS2_14adl_serializerENS0_IhNS8_IhEEEEvEENS8_ISE_EEE5emptyB7v160006Ev, symObjAddr: 0x11F98, symBinAddr: 0x100018BF0, symSize: 0x28 }
  - { offsetInCU: 0x3EEED, offset: 0x62F55, size: 0x8, addend: 0x0, symName: __ZNSt3__16vectorIN8nlohmann16json_abi_v3_11_310basic_jsonINS_3mapES0_NS_12basic_stringIcNS_11char_traitsIcEENS_9allocatorIcEEEEbxydS8_NS2_14adl_serializerENS0_IhNS8_IhEEEEvEENS8_ISE_EEE4backB7v160006Ev, symObjAddr: 0x11FC0, symBinAddr: 0x100018C18, symSize: 0x1C }
  - { offsetInCU: 0x3EF11, offset: 0x62F79, size: 0x8, addend: 0x0, symName: __ZN8nlohmann16json_abi_v3_11_310basic_jsonINSt3__13mapENS2_6vectorENS2_12basic_stringIcNS2_11char_traitsIcEENS2_9allocatorIcEEEEbxydS8_NS0_14adl_serializerENS4_IhNS8_IhEEEEvEC1EOSE_, symObjAddr: 0x11FDC, symBinAddr: 0x100018C34, symSize: 0x34 }
  - { offsetInCU: 0x3EF48, offset: 0x62FB0, size: 0x8, addend: 0x0, symName: __ZNSt3__16vectorIN8nlohmann16json_abi_v3_11_310basic_jsonINS_3mapES0_NS_12basic_stringIcNS_11char_traitsIcEENS_9allocatorIcEEEEbxydS8_NS2_14adl_serializerENS0_IhNS8_IhEEEEvEENS8_ISE_EEE8pop_backEv, symObjAddr: 0x12010, symBinAddr: 0x100018C68, symSize: 0x2C }
  - { offsetInCU: 0x3EF6E, offset: 0x62FD6, size: 0x8, addend: 0x0, symName: __ZNK8nlohmann16json_abi_v3_11_310basic_jsonINSt3__13mapENS2_6vectorENS2_12basic_stringIcNS2_11char_traitsIcEENS2_9allocatorIcEEEEbxydS8_NS0_14adl_serializerENS4_IhNS8_IhEEEEvE8is_arrayEv, symObjAddr: 0x1203C, symBinAddr: 0x100018C94, symSize: 0x24 }
  - { offsetInCU: 0x3EF92, offset: 0x62FFA, size: 0x8, addend: 0x0, symName: __ZNSt3__16vectorIN8nlohmann16json_abi_v3_11_310basic_jsonINS_3mapES0_NS_12basic_stringIcNS_11char_traitsIcEENS_9allocatorIcEEEEbxydS8_NS2_14adl_serializerENS0_IhNS8_IhEEEEvEENS8_ISE_EEE5clearB7v160006Ev, symObjAddr: 0x12060, symBinAddr: 0x100018CB8, symSize: 0x4C }
  - { offsetInCU: 0x3EFC6, offset: 0x6302E, size: 0x8, addend: 0x0, symName: __ZNK8nlohmann16json_abi_v3_11_310basic_jsonINSt3__13mapENS2_6vectorENS2_12basic_stringIcNS2_11char_traitsIcEENS2_9allocatorIcEEEEbxydS8_NS0_14adl_serializerENS4_IhNS8_IhEEEEvE9is_objectEv, symObjAddr: 0x120AC, symBinAddr: 0x100018D04, symSize: 0x24 }
  - { offsetInCU: 0x3EFEA, offset: 0x63052, size: 0x8, addend: 0x0, symName: __ZNSt3__13mapINS_12basic_stringIcNS_11char_traitsIcEENS_9allocatorIcEEEEN8nlohmann16json_abi_v3_11_310basic_jsonIS0_NS_6vectorES6_bxydS4_NS8_14adl_serializerENSA_IhNS4_IhEEEEvEENS_4lessIS6_EENS4_INS_4pairIKS6_SE_EEEEE5clearB7v160006Ev, symObjAddr: 0x120D0, symBinAddr: 0x100018D28, symSize: 0x24 }
  - { offsetInCU: 0x3F00E, offset: 0x63076, size: 0x8, addend: 0x0, symName: __ZNSt3__16vectorIN8nlohmann16json_abi_v3_11_310basic_jsonINS_3mapES0_NS_12basic_stringIcNS_11char_traitsIcEENS_9allocatorIcEEEEbxydS8_NS2_14adl_serializerENS0_IhNS8_IhEEEEvEENS8_ISE_EEED1B7v160006Ev, symObjAddr: 0x120F4, symBinAddr: 0x100018D4C, symSize: 0x2C }
  - { offsetInCU: 0x3F04F, offset: 0x630B7, size: 0x8, addend: 0x0, symName: __ZNSt3__19allocatorINS_3mapINS_12basic_stringIcNS_11char_traitsIcEENS0_IcEEEEN8nlohmann16json_abi_v3_11_310basic_jsonIS1_NS_6vectorES6_bxydS0_NS8_14adl_serializerENSA_IhNS0_IhEEEEvEENS_4lessIS6_EENS0_INS_4pairIKS6_SE_EEEEEEEC1B7v160006Ev, symObjAddr: 0x12120, symBinAddr: 0x100018D78, symSize: 0x2C }
  - { offsetInCU: 0x3F07C, offset: 0x630E4, size: 0x8, addend: 0x0, symName: __ZNSt3__116allocator_traitsINS_9allocatorINS_3mapINS_12basic_stringIcNS_11char_traitsIcEENS1_IcEEEEN8nlohmann16json_abi_v3_11_310basic_jsonIS2_NS_6vectorES7_bxydS1_NS9_14adl_serializerENSB_IhNS1_IhEEEEvEENS_4lessIS7_EENS1_INS_4pairIKS7_SF_EEEEEEEEE7destroyB7v160006ISM_vEEvRSN_PT_, symObjAddr: 0x1214C, symBinAddr: 0x100018DA4, symSize: 0x2C }
  - { offsetInCU: 0x3F0B8, offset: 0x63120, size: 0x8, addend: 0x0, symName: __ZNSt3__116allocator_traitsINS_9allocatorINS_3mapINS_12basic_stringIcNS_11char_traitsIcEENS1_IcEEEEN8nlohmann16json_abi_v3_11_310basic_jsonIS2_NS_6vectorES7_bxydS1_NS9_14adl_serializerENSB_IhNS1_IhEEEEvEENS_4lessIS7_EENS1_INS_4pairIKS7_SF_EEEEEEEEE10deallocateB7v160006ERSN_PSM_m, symObjAddr: 0x12178, symBinAddr: 0x100018DD0, symSize: 0x34 }
  - { offsetInCU: 0x3F112, offset: 0x6317A, size: 0x8, addend: 0x0, symName: __ZNSt3__19allocatorINS_6vectorIN8nlohmann16json_abi_v3_11_310basic_jsonINS_3mapES1_NS_12basic_stringIcNS_11char_traitsIcEENS0_IcEEEEbxydS0_NS3_14adl_serializerENS1_IhNS0_IhEEEEvEENS0_ISE_EEEEEC1B7v160006Ev, symObjAddr: 0x121AC, symBinAddr: 0x100018E04, symSize: 0x2C }
  - { offsetInCU: 0x3F13F, offset: 0x631A7, size: 0x8, addend: 0x0, symName: __ZNSt3__116allocator_traitsINS_9allocatorINS_6vectorIN8nlohmann16json_abi_v3_11_310basic_jsonINS_3mapES2_NS_12basic_stringIcNS_11char_traitsIcEENS1_IcEEEEbxydS1_NS4_14adl_serializerENS2_IhNS1_IhEEEEvEENS1_ISF_EEEEEEE7destroyB7v160006ISH_vEEvRSI_PT_, symObjAddr: 0x121D8, symBinAddr: 0x100018E30, symSize: 0x2C }
  - { offsetInCU: 0x3F17B, offset: 0x631E3, size: 0x8, addend: 0x0, symName: __ZNSt3__116allocator_traitsINS_9allocatorINS_6vectorIN8nlohmann16json_abi_v3_11_310basic_jsonINS_3mapES2_NS_12basic_stringIcNS_11char_traitsIcEENS1_IcEEEEbxydS1_NS4_14adl_serializerENS2_IhNS1_IhEEEEvEENS1_ISF_EEEEEEE10deallocateB7v160006ERSI_PSH_m, symObjAddr: 0x12204, symBinAddr: 0x100018E5C, symSize: 0x34 }
  - { offsetInCU: 0x3F1BC, offset: 0x63224, size: 0x8, addend: 0x0, symName: __ZNSt3__19allocatorINS_12basic_stringIcNS_11char_traitsIcEENS0_IcEEEEEC1B7v160006Ev, symObjAddr: 0x12238, symBinAddr: 0x100018E90, symSize: 0x2C }
  - { offsetInCU: 0x3F202, offset: 0x6326A, size: 0x8, addend: 0x0, symName: __ZNSt3__19allocatorIN8nlohmann16json_abi_v3_11_327byte_container_with_subtypeINS_6vectorIhNS0_IhEEEEEEEC1B7v160006Ev, symObjAddr: 0x12264, symBinAddr: 0x100018EBC, symSize: 0x2C }
  - { offsetInCU: 0x3F22F, offset: 0x63297, size: 0x8, addend: 0x0, symName: __ZNSt3__116allocator_traitsINS_9allocatorIN8nlohmann16json_abi_v3_11_327byte_container_with_subtypeINS_6vectorIhNS1_IhEEEEEEEEE7destroyB7v160006IS8_vEEvRS9_PT_, symObjAddr: 0x12290, symBinAddr: 0x100018EE8, symSize: 0x2C }
  - { offsetInCU: 0x3F26B, offset: 0x632D3, size: 0x8, addend: 0x0, symName: __ZNSt3__116allocator_traitsINS_9allocatorIN8nlohmann16json_abi_v3_11_327byte_container_with_subtypeINS_6vectorIhNS1_IhEEEEEEEEE10deallocateB7v160006ERS9_PS8_m, symObjAddr: 0x122BC, symBinAddr: 0x100018F14, symSize: 0x34 }
  - { offsetInCU: 0x3F2AC, offset: 0x63314, size: 0x8, addend: 0x0, symName: __ZNSt3__16vectorIN8nlohmann16json_abi_v3_11_310basic_jsonINS_3mapES0_NS_12basic_stringIcNS_11char_traitsIcEENS_9allocatorIcEEEEbxydS8_NS2_14adl_serializerENS0_IhNS8_IhEEEEvEENS8_ISE_EEEC2B7v160006Ev, symObjAddr: 0x122F0, symBinAddr: 0x100018F48, symSize: 0x58 }
  - { offsetInCU: 0x3F2D4, offset: 0x6333C, size: 0x8, addend: 0x0, symName: __ZNSt3__117__compressed_pairIPN8nlohmann16json_abi_v3_11_310basic_jsonINS_3mapENS_6vectorENS_12basic_stringIcNS_11char_traitsIcEENS_9allocatorIcEEEEbxydS9_NS2_14adl_serializerENS5_IhNS9_IhEEEEvEENS9_ISF_EEEC1B7v160006IDnNS_18__default_init_tagEEEOT_OT0_, symObjAddr: 0x12348, symBinAddr: 0x100018FA0, symSize: 0x3C }
  - { offsetInCU: 0x3F32A, offset: 0x63392, size: 0x8, addend: 0x0, symName: __ZNSt3__117__compressed_pairIPN8nlohmann16json_abi_v3_11_310basic_jsonINS_3mapENS_6vectorENS_12basic_stringIcNS_11char_traitsIcEENS_9allocatorIcEEEEbxydS9_NS2_14adl_serializerENS5_IhNS9_IhEEEEvEENS9_ISF_EEEC2B7v160006IDnNS_18__default_init_tagEEEOT_OT0_, symObjAddr: 0x12394, symBinAddr: 0x100018FEC, symSize: 0x40 }
  - { offsetInCU: 0x3F380, offset: 0x633E8, size: 0x8, addend: 0x0, symName: __ZNSt3__122__compressed_pair_elemIPN8nlohmann16json_abi_v3_11_310basic_jsonINS_3mapENS_6vectorENS_12basic_stringIcNS_11char_traitsIcEENS_9allocatorIcEEEEbxydS9_NS2_14adl_serializerENS5_IhNS9_IhEEEEvEELi0ELb0EEC2B7v160006IDnvEEOT_, symObjAddr: 0x123D4, symBinAddr: 0x10001902C, symSize: 0x1C }
  - { offsetInCU: 0x3F3C0, offset: 0x63428, size: 0x8, addend: 0x0, symName: __ZNSt3__122__compressed_pair_elemINS_9allocatorIN8nlohmann16json_abi_v3_11_310basic_jsonINS_3mapENS_6vectorENS_12basic_stringIcNS_11char_traitsIcEENS1_IcEEEEbxydS1_NS3_14adl_serializerENS6_IhNS1_IhEEEEvEEEELi1ELb1EEC2B7v160006ENS_18__default_init_tagE, symObjAddr: 0x123F0, symBinAddr: 0x100019048, symSize: 0x2C }
  - { offsetInCU: 0x3F3F2, offset: 0x6345A, size: 0x8, addend: 0x0, symName: __ZNSt3__19allocatorIN8nlohmann16json_abi_v3_11_310basic_jsonINS_3mapENS_6vectorENS_12basic_stringIcNS_11char_traitsIcEENS0_IcEEEEbxydS0_NS2_14adl_serializerENS5_IhNS0_IhEEEEvEEEC2B7v160006Ev, symObjAddr: 0x1241C, symBinAddr: 0x100019074, symSize: 0x2C }
  - { offsetInCU: 0x3F41A, offset: 0x63482, size: 0x8, addend: 0x0, symName: __ZNSt3__116__non_trivial_ifILb1ENS_9allocatorIN8nlohmann16json_abi_v3_11_310basic_jsonINS_3mapENS_6vectorENS_12basic_stringIcNS_11char_traitsIcEENS1_IcEEEEbxydS1_NS3_14adl_serializerENS6_IhNS1_IhEEEEvEEEEEC2B7v160006Ev, symObjAddr: 0x12448, symBinAddr: 0x1000190A0, symSize: 0x14 }
  - { offsetInCU: 0x3F442, offset: 0x634AA, size: 0x8, addend: 0x0, symName: __ZNKSt3__16vectorIN8nlohmann16json_abi_v3_11_310basic_jsonINS_3mapES0_NS_12basic_stringIcNS_11char_traitsIcEENS_9allocatorIcEEEEbxydS8_NS2_14adl_serializerENS0_IhNS8_IhEEEEvEENS8_ISE_EEE8capacityB7v160006Ev, symObjAddr: 0x1245C, symBinAddr: 0x1000190B4, symSize: 0x40 }
  - { offsetInCU: 0x3F466, offset: 0x634CE, size: 0x8, addend: 0x0, symName: __ZNKSt3__16vectorIN8nlohmann16json_abi_v3_11_310basic_jsonINS_3mapES0_NS_12basic_stringIcNS_11char_traitsIcEENS_9allocatorIcEEEEbxydS8_NS2_14adl_serializerENS0_IhNS8_IhEEEEvEENS8_ISE_EEE8max_sizeEv, symObjAddr: 0x1249C, symBinAddr: 0x1000190F4, symSize: 0x60 }
  - { offsetInCU: 0x3F48C, offset: 0x634F4, size: 0x8, addend: 0x0, symName: __ZNKSt3__16vectorIN8nlohmann16json_abi_v3_11_310basic_jsonINS_3mapES0_NS_12basic_stringIcNS_11char_traitsIcEENS_9allocatorIcEEEEbxydS8_NS2_14adl_serializerENS0_IhNS8_IhEEEEvEENS8_ISE_EEE20__throw_length_errorB7v160006Ev, symObjAddr: 0x124FC, symBinAddr: 0x100019154, symSize: 0x1C }
  - { offsetInCU: 0x3F4B0, offset: 0x63518, size: 0x8, addend: 0x0, symName: __ZNSt3__16vectorIN8nlohmann16json_abi_v3_11_310basic_jsonINS_3mapES0_NS_12basic_stringIcNS_11char_traitsIcEENS_9allocatorIcEEEEbxydS8_NS2_14adl_serializerENS0_IhNS8_IhEEEEvEENS8_ISE_EEE7__allocB7v160006Ev, symObjAddr: 0x12518, symBinAddr: 0x100019170, symSize: 0x28 }
  - { offsetInCU: 0x3F4D4, offset: 0x6353C, size: 0x8, addend: 0x0, symName: __ZNSt3__114__split_bufferIN8nlohmann16json_abi_v3_11_310basic_jsonINS_3mapENS_6vectorENS_12basic_stringIcNS_11char_traitsIcEENS_9allocatorIcEEEEbxydS9_NS2_14adl_serializerENS5_IhNS9_IhEEEEvEERNS9_ISF_EEEC1EmmSH_, symObjAddr: 0x12540, symBinAddr: 0x100019198, symSize: 0x44 }
  - { offsetInCU: 0x3F529, offset: 0x63591, size: 0x8, addend: 0x0, symName: __ZNSt3__114__split_bufferIN8nlohmann16json_abi_v3_11_310basic_jsonINS_3mapENS_6vectorENS_12basic_stringIcNS_11char_traitsIcEENS_9allocatorIcEEEEbxydS9_NS2_14adl_serializerENS5_IhNS9_IhEEEEvEERNS9_ISF_EEED1Ev, symObjAddr: 0x1269C, symBinAddr: 0x1000192F4, symSize: 0x2C }
  - { offsetInCU: 0x3F554, offset: 0x635BC, size: 0x8, addend: 0x0, symName: __ZNKSt3__16vectorIN8nlohmann16json_abi_v3_11_310basic_jsonINS_3mapES0_NS_12basic_stringIcNS_11char_traitsIcEENS_9allocatorIcEEEEbxydS8_NS2_14adl_serializerENS0_IhNS8_IhEEEEvEENS8_ISE_EEE9__end_capB7v160006Ev, symObjAddr: 0x126C8, symBinAddr: 0x100019320, symSize: 0x28 }
  - { offsetInCU: 0x3F578, offset: 0x635E0, size: 0x8, addend: 0x0, symName: __ZNKSt3__117__compressed_pairIPN8nlohmann16json_abi_v3_11_310basic_jsonINS_3mapENS_6vectorENS_12basic_stringIcNS_11char_traitsIcEENS_9allocatorIcEEEEbxydS9_NS2_14adl_serializerENS5_IhNS9_IhEEEEvEENS9_ISF_EEE5firstB7v160006Ev, symObjAddr: 0x126F0, symBinAddr: 0x100019348, symSize: 0x24 }
  - { offsetInCU: 0x3F59C, offset: 0x63604, size: 0x8, addend: 0x0, symName: __ZNKSt3__122__compressed_pair_elemIPN8nlohmann16json_abi_v3_11_310basic_jsonINS_3mapENS_6vectorENS_12basic_stringIcNS_11char_traitsIcEENS_9allocatorIcEEEEbxydS9_NS2_14adl_serializerENS5_IhNS9_IhEEEEvEELi0ELb0EE5__getB7v160006Ev, symObjAddr: 0x12714, symBinAddr: 0x10001936C, symSize: 0x14 }
  - { offsetInCU: 0x3F5CA, offset: 0x63632, size: 0x8, addend: 0x0, symName: __ZNSt3__116allocator_traitsINS_9allocatorIN8nlohmann16json_abi_v3_11_310basic_jsonINS_3mapENS_6vectorENS_12basic_stringIcNS_11char_traitsIcEENS1_IcEEEEbxydS1_NS3_14adl_serializerENS6_IhNS1_IhEEEEvEEEEE8max_sizeB7v160006ISG_vEEmRKSG_, symObjAddr: 0x12728, symBinAddr: 0x100019380, symSize: 0x24 }
  - { offsetInCU: 0x3F5F7, offset: 0x6365F, size: 0x8, addend: 0x0, symName: __ZNKSt3__16vectorIN8nlohmann16json_abi_v3_11_310basic_jsonINS_3mapES0_NS_12basic_stringIcNS_11char_traitsIcEENS_9allocatorIcEEEEbxydS8_NS2_14adl_serializerENS0_IhNS8_IhEEEEvEENS8_ISE_EEE7__allocB7v160006Ev, symObjAddr: 0x1274C, symBinAddr: 0x1000193A4, symSize: 0x28 }
  - { offsetInCU: 0x3F61B, offset: 0x63683, size: 0x8, addend: 0x0, symName: __ZNKSt3__19allocatorIN8nlohmann16json_abi_v3_11_310basic_jsonINS_3mapENS_6vectorENS_12basic_stringIcNS_11char_traitsIcEENS0_IcEEEEbxydS0_NS2_14adl_serializerENS5_IhNS0_IhEEEEvEEE8max_sizeB7v160006Ev, symObjAddr: 0x12774, symBinAddr: 0x1000193CC, symSize: 0x14 }
  - { offsetInCU: 0x3F63F, offset: 0x636A7, size: 0x8, addend: 0x0, symName: __ZNKSt3__117__compressed_pairIPN8nlohmann16json_abi_v3_11_310basic_jsonINS_3mapENS_6vectorENS_12basic_stringIcNS_11char_traitsIcEENS_9allocatorIcEEEEbxydS9_NS2_14adl_serializerENS5_IhNS9_IhEEEEvEENS9_ISF_EEE6secondB7v160006Ev, symObjAddr: 0x12788, symBinAddr: 0x1000193E0, symSize: 0x24 }
  - { offsetInCU: 0x3F663, offset: 0x636CB, size: 0x8, addend: 0x0, symName: __ZNKSt3__122__compressed_pair_elemINS_9allocatorIN8nlohmann16json_abi_v3_11_310basic_jsonINS_3mapENS_6vectorENS_12basic_stringIcNS_11char_traitsIcEENS1_IcEEEEbxydS1_NS3_14adl_serializerENS6_IhNS1_IhEEEEvEEEELi1ELb1EE5__getB7v160006Ev, symObjAddr: 0x127AC, symBinAddr: 0x100019404, symSize: 0x14 }
  - { offsetInCU: 0x3F687, offset: 0x636EF, size: 0x8, addend: 0x0, symName: __ZNSt3__117__compressed_pairIPN8nlohmann16json_abi_v3_11_310basic_jsonINS_3mapENS_6vectorENS_12basic_stringIcNS_11char_traitsIcEENS_9allocatorIcEEEEbxydS9_NS2_14adl_serializerENS5_IhNS9_IhEEEEvEENS9_ISF_EEE6secondB7v160006Ev, symObjAddr: 0x127C0, symBinAddr: 0x100019418, symSize: 0x24 }
  - { offsetInCU: 0x3F6AB, offset: 0x63713, size: 0x8, addend: 0x0, symName: __ZNSt3__122__compressed_pair_elemINS_9allocatorIN8nlohmann16json_abi_v3_11_310basic_jsonINS_3mapENS_6vectorENS_12basic_stringIcNS_11char_traitsIcEENS1_IcEEEEbxydS1_NS3_14adl_serializerENS6_IhNS1_IhEEEEvEEEELi1ELb1EE5__getB7v160006Ev, symObjAddr: 0x127E4, symBinAddr: 0x10001943C, symSize: 0x14 }
  - { offsetInCU: 0x3F6CF, offset: 0x63737, size: 0x8, addend: 0x0, symName: __ZNSt3__114__split_bufferIN8nlohmann16json_abi_v3_11_310basic_jsonINS_3mapENS_6vectorENS_12basic_stringIcNS_11char_traitsIcEENS_9allocatorIcEEEEbxydS9_NS2_14adl_serializerENS5_IhNS9_IhEEEEvEERNS9_ISF_EEEC2EmmSH_, symObjAddr: 0x127F8, symBinAddr: 0x100019450, symSize: 0xD4 }
  - { offsetInCU: 0x3F743, offset: 0x637AB, size: 0x8, addend: 0x0, symName: __ZNSt3__117__compressed_pairIPN8nlohmann16json_abi_v3_11_310basic_jsonINS_3mapENS_6vectorENS_12basic_stringIcNS_11char_traitsIcEENS_9allocatorIcEEEEbxydS9_NS2_14adl_serializerENS5_IhNS9_IhEEEEvEERNS9_ISF_EEEC1B7v160006IDnSI_EEOT_OT0_, symObjAddr: 0x128CC, symBinAddr: 0x100019524, symSize: 0x3C }
  - { offsetInCU: 0x3F799, offset: 0x63801, size: 0x8, addend: 0x0, symName: __ZNSt3__114__split_bufferIN8nlohmann16json_abi_v3_11_310basic_jsonINS_3mapENS_6vectorENS_12basic_stringIcNS_11char_traitsIcEENS_9allocatorIcEEEEbxydS9_NS2_14adl_serializerENS5_IhNS9_IhEEEEvEERNS9_ISF_EEE7__allocB7v160006Ev, symObjAddr: 0x12948, symBinAddr: 0x1000195A0, symSize: 0x28 }
  - { offsetInCU: 0x3F7BD, offset: 0x63825, size: 0x8, addend: 0x0, symName: __ZNSt3__114__split_bufferIN8nlohmann16json_abi_v3_11_310basic_jsonINS_3mapENS_6vectorENS_12basic_stringIcNS_11char_traitsIcEENS_9allocatorIcEEEEbxydS9_NS2_14adl_serializerENS5_IhNS9_IhEEEEvEERNS9_ISF_EEE9__end_capB7v160006Ev, symObjAddr: 0x12970, symBinAddr: 0x1000195C8, symSize: 0x28 }
  - { offsetInCU: 0x3F7E1, offset: 0x63849, size: 0x8, addend: 0x0, symName: __ZNSt3__117__compressed_pairIPN8nlohmann16json_abi_v3_11_310basic_jsonINS_3mapENS_6vectorENS_12basic_stringIcNS_11char_traitsIcEENS_9allocatorIcEEEEbxydS9_NS2_14adl_serializerENS5_IhNS9_IhEEEEvEERNS9_ISF_EEEC2B7v160006IDnSI_EEOT_OT0_, symObjAddr: 0x12998, symBinAddr: 0x1000195F0, symSize: 0x48 }
  - { offsetInCU: 0x3F837, offset: 0x6389F, size: 0x8, addend: 0x0, symName: __ZNSt3__122__compressed_pair_elemIRNS_9allocatorIN8nlohmann16json_abi_v3_11_310basic_jsonINS_3mapENS_6vectorENS_12basic_stringIcNS_11char_traitsIcEENS1_IcEEEEbxydS1_NS3_14adl_serializerENS6_IhNS1_IhEEEEvEEEELi1ELb0EEC2B7v160006ISH_vEEOT_, symObjAddr: 0x129E0, symBinAddr: 0x100019638, symSize: 0x20 }
  - { offsetInCU: 0x3F877, offset: 0x638DF, size: 0x8, addend: 0x0, symName: __ZNSt3__19allocatorIN8nlohmann16json_abi_v3_11_310basic_jsonINS_3mapENS_6vectorENS_12basic_stringIcNS_11char_traitsIcEENS0_IcEEEEbxydS0_NS2_14adl_serializerENS5_IhNS0_IhEEEEvEEE8allocateB7v160006Em, symObjAddr: 0x12A00, symBinAddr: 0x100019658, symSize: 0x58 }
  - { offsetInCU: 0x3F8A9, offset: 0x63911, size: 0x8, addend: 0x0, symName: __ZNSt3__117__compressed_pairIPN8nlohmann16json_abi_v3_11_310basic_jsonINS_3mapENS_6vectorENS_12basic_stringIcNS_11char_traitsIcEENS_9allocatorIcEEEEbxydS9_NS2_14adl_serializerENS5_IhNS9_IhEEEEvEERNS9_ISF_EEE6secondB7v160006Ev, symObjAddr: 0x12A58, symBinAddr: 0x1000196B0, symSize: 0x28 }
  - { offsetInCU: 0x3F8CD, offset: 0x63935, size: 0x8, addend: 0x0, symName: __ZNSt3__122__compressed_pair_elemIRNS_9allocatorIN8nlohmann16json_abi_v3_11_310basic_jsonINS_3mapENS_6vectorENS_12basic_stringIcNS_11char_traitsIcEENS1_IcEEEEbxydS1_NS3_14adl_serializerENS6_IhNS1_IhEEEEvEEEELi1ELb0EE5__getB7v160006Ev, symObjAddr: 0x12A80, symBinAddr: 0x1000196D8, symSize: 0x18 }
  - { offsetInCU: 0x3F8F1, offset: 0x63959, size: 0x8, addend: 0x0, symName: __ZNSt3__117__compressed_pairIPN8nlohmann16json_abi_v3_11_310basic_jsonINS_3mapENS_6vectorENS_12basic_stringIcNS_11char_traitsIcEENS_9allocatorIcEEEEbxydS9_NS2_14adl_serializerENS5_IhNS9_IhEEEEvEERNS9_ISF_EEE5firstB7v160006Ev, symObjAddr: 0x12A98, symBinAddr: 0x1000196F0, symSize: 0x24 }
  - { offsetInCU: 0x3F915, offset: 0x6397D, size: 0x8, addend: 0x0, symName: __ZNSt3__122__compressed_pair_elemIPN8nlohmann16json_abi_v3_11_310basic_jsonINS_3mapENS_6vectorENS_12basic_stringIcNS_11char_traitsIcEENS_9allocatorIcEEEEbxydS9_NS2_14adl_serializerENS5_IhNS9_IhEEEEvEELi0ELb0EE5__getB7v160006Ev, symObjAddr: 0x12ABC, symBinAddr: 0x100019714, symSize: 0x14 }
  - { offsetInCU: 0x3F939, offset: 0x639A1, size: 0x8, addend: 0x0, symName: __ZNKSt3__16vectorIN8nlohmann16json_abi_v3_11_310basic_jsonINS_3mapES0_NS_12basic_stringIcNS_11char_traitsIcEENS_9allocatorIcEEEEbxydS8_NS2_14adl_serializerENS0_IhNS8_IhEEEEvEENS8_ISE_EEE17__annotate_deleteB7v160006Ev, symObjAddr: 0x12AD0, symBinAddr: 0x100019728, symSize: 0xB8 }
  - { offsetInCU: 0x3F95D, offset: 0x639C5, size: 0x8, addend: 0x0, symName: __ZNSt3__116reverse_iteratorIPN8nlohmann16json_abi_v3_11_310basic_jsonINS_3mapENS_6vectorENS_12basic_stringIcNS_11char_traitsIcEENS_9allocatorIcEEEEbxydS9_NS2_14adl_serializerENS5_IhNS9_IhEEEEvEEEC1B7v160006ESG_, symObjAddr: 0x12CB4, symBinAddr: 0x10001990C, symSize: 0x34 }
  - { offsetInCU: 0x3F993, offset: 0x639FB, size: 0x8, addend: 0x0, symName: __ZNKSt3__116reverse_iteratorIPN8nlohmann16json_abi_v3_11_310basic_jsonINS_3mapENS_6vectorENS_12basic_stringIcNS_11char_traitsIcEENS_9allocatorIcEEEEbxydS9_NS2_14adl_serializerENS5_IhNS9_IhEEEEvEEE4baseB7v160006Ev, symObjAddr: 0x12CE8, symBinAddr: 0x100019940, symSize: 0x18 }
  - { offsetInCU: 0x3F9B7, offset: 0x63A1F, size: 0x8, addend: 0x0, symName: __ZNSt3__16vectorIN8nlohmann16json_abi_v3_11_310basic_jsonINS_3mapES0_NS_12basic_stringIcNS_11char_traitsIcEENS_9allocatorIcEEEEbxydS8_NS2_14adl_serializerENS0_IhNS8_IhEEEEvEENS8_ISE_EEE9__end_capB7v160006Ev, symObjAddr: 0x12D3C, symBinAddr: 0x100019994, symSize: 0x28 }
  - { offsetInCU: 0x3F9DB, offset: 0x63A43, size: 0x8, addend: 0x0, symName: __ZNKSt3__16vectorIN8nlohmann16json_abi_v3_11_310basic_jsonINS_3mapES0_NS_12basic_stringIcNS_11char_traitsIcEENS_9allocatorIcEEEEbxydS8_NS2_14adl_serializerENS0_IhNS8_IhEEEEvEENS8_ISE_EEE14__annotate_newB7v160006Em, symObjAddr: 0x12D64, symBinAddr: 0x1000199BC, symSize: 0xAC }
  - { offsetInCU: 0x3FA0E, offset: 0x63A76, size: 0x8, addend: 0x0, symName: __ZNKSt3__16vectorIN8nlohmann16json_abi_v3_11_310basic_jsonINS_3mapES0_NS_12basic_stringIcNS_11char_traitsIcEENS_9allocatorIcEEEEbxydS8_NS2_14adl_serializerENS0_IhNS8_IhEEEEvEENS8_ISE_EEE31__annotate_contiguous_containerB7v160006EPKvSI_SI_SI_, symObjAddr: 0x12E20, symBinAddr: 0x100019A78, symSize: 0x20 }
  - { offsetInCU: 0x3FA5E, offset: 0x63AC6, size: 0x8, addend: 0x0, symName: __ZNKSt3__16vectorIN8nlohmann16json_abi_v3_11_310basic_jsonINS_3mapES0_NS_12basic_stringIcNS_11char_traitsIcEENS_9allocatorIcEEEEbxydS8_NS2_14adl_serializerENS0_IhNS8_IhEEEEvEENS8_ISE_EEE4dataB7v160006Ev, symObjAddr: 0x12E40, symBinAddr: 0x100019A98, symSize: 0x28 }
  - { offsetInCU: 0x3FA82, offset: 0x63AEA, size: 0x8, addend: 0x0, symName: __ZNSt3__129_AllocatorDestroyRangeReverseINS_9allocatorIN8nlohmann16json_abi_v3_11_310basic_jsonINS_3mapENS_6vectorENS_12basic_stringIcNS_11char_traitsIcEENS1_IcEEEEbxydS1_NS3_14adl_serializerENS6_IhNS1_IhEEEEvEEEENS_16reverse_iteratorIPSF_EEEC1B7v160006ERSG_RSJ_SM_, symObjAddr: 0x12EC8, symBinAddr: 0x100019B20, symSize: 0x44 }
  - { offsetInCU: 0x3FAD7, offset: 0x63B3F, size: 0x8, addend: 0x0, symName: __ZNSt3__116allocator_traitsINS_9allocatorIN8nlohmann16json_abi_v3_11_310basic_jsonINS_3mapENS_6vectorENS_12basic_stringIcNS_11char_traitsIcEENS1_IcEEEEbxydS1_NS3_14adl_serializerENS6_IhNS1_IhEEEEvEEEEE9constructB7v160006ISF_JSF_EvEEvRSG_PT_DpOT0_, symObjAddr: 0x12F54, symBinAddr: 0x100019BAC, symSize: 0x34 }
  - { offsetInCU: 0x3FB2D, offset: 0x63B95, size: 0x8, addend: 0x0, symName: __ZNKSt3__116reverse_iteratorIPN8nlohmann16json_abi_v3_11_310basic_jsonINS_3mapENS_6vectorENS_12basic_stringIcNS_11char_traitsIcEENS_9allocatorIcEEEEbxydS9_NS2_14adl_serializerENS5_IhNS9_IhEEEEvEEEdeB7v160006Ev, symObjAddr: 0x12FAC, symBinAddr: 0x100019C04, symSize: 0x28 }
  - { offsetInCU: 0x3FB5F, offset: 0x63BC7, size: 0x8, addend: 0x0, symName: __ZNSt3__116reverse_iteratorIPN8nlohmann16json_abi_v3_11_310basic_jsonINS_3mapENS_6vectorENS_12basic_stringIcNS_11char_traitsIcEENS_9allocatorIcEEEEbxydS9_NS2_14adl_serializerENS5_IhNS9_IhEEEEvEEEppB7v160006Ev, symObjAddr: 0x12FD4, symBinAddr: 0x100019C2C, symSize: 0x20 }
  - { offsetInCU: 0x3FB83, offset: 0x63BEB, size: 0x8, addend: 0x0, symName: __ZNSt3__128__exception_guard_exceptionsINS_29_AllocatorDestroyRangeReverseINS_9allocatorIN8nlohmann16json_abi_v3_11_310basic_jsonINS_3mapENS_6vectorENS_12basic_stringIcNS_11char_traitsIcEENS2_IcEEEEbxydS2_NS4_14adl_serializerENS7_IhNS2_IhEEEEvEEEENS_16reverse_iteratorIPSG_EEEEE10__completeB7v160006Ev, symObjAddr: 0x12FF4, symBinAddr: 0x100019C4C, symSize: 0x1C }
  - { offsetInCU: 0x3FBA7, offset: 0x63C0F, size: 0x8, addend: 0x0, symName: __ZNSt3__128__exception_guard_exceptionsINS_29_AllocatorDestroyRangeReverseINS_9allocatorIN8nlohmann16json_abi_v3_11_310basic_jsonINS_3mapENS_6vectorENS_12basic_stringIcNS_11char_traitsIcEENS2_IcEEEEbxydS2_NS4_14adl_serializerENS7_IhNS2_IhEEEEvEEEENS_16reverse_iteratorIPSG_EEEEED1B7v160006Ev, symObjAddr: 0x13010, symBinAddr: 0x100019C68, symSize: 0x2C }
  - { offsetInCU: 0x3FBCF, offset: 0x63C37, size: 0x8, addend: 0x0, symName: __ZNSt3__128__exception_guard_exceptionsINS_29_AllocatorDestroyRangeReverseINS_9allocatorIN8nlohmann16json_abi_v3_11_310basic_jsonINS_3mapENS_6vectorENS_12basic_stringIcNS_11char_traitsIcEENS2_IcEEEEbxydS2_NS4_14adl_serializerENS7_IhNS2_IhEEEEvEEEENS_16reverse_iteratorIPSG_EEEEEC1B7v160006ESL_, symObjAddr: 0x1303C, symBinAddr: 0x100019C94, symSize: 0x34 }
  - { offsetInCU: 0x3FC06, offset: 0x63C6E, size: 0x8, addend: 0x0, symName: __ZNSt3__128__exception_guard_exceptionsINS_29_AllocatorDestroyRangeReverseINS_9allocatorIN8nlohmann16json_abi_v3_11_310basic_jsonINS_3mapENS_6vectorENS_12basic_stringIcNS_11char_traitsIcEENS2_IcEEEEbxydS2_NS4_14adl_serializerENS7_IhNS2_IhEEEEvEEEENS_16reverse_iteratorIPSG_EEEEEC2B7v160006ESL_, symObjAddr: 0x13070, symBinAddr: 0x100019CC8, symSize: 0x30 }
  - { offsetInCU: 0x3FC3D, offset: 0x63CA5, size: 0x8, addend: 0x0, symName: __ZNSt3__129_AllocatorDestroyRangeReverseINS_9allocatorIN8nlohmann16json_abi_v3_11_310basic_jsonINS_3mapENS_6vectorENS_12basic_stringIcNS_11char_traitsIcEENS1_IcEEEEbxydS1_NS3_14adl_serializerENS6_IhNS1_IhEEEEvEEEENS_16reverse_iteratorIPSF_EEEC2B7v160006ERSG_RSJ_SM_, symObjAddr: 0x130A0, symBinAddr: 0x100019CF8, symSize: 0x38 }
  - { offsetInCU: 0x3FC92, offset: 0x63CFA, size: 0x8, addend: 0x0, symName: __ZNSt3__19allocatorIN8nlohmann16json_abi_v3_11_310basic_jsonINS_3mapENS_6vectorENS_12basic_stringIcNS_11char_traitsIcEENS0_IcEEEEbxydS0_NS2_14adl_serializerENS5_IhNS0_IhEEEEvEEE9constructB7v160006ISE_JSE_EEEvPT_DpOT0_, symObjAddr: 0x130D8, symBinAddr: 0x100019D30, symSize: 0x30 }
  - { offsetInCU: 0x3FCEB, offset: 0x63D53, size: 0x8, addend: 0x0, symName: __ZNSt3__119__to_address_helperINS_16reverse_iteratorIPN8nlohmann16json_abi_v3_11_310basic_jsonINS_3mapENS_6vectorENS_12basic_stringIcNS_11char_traitsIcEENS_9allocatorIcEEEEbxydSA_NS3_14adl_serializerENS6_IhNSA_IhEEEEvEEEEvE6__callB7v160006ERKSI_, symObjAddr: 0x13108, symBinAddr: 0x100019D60, symSize: 0x38 }
  - { offsetInCU: 0x3FD0D, offset: 0x63D75, size: 0x8, addend: 0x0, symName: __ZNKSt3__116reverse_iteratorIPN8nlohmann16json_abi_v3_11_310basic_jsonINS_3mapENS_6vectorENS_12basic_stringIcNS_11char_traitsIcEENS_9allocatorIcEEEEbxydS9_NS2_14adl_serializerENS5_IhNS9_IhEEEEvEEEptB7v160006Ev, symObjAddr: 0x13140, symBinAddr: 0x100019D98, symSize: 0x24 }
  - { offsetInCU: 0x3FD31, offset: 0x63D99, size: 0x8, addend: 0x0, symName: __ZNSt3__128__exception_guard_exceptionsINS_29_AllocatorDestroyRangeReverseINS_9allocatorIN8nlohmann16json_abi_v3_11_310basic_jsonINS_3mapENS_6vectorENS_12basic_stringIcNS_11char_traitsIcEENS2_IcEEEEbxydS2_NS4_14adl_serializerENS7_IhNS2_IhEEEEvEEEENS_16reverse_iteratorIPSG_EEEEED2B7v160006Ev, symObjAddr: 0x13164, symBinAddr: 0x100019DBC, symSize: 0x50 }
  - { offsetInCU: 0x3FD59, offset: 0x63DC1, size: 0x8, addend: 0x0, symName: __ZNKSt3__129_AllocatorDestroyRangeReverseINS_9allocatorIN8nlohmann16json_abi_v3_11_310basic_jsonINS_3mapENS_6vectorENS_12basic_stringIcNS_11char_traitsIcEENS1_IcEEEEbxydS1_NS3_14adl_serializerENS6_IhNS1_IhEEEEvEEEENS_16reverse_iteratorIPSF_EEEclB7v160006Ev, symObjAddr: 0x131B4, symBinAddr: 0x100019E0C, symSize: 0xB4 }
  - { offsetInCU: 0x3FD7E, offset: 0x63DE6, size: 0x8, addend: 0x0, symName: __ZNSt3__116reverse_iteratorINS0_IPN8nlohmann16json_abi_v3_11_310basic_jsonINS_3mapENS_6vectorENS_12basic_stringIcNS_11char_traitsIcEENS_9allocatorIcEEEEbxydS9_NS2_14adl_serializerENS5_IhNS9_IhEEEEvEEEEEC1B7v160006ESH_, symObjAddr: 0x132D8, symBinAddr: 0x100019F30, symSize: 0x3C }
  - { offsetInCU: 0x3FDB4, offset: 0x63E1C, size: 0x8, addend: 0x0, symName: __ZNSt3__116allocator_traitsINS_9allocatorIN8nlohmann16json_abi_v3_11_310basic_jsonINS_3mapENS_6vectorENS_12basic_stringIcNS_11char_traitsIcEENS1_IcEEEEbxydS1_NS3_14adl_serializerENS6_IhNS1_IhEEEEvEEEEE7destroyB7v160006ISF_vEEvRSG_PT_, symObjAddr: 0x13374, symBinAddr: 0x100019FCC, symSize: 0x2C }
  - { offsetInCU: 0x3FDF0, offset: 0x63E58, size: 0x8, addend: 0x0, symName: __ZNSt3__116reverse_iteratorINS0_IPN8nlohmann16json_abi_v3_11_310basic_jsonINS_3mapENS_6vectorENS_12basic_stringIcNS_11char_traitsIcEENS_9allocatorIcEEEEbxydS9_NS2_14adl_serializerENS5_IhNS9_IhEEEEvEEEEEppB7v160006Ev, symObjAddr: 0x133C4, symBinAddr: 0x10001A01C, symSize: 0x30 }
  - { offsetInCU: 0x3FE14, offset: 0x63E7C, size: 0x8, addend: 0x0, symName: __ZNKSt3__116reverse_iteratorINS0_IPN8nlohmann16json_abi_v3_11_310basic_jsonINS_3mapENS_6vectorENS_12basic_stringIcNS_11char_traitsIcEENS_9allocatorIcEEEEbxydS9_NS2_14adl_serializerENS5_IhNS9_IhEEEEvEEEEE4baseB7v160006Ev, symObjAddr: 0x133F4, symBinAddr: 0x10001A04C, symSize: 0x24 }
  - { offsetInCU: 0x3FE38, offset: 0x63EA0, size: 0x8, addend: 0x0, symName: __ZNSt3__19allocatorIN8nlohmann16json_abi_v3_11_310basic_jsonINS_3mapENS_6vectorENS_12basic_stringIcNS_11char_traitsIcEENS0_IcEEEEbxydS0_NS2_14adl_serializerENS5_IhNS0_IhEEEEvEEE7destroyB7v160006EPSE_, symObjAddr: 0x13418, symBinAddr: 0x10001A070, symSize: 0x28 }
  - { offsetInCU: 0x3FE6F, offset: 0x63ED7, size: 0x8, addend: 0x0, symName: __ZNSt3__119__to_address_helperINS_16reverse_iteratorINS1_IPN8nlohmann16json_abi_v3_11_310basic_jsonINS_3mapENS_6vectorENS_12basic_stringIcNS_11char_traitsIcEENS_9allocatorIcEEEEbxydSA_NS3_14adl_serializerENS6_IhNSA_IhEEEEvEEEEEEvE6__callB7v160006ERKSJ_, symObjAddr: 0x13440, symBinAddr: 0x10001A098, symSize: 0x38 }
  - { offsetInCU: 0x3FE91, offset: 0x63EF9, size: 0x8, addend: 0x0, symName: __ZNKSt3__116reverse_iteratorINS0_IPN8nlohmann16json_abi_v3_11_310basic_jsonINS_3mapENS_6vectorENS_12basic_stringIcNS_11char_traitsIcEENS_9allocatorIcEEEEbxydS9_NS2_14adl_serializerENS5_IhNS9_IhEEEEvEEEEEptB7v160006Ev, symObjAddr: 0x13478, symBinAddr: 0x10001A0D0, symSize: 0x24 }
  - { offsetInCU: 0x3FEB5, offset: 0x63F1D, size: 0x8, addend: 0x0, symName: __ZNKSt3__116reverse_iteratorINS0_IPN8nlohmann16json_abi_v3_11_310basic_jsonINS_3mapENS_6vectorENS_12basic_stringIcNS_11char_traitsIcEENS_9allocatorIcEEEEbxydS9_NS2_14adl_serializerENS5_IhNS9_IhEEEEvEEEEEdeB7v160006Ev, symObjAddr: 0x1349C, symBinAddr: 0x10001A0F4, symSize: 0x34 }
  - { offsetInCU: 0x3FEE7, offset: 0x63F4F, size: 0x8, addend: 0x0, symName: __ZNSt3__116reverse_iteratorIPN8nlohmann16json_abi_v3_11_310basic_jsonINS_3mapENS_6vectorENS_12basic_stringIcNS_11char_traitsIcEENS_9allocatorIcEEEEbxydS9_NS2_14adl_serializerENS5_IhNS9_IhEEEEvEEEmmB7v160006Ev, symObjAddr: 0x134D0, symBinAddr: 0x10001A128, symSize: 0x20 }
  - { offsetInCU: 0x3FF0B, offset: 0x63F73, size: 0x8, addend: 0x0, symName: __ZNSt3__116reverse_iteratorINS0_IPN8nlohmann16json_abi_v3_11_310basic_jsonINS_3mapENS_6vectorENS_12basic_stringIcNS_11char_traitsIcEENS_9allocatorIcEEEEbxydS9_NS2_14adl_serializerENS5_IhNS9_IhEEEEvEEEEEC2B7v160006ESH_, symObjAddr: 0x134F0, symBinAddr: 0x10001A148, symSize: 0x2C }
  - { offsetInCU: 0x3FF41, offset: 0x63FA9, size: 0x8, addend: 0x0, symName: __ZNSt3__116reverse_iteratorIPN8nlohmann16json_abi_v3_11_310basic_jsonINS_3mapENS_6vectorENS_12basic_stringIcNS_11char_traitsIcEENS_9allocatorIcEEEEbxydS9_NS2_14adl_serializerENS5_IhNS9_IhEEEEvEEEC2B7v160006ESG_, symObjAddr: 0x1351C, symBinAddr: 0x10001A174, symSize: 0x28 }
  - { offsetInCU: 0x3FF77, offset: 0x63FDF, size: 0x8, addend: 0x0, symName: __ZNSt3__117__compressed_pairIPN8nlohmann16json_abi_v3_11_310basic_jsonINS_3mapENS_6vectorENS_12basic_stringIcNS_11char_traitsIcEENS_9allocatorIcEEEEbxydS9_NS2_14adl_serializerENS5_IhNS9_IhEEEEvEENS9_ISF_EEE5firstB7v160006Ev, symObjAddr: 0x13544, symBinAddr: 0x10001A19C, symSize: 0x24 }
  - { offsetInCU: 0x3FF9B, offset: 0x64003, size: 0x8, addend: 0x0, symName: __ZNSt3__114__split_bufferIN8nlohmann16json_abi_v3_11_310basic_jsonINS_3mapENS_6vectorENS_12basic_stringIcNS_11char_traitsIcEENS_9allocatorIcEEEEbxydS9_NS2_14adl_serializerENS5_IhNS9_IhEEEEvEERNS9_ISF_EEED2Ev, symObjAddr: 0x13568, symBinAddr: 0x10001A1C0, symSize: 0x8C }
  - { offsetInCU: 0x3FFC6, offset: 0x6402E, size: 0x8, addend: 0x0, symName: __ZNSt3__114__split_bufferIN8nlohmann16json_abi_v3_11_310basic_jsonINS_3mapENS_6vectorENS_12basic_stringIcNS_11char_traitsIcEENS_9allocatorIcEEEEbxydS9_NS2_14adl_serializerENS5_IhNS9_IhEEEEvEERNS9_ISF_EEE5clearB7v160006Ev, symObjAddr: 0x135F4, symBinAddr: 0x10001A24C, symSize: 0x28 }
  - { offsetInCU: 0x3FFEA, offset: 0x64052, size: 0x8, addend: 0x0, symName: __ZNSt3__116allocator_traitsINS_9allocatorIN8nlohmann16json_abi_v3_11_310basic_jsonINS_3mapENS_6vectorENS_12basic_stringIcNS_11char_traitsIcEENS1_IcEEEEbxydS1_NS3_14adl_serializerENS6_IhNS1_IhEEEEvEEEEE10deallocateB7v160006ERSG_PSF_m, symObjAddr: 0x1361C, symBinAddr: 0x10001A274, symSize: 0x34 }
  - { offsetInCU: 0x4002B, offset: 0x64093, size: 0x8, addend: 0x0, symName: __ZNKSt3__114__split_bufferIN8nlohmann16json_abi_v3_11_310basic_jsonINS_3mapENS_6vectorENS_12basic_stringIcNS_11char_traitsIcEENS_9allocatorIcEEEEbxydS9_NS2_14adl_serializerENS5_IhNS9_IhEEEEvEERNS9_ISF_EEE8capacityB7v160006Ev, symObjAddr: 0x13650, symBinAddr: 0x10001A2A8, symSize: 0x40 }
  - { offsetInCU: 0x4004F, offset: 0x640B7, size: 0x8, addend: 0x0, symName: __ZNSt3__114__split_bufferIN8nlohmann16json_abi_v3_11_310basic_jsonINS_3mapENS_6vectorENS_12basic_stringIcNS_11char_traitsIcEENS_9allocatorIcEEEEbxydS9_NS2_14adl_serializerENS5_IhNS9_IhEEEEvEERNS9_ISF_EEE17__destruct_at_endB7v160006EPSF_, symObjAddr: 0x13690, symBinAddr: 0x10001A2E8, symSize: 0x2C }
  - { offsetInCU: 0x40081, offset: 0x640E9, size: 0x8, addend: 0x0, symName: __ZNSt3__114__split_bufferIN8nlohmann16json_abi_v3_11_310basic_jsonINS_3mapENS_6vectorENS_12basic_stringIcNS_11char_traitsIcEENS_9allocatorIcEEEEbxydS9_NS2_14adl_serializerENS5_IhNS9_IhEEEEvEERNS9_ISF_EEE17__destruct_at_endB7v160006EPSF_NS_17integral_constantIbLb0EEE, symObjAddr: 0x136BC, symBinAddr: 0x10001A314, symSize: 0x80 }
  - { offsetInCU: 0x400BF, offset: 0x64127, size: 0x8, addend: 0x0, symName: __ZNSt3__19allocatorIN8nlohmann16json_abi_v3_11_310basic_jsonINS_3mapENS_6vectorENS_12basic_stringIcNS_11char_traitsIcEENS0_IcEEEEbxydS0_NS2_14adl_serializerENS5_IhNS0_IhEEEEvEEE10deallocateB7v160006EPSE_m, symObjAddr: 0x1373C, symBinAddr: 0x10001A394, symSize: 0x40 }
  - { offsetInCU: 0x400FF, offset: 0x64167, size: 0x8, addend: 0x0, symName: __ZNKSt3__114__split_bufferIN8nlohmann16json_abi_v3_11_310basic_jsonINS_3mapENS_6vectorENS_12basic_stringIcNS_11char_traitsIcEENS_9allocatorIcEEEEbxydS9_NS2_14adl_serializerENS5_IhNS9_IhEEEEvEERNS9_ISF_EEE9__end_capB7v160006Ev, symObjAddr: 0x1377C, symBinAddr: 0x10001A3D4, symSize: 0x28 }
  - { offsetInCU: 0x40123, offset: 0x6418B, size: 0x8, addend: 0x0, symName: __ZNKSt3__117__compressed_pairIPN8nlohmann16json_abi_v3_11_310basic_jsonINS_3mapENS_6vectorENS_12basic_stringIcNS_11char_traitsIcEENS_9allocatorIcEEEEbxydS9_NS2_14adl_serializerENS5_IhNS9_IhEEEEvEERNS9_ISF_EEE5firstB7v160006Ev, symObjAddr: 0x137A4, symBinAddr: 0x10001A3FC, symSize: 0x24 }
  - { offsetInCU: 0x4016A, offset: 0x641D2, size: 0x8, addend: 0x0, symName: __ZNKSt3__111__move_loopINS_17_ClassicAlgPolicyEEclB7v160006IPN8nlohmann16json_abi_v3_11_310basic_jsonINS_3mapENS_6vectorENS_12basic_stringIcNS_11char_traitsIcEENS_9allocatorIcEEEEbxydSC_NS5_14adl_serializerENS8_IhNSC_IhEEEEvEESJ_NS_20back_insert_iteratorINS8_ISI_NSC_ISI_EEEEEEEENS_4pairIT_T1_EESP_T0_SQ_, symObjAddr: 0x139D8, symBinAddr: 0x10001A630, symSize: 0x98 }
  - { offsetInCU: 0x401F1, offset: 0x64259, size: 0x8, addend: 0x0, symName: __ZNSt3__14pairIPN8nlohmann16json_abi_v3_11_310basic_jsonINS_3mapENS_6vectorENS_12basic_stringIcNS_11char_traitsIcEENS_9allocatorIcEEEEbxydS9_NS2_14adl_serializerENS5_IhNS9_IhEEEEvEESG_EC1B7v160006ISG_SG_LPv0EEEOT_OT0_, symObjAddr: 0x13BD0, symBinAddr: 0x10001A828, symSize: 0x3C }
  - { offsetInCU: 0x4024E, offset: 0x642B6, size: 0x8, addend: 0x0, symName: __ZNSt3__14pairIPN8nlohmann16json_abi_v3_11_310basic_jsonINS_3mapENS_6vectorENS_12basic_stringIcNS_11char_traitsIcEENS_9allocatorIcEEEEbxydS9_NS2_14adl_serializerENS5_IhNS9_IhEEEEvEESG_EC2B7v160006ISG_SG_LPv0EEEOT_OT0_, symObjAddr: 0x13C0C, symBinAddr: 0x10001A864, symSize: 0x34 }
  - { offsetInCU: 0x402AB, offset: 0x64313, size: 0x8, addend: 0x0, symName: __ZNSt3__118__unwrap_iter_implINS_11__wrap_iterIPN8nlohmann16json_abi_v3_11_310basic_jsonINS_3mapENS_6vectorENS_12basic_stringIcNS_11char_traitsIcEENS_9allocatorIcEEEEbxydSA_NS3_14adl_serializerENS6_IhNSA_IhEEEEvEEEELb1EE8__unwrapB7v160006ESI_, symObjAddr: 0x13C40, symBinAddr: 0x10001A898, symSize: 0x28 }
  - { offsetInCU: 0x402D7, offset: 0x6433F, size: 0x8, addend: 0x0, symName: __ZNSt3__119__to_address_helperINS_11__wrap_iterIPN8nlohmann16json_abi_v3_11_310basic_jsonINS_3mapENS_6vectorENS_12basic_stringIcNS_11char_traitsIcEENS_9allocatorIcEEEEbxydSA_NS3_14adl_serializerENS6_IhNSA_IhEEEEvEEEEvE6__callB7v160006ERKSI_, symObjAddr: 0x13C8C, symBinAddr: 0x10001A8E4, symSize: 0x30 }
  - { offsetInCU: 0x402F9, offset: 0x64361, size: 0x8, addend: 0x0, symName: __ZNSt3__114pointer_traitsINS_11__wrap_iterIPN8nlohmann16json_abi_v3_11_310basic_jsonINS_3mapENS_6vectorENS_12basic_stringIcNS_11char_traitsIcEENS_9allocatorIcEEEEbxydSA_NS3_14adl_serializerENS6_IhNSA_IhEEEEvEEEEE10to_addressB7v160006ESI_, symObjAddr: 0x13CBC, symBinAddr: 0x10001A914, symSize: 0x2C }
  - { offsetInCU: 0x4031C, offset: 0x64384, size: 0x8, addend: 0x0, symName: __ZNKSt3__111__wrap_iterIPN8nlohmann16json_abi_v3_11_310basic_jsonINS_3mapENS_6vectorENS_12basic_stringIcNS_11char_traitsIcEENS_9allocatorIcEEEEbxydS9_NS2_14adl_serializerENS5_IhNS9_IhEEEEvEEE4baseB7v160006Ev, symObjAddr: 0x13CE8, symBinAddr: 0x10001A940, symSize: 0x18 }
  - { offsetInCU: 0x40340, offset: 0x643A8, size: 0x8, addend: 0x0, symName: __ZNSt3__18_IterOpsINS_17_ClassicAlgPolicyEE11__iter_moveB7v160006IRPN8nlohmann16json_abi_v3_11_310basic_jsonINS_3mapENS_6vectorENS_12basic_stringIcNS_11char_traitsIcEENS_9allocatorIcEEEEbxydSC_NS5_14adl_serializerENS8_IhNSC_IhEEEEvEEEENS_9enable_ifIXsr12is_referenceIDTdeclsr3stdE7declvalIRT_EEEEE5valueEDTclsr3stdE4movedeclsr3stdE7declvalISN_EEEEE4typeEOSM_, symObjAddr: 0x13D00, symBinAddr: 0x10001A958, symSize: 0x28 }
  - { offsetInCU: 0x4036B, offset: 0x643D3, size: 0x8, addend: 0x0, symName: __ZNSt3__120back_insert_iteratorINS_6vectorIN8nlohmann16json_abi_v3_11_310basic_jsonINS_3mapES1_NS_12basic_stringIcNS_11char_traitsIcEENS_9allocatorIcEEEEbxydS9_NS3_14adl_serializerENS1_IhNS9_IhEEEEvEENS9_ISF_EEEEEdeB7v160006Ev, symObjAddr: 0x13D28, symBinAddr: 0x10001A980, symSize: 0x14 }
  - { offsetInCU: 0x4038F, offset: 0x643F7, size: 0x8, addend: 0x0, symName: __ZNSt3__120back_insert_iteratorINS_6vectorIN8nlohmann16json_abi_v3_11_310basic_jsonINS_3mapES1_NS_12basic_stringIcNS_11char_traitsIcEENS_9allocatorIcEEEEbxydS9_NS3_14adl_serializerENS1_IhNS9_IhEEEEvEENS9_ISF_EEEEEaSB7v160006EOSF_, symObjAddr: 0x13D3C, symBinAddr: 0x10001A994, symSize: 0x38 }
  - { offsetInCU: 0x403C1, offset: 0x64429, size: 0x8, addend: 0x0, symName: __ZNSt3__120back_insert_iteratorINS_6vectorIN8nlohmann16json_abi_v3_11_310basic_jsonINS_3mapES1_NS_12basic_stringIcNS_11char_traitsIcEENS_9allocatorIcEEEEbxydS9_NS3_14adl_serializerENS1_IhNS9_IhEEEEvEENS9_ISF_EEEEEppB7v160006Ev, symObjAddr: 0x13D74, symBinAddr: 0x10001A9CC, symSize: 0x14 }
  - { offsetInCU: 0x403E5, offset: 0x6444D, size: 0x8, addend: 0x0, symName: __ZNSt3__18_IterOpsINS_17_ClassicAlgPolicyEE25__validate_iter_referenceB7v160006IRPN8nlohmann16json_abi_v3_11_310basic_jsonINS_3mapENS_6vectorENS_12basic_stringIcNS_11char_traitsIcEENS_9allocatorIcEEEEbxydSC_NS5_14adl_serializerENS8_IhNSC_IhEEEEvEEEEvv, symObjAddr: 0x13DC0, symBinAddr: 0x10001AA18, symSize: 0x4 }
  - { offsetInCU: 0x40407, offset: 0x6446F, size: 0x8, addend: 0x0, symName: __ZNSt3__14pairIPN8nlohmann16json_abi_v3_11_310basic_jsonINS_3mapENS_6vectorENS_12basic_stringIcNS_11char_traitsIcEENS_9allocatorIcEEEEbxydS9_NS2_14adl_serializerENS5_IhNS9_IhEEEEvEENS_20back_insert_iteratorINS5_ISF_NS9_ISF_EEEEEEEC1B7v160006ISG_SK_LPv0EEEOT_OT0_, symObjAddr: 0x13DC4, symBinAddr: 0x10001AA1C, symSize: 0x3C }
  - { offsetInCU: 0x40464, offset: 0x644CC, size: 0x8, addend: 0x0, symName: __ZNSt3__14pairIPN8nlohmann16json_abi_v3_11_310basic_jsonINS_3mapENS_6vectorENS_12basic_stringIcNS_11char_traitsIcEENS_9allocatorIcEEEEbxydS9_NS2_14adl_serializerENS5_IhNS9_IhEEEEvEENS_20back_insert_iteratorINS5_ISF_NS9_ISF_EEEEEEEC2B7v160006ISG_SK_LPv0EEEOT_OT0_, symObjAddr: 0x13E00, symBinAddr: 0x10001AA58, symSize: 0x34 }
  - { offsetInCU: 0x404C1, offset: 0x64529, size: 0x8, addend: 0x0, symName: __ZNSt3__118__unwrap_iter_implINS_20back_insert_iteratorINS_6vectorIN8nlohmann16json_abi_v3_11_310basic_jsonINS_3mapES2_NS_12basic_stringIcNS_11char_traitsIcEENS_9allocatorIcEEEEbxydSA_NS4_14adl_serializerENS2_IhNSA_IhEEEEvEENSA_ISG_EEEEEELb0EE8__unwrapB7v160006ESJ_, symObjAddr: 0x13E34, symBinAddr: 0x10001AA8C, symSize: 0x1C }
  - { offsetInCU: 0x40501, offset: 0x64569, size: 0x8, addend: 0x0, symName: __ZNSt3__14pairINS_11__wrap_iterIPN8nlohmann16json_abi_v3_11_310basic_jsonINS_3mapENS_6vectorENS_12basic_stringIcNS_11char_traitsIcEENS_9allocatorIcEEEEbxydSA_NS3_14adl_serializerENS6_IhNSA_IhEEEEvEEEENS_20back_insert_iteratorINS6_ISG_NSA_ISG_EEEEEEEC1B7v160006ISI_SM_LPv0EEEOT_OT0_, symObjAddr: 0x13E50, symBinAddr: 0x10001AAA8, symSize: 0x3C }
  - { offsetInCU: 0x4055E, offset: 0x645C6, size: 0x8, addend: 0x0, symName: __ZNSt3__14pairINS_11__wrap_iterIPN8nlohmann16json_abi_v3_11_310basic_jsonINS_3mapENS_6vectorENS_12basic_stringIcNS_11char_traitsIcEENS_9allocatorIcEEEEbxydSA_NS3_14adl_serializerENS6_IhNSA_IhEEEEvEEEENS_20back_insert_iteratorINS6_ISG_NSA_ISG_EEEEEEEC2B7v160006ISI_SM_LPv0EEEOT_OT0_, symObjAddr: 0x13E8C, symBinAddr: 0x10001AAE4, symSize: 0x34 }
  - { offsetInCU: 0x405BB, offset: 0x64623, size: 0x8, addend: 0x0, symName: __ZNSt3__118__unwrap_iter_implINS_11__wrap_iterIPN8nlohmann16json_abi_v3_11_310basic_jsonINS_3mapENS_6vectorENS_12basic_stringIcNS_11char_traitsIcEENS_9allocatorIcEEEEbxydSA_NS3_14adl_serializerENS6_IhNSA_IhEEEEvEEEELb1EE8__rewrapB7v160006ESI_SH_, symObjAddr: 0x13F0C, symBinAddr: 0x10001AB64, symSize: 0x5C }
  - { offsetInCU: 0x405EB, offset: 0x64653, size: 0x8, addend: 0x0, symName: __ZNKSt3__111__wrap_iterIPN8nlohmann16json_abi_v3_11_310basic_jsonINS_3mapENS_6vectorENS_12basic_stringIcNS_11char_traitsIcEENS_9allocatorIcEEEEbxydS9_NS2_14adl_serializerENS5_IhNS9_IhEEEEvEEEplB7v160006El, symObjAddr: 0x13F68, symBinAddr: 0x10001ABC0, symSize: 0x3C }
  - { offsetInCU: 0x4062B, offset: 0x64693, size: 0x8, addend: 0x0, symName: __ZNSt3__111__wrap_iterIPN8nlohmann16json_abi_v3_11_310basic_jsonINS_3mapENS_6vectorENS_12basic_stringIcNS_11char_traitsIcEENS_9allocatorIcEEEEbxydS9_NS2_14adl_serializerENS5_IhNS9_IhEEEEvEEEpLB7v160006El, symObjAddr: 0x13FA4, symBinAddr: 0x10001ABFC, symSize: 0x28 }
  - { offsetInCU: 0x4065D, offset: 0x646C5, size: 0x8, addend: 0x0, symName: __ZNSt3__118__unwrap_iter_implINS_20back_insert_iteratorINS_6vectorIN8nlohmann16json_abi_v3_11_310basic_jsonINS_3mapES2_NS_12basic_stringIcNS_11char_traitsIcEENS_9allocatorIcEEEEbxydSA_NS4_14adl_serializerENS2_IhNSA_IhEEEEvEENSA_ISG_EEEEEELb0EE8__rewrapB7v160006ESJ_SJ_, symObjAddr: 0x13FCC, symBinAddr: 0x10001AC24, symSize: 0x20 }
  - { offsetInCU: 0x40689, offset: 0x646F1, size: 0x8, addend: 0x0, symName: __ZNSt3__16vectorIN8nlohmann16json_abi_v3_11_310basic_jsonINS_3mapES0_NS_12basic_stringIcNS_11char_traitsIcEENS_9allocatorIcEEEEbxydS8_NS2_14adl_serializerENS0_IhNS8_IhEEEEvEENS8_ISE_EEE11__make_iterB7v160006EPSE_, symObjAddr: 0x13FEC, symBinAddr: 0x10001AC44, symSize: 0x34 }
  - { offsetInCU: 0x406BC, offset: 0x64724, size: 0x8, addend: 0x0, symName: __ZNSt3__111__wrap_iterIPN8nlohmann16json_abi_v3_11_310basic_jsonINS_3mapENS_6vectorENS_12basic_stringIcNS_11char_traitsIcEENS_9allocatorIcEEEEbxydS9_NS2_14adl_serializerENS5_IhNS9_IhEEEEvEEEC1B7v160006EPKvSG_, symObjAddr: 0x14020, symBinAddr: 0x10001AC78, symSize: 0x3C }
  - { offsetInCU: 0x40700, offset: 0x64768, size: 0x8, addend: 0x0, symName: __ZNSt3__111__wrap_iterIPN8nlohmann16json_abi_v3_11_310basic_jsonINS_3mapENS_6vectorENS_12basic_stringIcNS_11char_traitsIcEENS_9allocatorIcEEEEbxydS9_NS2_14adl_serializerENS5_IhNS9_IhEEEEvEEEC2B7v160006EPKvSG_, symObjAddr: 0x1405C, symBinAddr: 0x10001ACB4, symSize: 0x24 }
  - { offsetInCU: 0x40744, offset: 0x647AC, size: 0x8, addend: 0x0, symName: __ZNSt3__120back_insert_iteratorINS_6vectorIN8nlohmann16json_abi_v3_11_310basic_jsonINS_3mapES1_NS_12basic_stringIcNS_11char_traitsIcEENS_9allocatorIcEEEEbxydS9_NS3_14adl_serializerENS1_IhNS9_IhEEEEvEENS9_ISF_EEEEEC1B7v160006ERSH_, symObjAddr: 0x14080, symBinAddr: 0x10001ACD8, symSize: 0x34 }
  - { offsetInCU: 0x4077A, offset: 0x647E2, size: 0x8, addend: 0x0, symName: __ZNSt3__120back_insert_iteratorINS_6vectorIN8nlohmann16json_abi_v3_11_310basic_jsonINS_3mapES1_NS_12basic_stringIcNS_11char_traitsIcEENS_9allocatorIcEEEEbxydS9_NS3_14adl_serializerENS1_IhNS9_IhEEEEvEENS9_ISF_EEEEEC2B7v160006ERSH_, symObjAddr: 0x140B4, symBinAddr: 0x10001AD0C, symSize: 0x20 }
  - { offsetInCU: 0x407B0, offset: 0x64818, size: 0x8, addend: 0x0, symName: __ZNKSt3__16__treeINS_12__value_typeINS_12basic_stringIcNS_11char_traitsIcEENS_9allocatorIcEEEEN8nlohmann16json_abi_v3_11_310basic_jsonINS_3mapENS_6vectorES7_bxydS5_NS9_14adl_serializerENSC_IhNS5_IhEEEEvEEEENS_19__map_value_compareIS7_SH_NS_4lessIS7_EELb1EEENS5_ISH_EEE4sizeB7v160006Ev, symObjAddr: 0x140D4, symBinAddr: 0x10001AD2C, symSize: 0x28 }
  - { offsetInCU: 0x407D4, offset: 0x6483C, size: 0x8, addend: 0x0, symName: __ZNKSt3__117__compressed_pairImNS_19__map_value_compareINS_12basic_stringIcNS_11char_traitsIcEENS_9allocatorIcEEEENS_12__value_typeIS7_N8nlohmann16json_abi_v3_11_310basic_jsonINS_3mapENS_6vectorES7_bxydS5_NSA_14adl_serializerENSD_IhNS5_IhEEEEvEEEENS_4lessIS7_EELb1EEEE5firstB7v160006Ev, symObjAddr: 0x140FC, symBinAddr: 0x10001AD54, symSize: 0x24 }
  - { offsetInCU: 0x407F8, offset: 0x64860, size: 0x8, addend: 0x0, symName: __ZNSt3__16__treeINS_12__value_typeINS_12basic_stringIcNS_11char_traitsIcEENS_9allocatorIcEEEEN8nlohmann16json_abi_v3_11_310basic_jsonINS_3mapENS_6vectorES7_bxydS5_NS9_14adl_serializerENSC_IhNS5_IhEEEEvEEEENS_19__map_value_compareIS7_SH_NS_4lessIS7_EELb1EEENS5_ISH_EEE5beginB7v160006Ev, symObjAddr: 0x14134, symBinAddr: 0x10001AD78, symSize: 0x34 }
  - { offsetInCU: 0x4081C, offset: 0x64884, size: 0x8, addend: 0x0, symName: __ZNSt3__114__map_iteratorINS_15__tree_iteratorINS_12__value_typeINS_12basic_stringIcNS_11char_traitsIcEENS_9allocatorIcEEEEN8nlohmann16json_abi_v3_11_310basic_jsonINS_3mapENS_6vectorES8_bxydS6_NSA_14adl_serializerENSD_IhNS6_IhEEEEvEEEEPNS_11__tree_nodeISI_PvEElEEEC1B7v160006ESN_, symObjAddr: 0x14168, symBinAddr: 0x10001ADAC, symSize: 0x34 }
  - { offsetInCU: 0x40853, offset: 0x648BB, size: 0x8, addend: 0x0, symName: __ZNSt3__16__treeINS_12__value_typeINS_12basic_stringIcNS_11char_traitsIcEENS_9allocatorIcEEEEN8nlohmann16json_abi_v3_11_310basic_jsonINS_3mapENS_6vectorES7_bxydS5_NS9_14adl_serializerENSC_IhNS5_IhEEEEvEEEENS_19__map_value_compareIS7_SH_NS_4lessIS7_EELb1EEENS5_ISH_EEE12__begin_nodeB7v160006Ev, symObjAddr: 0x1419C, symBinAddr: 0x10001ADE0, symSize: 0x14 }
  - { offsetInCU: 0x40877, offset: 0x648DF, size: 0x8, addend: 0x0, symName: __ZNSt3__115__tree_iteratorINS_12__value_typeINS_12basic_stringIcNS_11char_traitsIcEENS_9allocatorIcEEEEN8nlohmann16json_abi_v3_11_310basic_jsonINS_3mapENS_6vectorES7_bxydS5_NS9_14adl_serializerENSC_IhNS5_IhEEEEvEEEEPNS_11__tree_nodeISH_PvEElEC1B7v160006EPNS_15__tree_end_nodeIPNS_16__tree_node_baseISJ_EEEE, symObjAddr: 0x141B0, symBinAddr: 0x10001ADF4, symSize: 0x34 }
  - { offsetInCU: 0x408AE, offset: 0x64916, size: 0x8, addend: 0x0, symName: __ZNSt3__115__tree_iteratorINS_12__value_typeINS_12basic_stringIcNS_11char_traitsIcEENS_9allocatorIcEEEEN8nlohmann16json_abi_v3_11_310basic_jsonINS_3mapENS_6vectorES7_bxydS5_NS9_14adl_serializerENSC_IhNS5_IhEEEEvEEEEPNS_11__tree_nodeISH_PvEElEC2B7v160006EPNS_15__tree_end_nodeIPNS_16__tree_node_baseISJ_EEEE, symObjAddr: 0x141E4, symBinAddr: 0x10001AE28, symSize: 0x20 }
  - { offsetInCU: 0x408E5, offset: 0x6494D, size: 0x8, addend: 0x0, symName: __ZNSt3__114__map_iteratorINS_15__tree_iteratorINS_12__value_typeINS_12basic_stringIcNS_11char_traitsIcEENS_9allocatorIcEEEEN8nlohmann16json_abi_v3_11_310basic_jsonINS_3mapENS_6vectorES8_bxydS6_NSA_14adl_serializerENSD_IhNS6_IhEEEEvEEEEPNS_11__tree_nodeISI_PvEElEEEC2B7v160006ESN_, symObjAddr: 0x14204, symBinAddr: 0x10001AE48, symSize: 0x20 }
  - { offsetInCU: 0x4091C, offset: 0x64984, size: 0x8, addend: 0x0, symName: __ZNSt3__16__treeINS_12__value_typeINS_12basic_stringIcNS_11char_traitsIcEENS_9allocatorIcEEEEN8nlohmann16json_abi_v3_11_310basic_jsonINS_3mapENS_6vectorES7_bxydS5_NS9_14adl_serializerENSC_IhNS5_IhEEEEvEEEENS_19__map_value_compareIS7_SH_NS_4lessIS7_EELb1EEENS5_ISH_EEE3endB7v160006Ev, symObjAddr: 0x14224, symBinAddr: 0x10001AE68, symSize: 0x34 }
  - { offsetInCU: 0x40940, offset: 0x649A8, size: 0x8, addend: 0x0, symName: __ZNSt3__16__treeINS_12__value_typeINS_12basic_stringIcNS_11char_traitsIcEENS_9allocatorIcEEEEN8nlohmann16json_abi_v3_11_310basic_jsonINS_3mapENS_6vectorES7_bxydS5_NS9_14adl_serializerENSC_IhNS5_IhEEEEvEEEENS_19__map_value_compareIS7_SH_NS_4lessIS7_EELb1EEENS5_ISH_EEE10__end_nodeB7v160006Ev, symObjAddr: 0x14258, symBinAddr: 0x10001AE9C, symSize: 0x2C }
  - { offsetInCU: 0x40964, offset: 0x649CC, size: 0x8, addend: 0x0, symName: __ZNSt3__114pointer_traitsIPNS_15__tree_end_nodeIPNS_16__tree_node_baseIPvEEEEE10pointer_toB7v160006ERS6_, symObjAddr: 0x14284, symBinAddr: 0x10001AEC8, symSize: 0x14 }
  - { offsetInCU: 0x40986, offset: 0x649EE, size: 0x8, addend: 0x0, symName: __ZNSt3__117__compressed_pairINS_15__tree_end_nodeIPNS_16__tree_node_baseIPvEEEENS_9allocatorINS_11__tree_nodeINS_12__value_typeINS_12basic_stringIcNS_11char_traitsIcEENS7_IcEEEEN8nlohmann16json_abi_v3_11_310basic_jsonINS_3mapENS_6vectorESE_bxydS7_NSG_14adl_serializerENSJ_IhNS7_IhEEEEvEEEES3_EEEEE5firstB7v160006Ev, symObjAddr: 0x14298, symBinAddr: 0x10001AEDC, symSize: 0x24 }
  - { offsetInCU: 0x409AA, offset: 0x64A12, size: 0x8, addend: 0x0, symName: __ZNSt3__122__compressed_pair_elemINS_15__tree_end_nodeIPNS_16__tree_node_baseIPvEEEELi0ELb0EE5__getB7v160006Ev, symObjAddr: 0x142BC, symBinAddr: 0x10001AF00, symSize: 0x14 }
  - { offsetInCU: 0x409CE, offset: 0x64A36, size: 0x8, addend: 0x0, symName: __ZNKSt3__115__tree_iteratorINS_12__value_typeINS_12basic_stringIcNS_11char_traitsIcEENS_9allocatorIcEEEEN8nlohmann16json_abi_v3_11_310basic_jsonINS_3mapENS_6vectorES7_bxydS5_NS9_14adl_serializerENSC_IhNS5_IhEEEEvEEEEPNS_11__tree_nodeISH_PvEElEptB7v160006Ev, symObjAddr: 0x14334, symBinAddr: 0x10001AF78, symSize: 0x2C }
  - { offsetInCU: 0x409F2, offset: 0x64A5A, size: 0x8, addend: 0x0, symName: __ZNSt3__112__value_typeINS_12basic_stringIcNS_11char_traitsIcEENS_9allocatorIcEEEEN8nlohmann16json_abi_v3_11_310basic_jsonINS_3mapENS_6vectorES6_bxydS4_NS8_14adl_serializerENSB_IhNS4_IhEEEEvEEE11__get_valueB7v160006Ev, symObjAddr: 0x14360, symBinAddr: 0x10001AFA4, symSize: 0x14 }
  - { offsetInCU: 0x40A16, offset: 0x64A7E, size: 0x8, addend: 0x0, symName: __ZNSt3__114pointer_traitsIPNS_12__value_typeINS_12basic_stringIcNS_11char_traitsIcEENS_9allocatorIcEEEEN8nlohmann16json_abi_v3_11_310basic_jsonINS_3mapENS_6vectorES7_bxydS5_NS9_14adl_serializerENSC_IhNS5_IhEEEEvEEEEE10pointer_toB7v160006ERSH_, symObjAddr: 0x14374, symBinAddr: 0x10001AFB8, symSize: 0x14 }
  - { offsetInCU: 0x40A38, offset: 0x64AA0, size: 0x8, addend: 0x0, symName: __ZNKSt3__115__tree_iteratorINS_12__value_typeINS_12basic_stringIcNS_11char_traitsIcEENS_9allocatorIcEEEEN8nlohmann16json_abi_v3_11_310basic_jsonINS_3mapENS_6vectorES7_bxydS5_NS9_14adl_serializerENSC_IhNS5_IhEEEEvEEEEPNS_11__tree_nodeISH_PvEElE8__get_npB7v160006Ev, symObjAddr: 0x14388, symBinAddr: 0x10001AFCC, symSize: 0x18 }
  - { offsetInCU: 0x40A5C, offset: 0x64AC4, size: 0x8, addend: 0x0, symName: __ZNSt3__16vectorIN8nlohmann16json_abi_v3_11_310basic_jsonINS_3mapES0_NS_12basic_stringIcNS_11char_traitsIcEENS_9allocatorIcEEEEbxydS8_NS2_14adl_serializerENS0_IhNS8_IhEEEEvEENS8_ISE_EEE22__construct_one_at_endB7v160006IJSE_EEEvDpOT_, symObjAddr: 0x143A0, symBinAddr: 0x10001AFE4, symSize: 0x90 }
  - { offsetInCU: 0x40AAA, offset: 0x64B12, size: 0x8, addend: 0x0, symName: __ZNSt3__16vectorIN8nlohmann16json_abi_v3_11_310basic_jsonINS_3mapES0_NS_12basic_stringIcNS_11char_traitsIcEENS_9allocatorIcEEEEbxydS8_NS2_14adl_serializerENS0_IhNS8_IhEEEEvEENS8_ISE_EEE21__push_back_slow_pathISE_EEvOT_, symObjAddr: 0x14430, symBinAddr: 0x10001B074, symSize: 0xD8 }
  - { offsetInCU: 0x40B21, offset: 0x64B89, size: 0x8, addend: 0x0, symName: __ZNSt3__16vectorIN8nlohmann16json_abi_v3_11_310basic_jsonINS_3mapES0_NS_12basic_stringIcNS_11char_traitsIcEENS_9allocatorIcEEEEbxydS8_NS2_14adl_serializerENS0_IhNS8_IhEEEEvEENS8_ISE_EEE21_ConstructTransactionC1B7v160006ERSG_m, symObjAddr: 0x14508, symBinAddr: 0x10001B14C, symSize: 0x3C }
  - { offsetInCU: 0x40B67, offset: 0x64BCF, size: 0x8, addend: 0x0, symName: __ZNSt3__16vectorIN8nlohmann16json_abi_v3_11_310basic_jsonINS_3mapES0_NS_12basic_stringIcNS_11char_traitsIcEENS_9allocatorIcEEEEbxydS8_NS2_14adl_serializerENS0_IhNS8_IhEEEEvEENS8_ISE_EEE21_ConstructTransactionD1B7v160006Ev, symObjAddr: 0x14544, symBinAddr: 0x10001B188, symSize: 0x2C }
  - { offsetInCU: 0x40B8F, offset: 0x64BF7, size: 0x8, addend: 0x0, symName: __ZNSt3__16vectorIN8nlohmann16json_abi_v3_11_310basic_jsonINS_3mapES0_NS_12basic_stringIcNS_11char_traitsIcEENS_9allocatorIcEEEEbxydS8_NS2_14adl_serializerENS0_IhNS8_IhEEEEvEENS8_ISE_EEE21_ConstructTransactionC2B7v160006ERSG_m, symObjAddr: 0x14570, symBinAddr: 0x10001B1B4, symSize: 0x44 }
  - { offsetInCU: 0x40BD5, offset: 0x64C3D, size: 0x8, addend: 0x0, symName: __ZNSt3__16vectorIN8nlohmann16json_abi_v3_11_310basic_jsonINS_3mapES0_NS_12basic_stringIcNS_11char_traitsIcEENS_9allocatorIcEEEEbxydS8_NS2_14adl_serializerENS0_IhNS8_IhEEEEvEENS8_ISE_EEE21_ConstructTransactionD2B7v160006Ev, symObjAddr: 0x145B4, symBinAddr: 0x10001B1F8, symSize: 0x20 }
  - { offsetInCU: 0x40BFD, offset: 0x64C65, size: 0x8, addend: 0x0, symName: __ZNKSt3__16vectorIN8nlohmann16json_abi_v3_11_310basic_jsonINS_3mapES0_NS_12basic_stringIcNS_11char_traitsIcEENS_9allocatorIcEEEEbxydS8_NS2_14adl_serializerENS0_IhNS8_IhEEEEvEENS8_ISE_EEE11__recommendB7v160006Em, symObjAddr: 0x145D4, symBinAddr: 0x10001B218, symSize: 0xB4 }
  - { offsetInCU: 0x40C52, offset: 0x64CBA, size: 0x8, addend: 0x0, symName: __ZNSt3__115__tree_iteratorINS_12__value_typeINS_12basic_stringIcNS_11char_traitsIcEENS_9allocatorIcEEEEN8nlohmann16json_abi_v3_11_310basic_jsonINS_3mapENS_6vectorES7_bxydS5_NS9_14adl_serializerENSC_IhNS5_IhEEEEvEEEEPNS_11__tree_nodeISH_PvEElEppB7v160006Ev, symObjAddr: 0x14688, symBinAddr: 0x10001B2CC, symSize: 0x38 }
  - { offsetInCU: 0x40C76, offset: 0x64CDE, size: 0x8, addend: 0x0, symName: __ZNKSt3__116__tree_node_baseIPvE15__parent_unsafeB7v160006Ev, symObjAddr: 0x147BC, symBinAddr: 0x10001B400, symSize: 0x18 }
  - { offsetInCU: 0x40C9A, offset: 0x64D02, size: 0x8, addend: 0x0, symName: __ZN8nlohmann16json_abi_v3_11_310basic_jsonINSt3__13mapENS2_6vectorENS2_12basic_stringIcNS2_11char_traitsIcEENS2_9allocatorIcEEEEbxydS8_NS0_14adl_serializerENS4_IhNS8_IhEEEEvEC2EOSE_, symObjAddr: 0x147D4, symBinAddr: 0x10001B418, symSize: 0x80 }
  - { offsetInCU: 0x40CD1, offset: 0x64D39, size: 0x8, addend: 0x0, symName: __ZN8nlohmann16json_abi_v3_11_310basic_jsonINSt3__13mapENS2_6vectorENS2_12basic_stringIcNS2_11char_traitsIcEENS2_9allocatorIcEEEEbxydS8_NS0_14adl_serializerENS4_IhNS8_IhEEEEvE11set_parentsEv, symObjAddr: 0x14854, symBinAddr: 0x10001B498, symSize: 0x10 }
  - { offsetInCU: 0x40CF5, offset: 0x64D5D, size: 0x8, addend: 0x0, symName: __ZNSt3__16vectorIN8nlohmann16json_abi_v3_11_310basic_jsonINS_3mapES0_NS_12basic_stringIcNS_11char_traitsIcEENS_9allocatorIcEEEEbxydS8_NS2_14adl_serializerENS0_IhNS8_IhEEEEvEENS8_ISE_EEE17__destruct_at_endB7v160006EPSE_, symObjAddr: 0x14864, symBinAddr: 0x10001B4A8, symSize: 0x60 }
  - { offsetInCU: 0x40D38, offset: 0x64DA0, size: 0x8, addend: 0x0, symName: __ZNSt3__16vectorIN8nlohmann16json_abi_v3_11_310basic_jsonINS_3mapES0_NS_12basic_stringIcNS_11char_traitsIcEENS_9allocatorIcEEEEbxydS8_NS2_14adl_serializerENS0_IhNS8_IhEEEEvEENS8_ISE_EEE27__invalidate_iterators_pastB7v160006EPSE_, symObjAddr: 0x148C4, symBinAddr: 0x10001B508, symSize: 0x14 }
  - { offsetInCU: 0x40D6E, offset: 0x64DD6, size: 0x8, addend: 0x0, symName: __ZNSt3__16vectorIN8nlohmann16json_abi_v3_11_310basic_jsonINS_3mapES0_NS_12basic_stringIcNS_11char_traitsIcEENS_9allocatorIcEEEEbxydS8_NS2_14adl_serializerENS0_IhNS8_IhEEEEvEENS8_ISE_EEE22__base_destruct_at_endB7v160006EPSE_, symObjAddr: 0x148D8, symBinAddr: 0x10001B51C, symSize: 0x8C }
  - { offsetInCU: 0x40DB1, offset: 0x64E19, size: 0x8, addend: 0x0, symName: __ZNKSt3__16vectorIN8nlohmann16json_abi_v3_11_310basic_jsonINS_3mapES0_NS_12basic_stringIcNS_11char_traitsIcEENS_9allocatorIcEEEEbxydS8_NS2_14adl_serializerENS0_IhNS8_IhEEEEvEENS8_ISE_EEE17__annotate_shrinkB7v160006Em, symObjAddr: 0x14964, symBinAddr: 0x10001B5A8, symSize: 0xB4 }
  - { offsetInCU: 0x40DE4, offset: 0x64E4C, size: 0x8, addend: 0x0, symName: __ZNSt3__16vectorIN8nlohmann16json_abi_v3_11_310basic_jsonINS_3mapES0_NS_12basic_stringIcNS_11char_traitsIcEENS_9allocatorIcEEEEbxydS8_NS2_14adl_serializerENS0_IhNS8_IhEEEEvEENS8_ISE_EEE7__clearB7v160006Ev, symObjAddr: 0x14A18, symBinAddr: 0x10001B65C, symSize: 0x28 }
  - { offsetInCU: 0x40E08, offset: 0x64E70, size: 0x8, addend: 0x0, symName: __ZNSt3__16__treeINS_12__value_typeINS_12basic_stringIcNS_11char_traitsIcEENS_9allocatorIcEEEEN8nlohmann16json_abi_v3_11_310basic_jsonINS_3mapENS_6vectorES7_bxydS5_NS9_14adl_serializerENSC_IhNS5_IhEEEEvEEEENS_19__map_value_compareIS7_SH_NS_4lessIS7_EELb1EEENS5_ISH_EEE5clearEv, symObjAddr: 0x14A40, symBinAddr: 0x10001B684, symSize: 0x74 }
  - { offsetInCU: 0x40E2E, offset: 0x64E96, size: 0x8, addend: 0x0, symName: __ZNSt3__16__treeINS_12__value_typeINS_12basic_stringIcNS_11char_traitsIcEENS_9allocatorIcEEEEN8nlohmann16json_abi_v3_11_310basic_jsonINS_3mapENS_6vectorES7_bxydS5_NS9_14adl_serializerENSC_IhNS5_IhEEEEvEEEENS_19__map_value_compareIS7_SH_NS_4lessIS7_EELb1EEENS5_ISH_EEE7destroyEPNS_11__tree_nodeISH_PvEE, symObjAddr: 0x14AB4, symBinAddr: 0x10001B6F8, symSize: 0xAC }
  - { offsetInCU: 0x40E79, offset: 0x64EE1, size: 0x8, addend: 0x0, symName: __ZNKSt3__16__treeINS_12__value_typeINS_12basic_stringIcNS_11char_traitsIcEENS_9allocatorIcEEEEN8nlohmann16json_abi_v3_11_310basic_jsonINS_3mapENS_6vectorES7_bxydS5_NS9_14adl_serializerENSC_IhNS5_IhEEEEvEEEENS_19__map_value_compareIS7_SH_NS_4lessIS7_EELb1EEENS5_ISH_EEE6__rootB7v160006Ev, symObjAddr: 0x14B60, symBinAddr: 0x10001B7A4, symSize: 0x28 }
  - { offsetInCU: 0x40E9D, offset: 0x64F05, size: 0x8, addend: 0x0, symName: __ZNSt3__16__treeINS_12__value_typeINS_12basic_stringIcNS_11char_traitsIcEENS_9allocatorIcEEEEN8nlohmann16json_abi_v3_11_310basic_jsonINS_3mapENS_6vectorES7_bxydS5_NS9_14adl_serializerENSC_IhNS5_IhEEEEvEEEENS_19__map_value_compareIS7_SH_NS_4lessIS7_EELb1EEENS5_ISH_EEE4sizeB7v160006Ev, symObjAddr: 0x14B88, symBinAddr: 0x10001B7CC, symSize: 0x28 }
  - { offsetInCU: 0x40EC1, offset: 0x64F29, size: 0x8, addend: 0x0, symName: __ZNSt3__16__treeINS_12__value_typeINS_12basic_stringIcNS_11char_traitsIcEENS_9allocatorIcEEEEN8nlohmann16json_abi_v3_11_310basic_jsonINS_3mapENS_6vectorES7_bxydS5_NS9_14adl_serializerENSC_IhNS5_IhEEEEvEEEENS_19__map_value_compareIS7_SH_NS_4lessIS7_EELb1EEENS5_ISH_EEE12__node_allocB7v160006Ev, symObjAddr: 0x14BB0, symBinAddr: 0x10001B7F4, symSize: 0x28 }
  - { offsetInCU: 0x40EE5, offset: 0x64F4D, size: 0x8, addend: 0x0, symName: __ZNSt3__116allocator_traitsINS_9allocatorINS_11__tree_nodeINS_12__value_typeINS_12basic_stringIcNS_11char_traitsIcEENS1_IcEEEEN8nlohmann16json_abi_v3_11_310basic_jsonINS_3mapENS_6vectorES8_bxydS1_NSA_14adl_serializerENSD_IhNS1_IhEEEEvEEEEPvEEEEE7destroyB7v160006INS_4pairIKS8_SH_EEvvEEvRSL_PT_, symObjAddr: 0x14BD8, symBinAddr: 0x10001B81C, symSize: 0x28 }
  - { offsetInCU: 0x40F1E, offset: 0x64F86, size: 0x8, addend: 0x0, symName: __ZNSt3__122__tree_key_value_typesINS_12__value_typeINS_12basic_stringIcNS_11char_traitsIcEENS_9allocatorIcEEEEN8nlohmann16json_abi_v3_11_310basic_jsonINS_3mapENS_6vectorES7_bxydS5_NS9_14adl_serializerENSC_IhNS5_IhEEEEvEEEEE9__get_ptrB7v160006ERSH_, symObjAddr: 0x14C00, symBinAddr: 0x10001B844, symSize: 0x24 }
  - { offsetInCU: 0x40F41, offset: 0x64FA9, size: 0x8, addend: 0x0, symName: __ZNSt3__116allocator_traitsINS_9allocatorINS_11__tree_nodeINS_12__value_typeINS_12basic_stringIcNS_11char_traitsIcEENS1_IcEEEEN8nlohmann16json_abi_v3_11_310basic_jsonINS_3mapENS_6vectorES8_bxydS1_NSA_14adl_serializerENSD_IhNS1_IhEEEEvEEEEPvEEEEE10deallocateB7v160006ERSL_PSK_m, symObjAddr: 0x14C24, symBinAddr: 0x10001B868, symSize: 0x34 }
  - { offsetInCU: 0x40F82, offset: 0x64FEA, size: 0x8, addend: 0x0, symName: __ZNSt3__117__compressed_pairINS_15__tree_end_nodeIPNS_16__tree_node_baseIPvEEEENS_9allocatorINS_11__tree_nodeINS_12__value_typeINS_12basic_stringIcNS_11char_traitsIcEENS7_IcEEEEN8nlohmann16json_abi_v3_11_310basic_jsonINS_3mapENS_6vectorESE_bxydS7_NSG_14adl_serializerENSJ_IhNS7_IhEEEEvEEEES3_EEEEE6secondB7v160006Ev, symObjAddr: 0x14C58, symBinAddr: 0x10001B89C, symSize: 0x24 }
  - { offsetInCU: 0x40FA6, offset: 0x6500E, size: 0x8, addend: 0x0, symName: __ZNSt3__122__compressed_pair_elemINS_9allocatorINS_11__tree_nodeINS_12__value_typeINS_12basic_stringIcNS_11char_traitsIcEENS1_IcEEEEN8nlohmann16json_abi_v3_11_310basic_jsonINS_3mapENS_6vectorES8_bxydS1_NSA_14adl_serializerENSD_IhNS1_IhEEEEvEEEEPvEEEELi1ELb1EE5__getB7v160006Ev, symObjAddr: 0x14C7C, symBinAddr: 0x10001B8C0, symSize: 0x14 }
  - { offsetInCU: 0x40FCA, offset: 0x65032, size: 0x8, addend: 0x0, symName: __ZNSt3__14pairIKNS_12basic_stringIcNS_11char_traitsIcEENS_9allocatorIcEEEEN8nlohmann16json_abi_v3_11_310basic_jsonINS_3mapENS_6vectorES6_bxydS4_NS9_14adl_serializerENSC_IhNS4_IhEEEEvEEED1Ev, symObjAddr: 0x14C90, symBinAddr: 0x10001B8D4, symSize: 0x2C }
  - { offsetInCU: 0x40FF4, offset: 0x6505C, size: 0x8, addend: 0x0, symName: __ZNSt3__14pairIKNS_12basic_stringIcNS_11char_traitsIcEENS_9allocatorIcEEEEN8nlohmann16json_abi_v3_11_310basic_jsonINS_3mapENS_6vectorES6_bxydS4_NS9_14adl_serializerENSC_IhNS4_IhEEEEvEEED2Ev, symObjAddr: 0x14CBC, symBinAddr: 0x10001B900, symSize: 0x38 }
  - { offsetInCU: 0x4101E, offset: 0x65086, size: 0x8, addend: 0x0, symName: __ZNSt3__19allocatorINS_11__tree_nodeINS_12__value_typeINS_12basic_stringIcNS_11char_traitsIcEENS0_IcEEEEN8nlohmann16json_abi_v3_11_310basic_jsonINS_3mapENS_6vectorES7_bxydS0_NS9_14adl_serializerENSC_IhNS0_IhEEEEvEEEEPvEEE10deallocateB7v160006EPSJ_m, symObjAddr: 0x14CF4, symBinAddr: 0x10001B938, symSize: 0x44 }
  - { offsetInCU: 0x4105E, offset: 0x650C6, size: 0x8, addend: 0x0, symName: __ZNKSt3__16__treeINS_12__value_typeINS_12basic_stringIcNS_11char_traitsIcEENS_9allocatorIcEEEEN8nlohmann16json_abi_v3_11_310basic_jsonINS_3mapENS_6vectorES7_bxydS5_NS9_14adl_serializerENSC_IhNS5_IhEEEEvEEEENS_19__map_value_compareIS7_SH_NS_4lessIS7_EELb1EEENS5_ISH_EEE10__end_nodeB7v160006Ev, symObjAddr: 0x14D38, symBinAddr: 0x10001B97C, symSize: 0x2C }
  - { offsetInCU: 0x41082, offset: 0x650EA, size: 0x8, addend: 0x0, symName: __ZNKSt3__117__compressed_pairINS_15__tree_end_nodeIPNS_16__tree_node_baseIPvEEEENS_9allocatorINS_11__tree_nodeINS_12__value_typeINS_12basic_stringIcNS_11char_traitsIcEENS7_IcEEEEN8nlohmann16json_abi_v3_11_310basic_jsonINS_3mapENS_6vectorESE_bxydS7_NSG_14adl_serializerENSJ_IhNS7_IhEEEEvEEEES3_EEEEE5firstB7v160006Ev, symObjAddr: 0x14D64, symBinAddr: 0x10001B9A8, symSize: 0x24 }
  - { offsetInCU: 0x410A6, offset: 0x6510E, size: 0x8, addend: 0x0, symName: __ZNKSt3__122__compressed_pair_elemINS_15__tree_end_nodeIPNS_16__tree_node_baseIPvEEEELi0ELb0EE5__getB7v160006Ev, symObjAddr: 0x14D88, symBinAddr: 0x10001B9CC, symSize: 0x14 }
  - { offsetInCU: 0x410CA, offset: 0x65132, size: 0x8, addend: 0x0, symName: __ZNSt3__117__compressed_pairImNS_19__map_value_compareINS_12basic_stringIcNS_11char_traitsIcEENS_9allocatorIcEEEENS_12__value_typeIS7_N8nlohmann16json_abi_v3_11_310basic_jsonINS_3mapENS_6vectorES7_bxydS5_NSA_14adl_serializerENSD_IhNS5_IhEEEEvEEEENS_4lessIS7_EELb1EEEE5firstB7v160006Ev, symObjAddr: 0x14D9C, symBinAddr: 0x10001B9E0, symSize: 0x24 }
  - { offsetInCU: 0x410EE, offset: 0x65156, size: 0x8, addend: 0x0, symName: __ZNSt3__16vectorIN8nlohmann16json_abi_v3_11_310basic_jsonINS_3mapES0_NS_12basic_stringIcNS_11char_traitsIcEENS_9allocatorIcEEEEbxydS8_NS2_14adl_serializerENS0_IhNS8_IhEEEEvEENS8_ISE_EEED2B7v160006Ev, symObjAddr: 0x14DD4, symBinAddr: 0x10001BA04, symSize: 0x44 }
  - { offsetInCU: 0x41116, offset: 0x6517E, size: 0x8, addend: 0x0, symName: __ZNSt3__16vectorIN8nlohmann16json_abi_v3_11_310basic_jsonINS_3mapES0_NS_12basic_stringIcNS_11char_traitsIcEENS_9allocatorIcEEEEbxydS8_NS2_14adl_serializerENS0_IhNS8_IhEEEEvEENS8_ISE_EEE16__destroy_vectorC1ERSG_, symObjAddr: 0x14E18, symBinAddr: 0x10001BA48, symSize: 0x34 }
  - { offsetInCU: 0x4114D, offset: 0x651B5, size: 0x8, addend: 0x0, symName: __ZNSt3__16vectorIN8nlohmann16json_abi_v3_11_310basic_jsonINS_3mapES0_NS_12basic_stringIcNS_11char_traitsIcEENS_9allocatorIcEEEEbxydS8_NS2_14adl_serializerENS0_IhNS8_IhEEEEvEENS8_ISE_EEE16__destroy_vectorclB7v160006Ev, symObjAddr: 0x14E4C, symBinAddr: 0x10001BA7C, symSize: 0x9C }
  - { offsetInCU: 0x41171, offset: 0x651D9, size: 0x8, addend: 0x0, symName: __ZNSt3__16vectorIN8nlohmann16json_abi_v3_11_310basic_jsonINS_3mapES0_NS_12basic_stringIcNS_11char_traitsIcEENS_9allocatorIcEEEEbxydS8_NS2_14adl_serializerENS0_IhNS8_IhEEEEvEENS8_ISE_EEE16__destroy_vectorC2ERSG_, symObjAddr: 0x14EE8, symBinAddr: 0x10001BB18, symSize: 0x20 }
  - { offsetInCU: 0x411A8, offset: 0x65210, size: 0x8, addend: 0x0, symName: __ZNSt3__19allocatorINS_3mapINS_12basic_stringIcNS_11char_traitsIcEENS0_IcEEEEN8nlohmann16json_abi_v3_11_310basic_jsonIS1_NS_6vectorES6_bxydS0_NS8_14adl_serializerENSA_IhNS0_IhEEEEvEENS_4lessIS6_EENS0_INS_4pairIKS6_SE_EEEEEEEC2B7v160006Ev, symObjAddr: 0x14F18, symBinAddr: 0x10001BB48, symSize: 0x2C }
  - { offsetInCU: 0x411D0, offset: 0x65238, size: 0x8, addend: 0x0, symName: __ZNSt3__116__non_trivial_ifILb1ENS_9allocatorINS_3mapINS_12basic_stringIcNS_11char_traitsIcEENS1_IcEEEEN8nlohmann16json_abi_v3_11_310basic_jsonIS2_NS_6vectorES7_bxydS1_NS9_14adl_serializerENSB_IhNS1_IhEEEEvEENS_4lessIS7_EENS1_INS_4pairIKS7_SF_EEEEEEEEEC2B7v160006Ev, symObjAddr: 0x14F44, symBinAddr: 0x10001BB74, symSize: 0x14 }
  - { offsetInCU: 0x411F8, offset: 0x65260, size: 0x8, addend: 0x0, symName: __ZNSt3__19allocatorINS_3mapINS_12basic_stringIcNS_11char_traitsIcEENS0_IcEEEEN8nlohmann16json_abi_v3_11_310basic_jsonIS1_NS_6vectorES6_bxydS0_NS8_14adl_serializerENSA_IhNS0_IhEEEEvEENS_4lessIS6_EENS0_INS_4pairIKS6_SE_EEEEEEE7destroyB7v160006EPSL_, symObjAddr: 0x14F58, symBinAddr: 0x10001BB88, symSize: 0x28 }
  - { offsetInCU: 0x4122A, offset: 0x65292, size: 0x8, addend: 0x0, symName: __ZNSt3__13mapINS_12basic_stringIcNS_11char_traitsIcEENS_9allocatorIcEEEEN8nlohmann16json_abi_v3_11_310basic_jsonIS0_NS_6vectorES6_bxydS4_NS8_14adl_serializerENSA_IhNS4_IhEEEEvEENS_4lessIS6_EENS4_INS_4pairIKS6_SE_EEEEED1B7v160006Ev, symObjAddr: 0x14F80, symBinAddr: 0x10001BBB0, symSize: 0x2C }
  - { offsetInCU: 0x41252, offset: 0x652BA, size: 0x8, addend: 0x0, symName: __ZNSt3__13mapINS_12basic_stringIcNS_11char_traitsIcEENS_9allocatorIcEEEEN8nlohmann16json_abi_v3_11_310basic_jsonIS0_NS_6vectorES6_bxydS4_NS8_14adl_serializerENSA_IhNS4_IhEEEEvEENS_4lessIS6_EENS4_INS_4pairIKS6_SE_EEEEED2B7v160006Ev, symObjAddr: 0x14FAC, symBinAddr: 0x10001BBDC, symSize: 0x2C }
  - { offsetInCU: 0x4127A, offset: 0x652E2, size: 0x8, addend: 0x0, symName: __ZNSt3__16__treeINS_12__value_typeINS_12basic_stringIcNS_11char_traitsIcEENS_9allocatorIcEEEEN8nlohmann16json_abi_v3_11_310basic_jsonINS_3mapENS_6vectorES7_bxydS5_NS9_14adl_serializerENSC_IhNS5_IhEEEEvEEEENS_19__map_value_compareIS7_SH_NS_4lessIS7_EELb1EEENS5_ISH_EEED1Ev, symObjAddr: 0x14FD8, symBinAddr: 0x10001BC08, symSize: 0x2C }
  - { offsetInCU: 0x412A5, offset: 0x6530D, size: 0x8, addend: 0x0, symName: __ZNSt3__16__treeINS_12__value_typeINS_12basic_stringIcNS_11char_traitsIcEENS_9allocatorIcEEEEN8nlohmann16json_abi_v3_11_310basic_jsonINS_3mapENS_6vectorES7_bxydS5_NS9_14adl_serializerENSC_IhNS5_IhEEEEvEEEENS_19__map_value_compareIS7_SH_NS_4lessIS7_EELb1EEENS5_ISH_EEED2Ev, symObjAddr: 0x15004, symBinAddr: 0x10001BC34, symSize: 0x38 }
  - { offsetInCU: 0x412D0, offset: 0x65338, size: 0x8, addend: 0x0, symName: __ZNSt3__19allocatorINS_3mapINS_12basic_stringIcNS_11char_traitsIcEENS0_IcEEEEN8nlohmann16json_abi_v3_11_310basic_jsonIS1_NS_6vectorES6_bxydS0_NS8_14adl_serializerENSA_IhNS0_IhEEEEvEENS_4lessIS6_EENS0_INS_4pairIKS6_SE_EEEEEEE10deallocateB7v160006EPSL_m, symObjAddr: 0x1503C, symBinAddr: 0x10001BC6C, symSize: 0x44 }
  - { offsetInCU: 0x41310, offset: 0x65378, size: 0x8, addend: 0x0, symName: __ZNSt3__19allocatorINS_6vectorIN8nlohmann16json_abi_v3_11_310basic_jsonINS_3mapES1_NS_12basic_stringIcNS_11char_traitsIcEENS0_IcEEEEbxydS0_NS3_14adl_serializerENS1_IhNS0_IhEEEEvEENS0_ISE_EEEEEC2B7v160006Ev, symObjAddr: 0x15080, symBinAddr: 0x10001BCB0, symSize: 0x2C }
  - { offsetInCU: 0x41338, offset: 0x653A0, size: 0x8, addend: 0x0, symName: __ZNSt3__116__non_trivial_ifILb1ENS_9allocatorINS_6vectorIN8nlohmann16json_abi_v3_11_310basic_jsonINS_3mapES2_NS_12basic_stringIcNS_11char_traitsIcEENS1_IcEEEEbxydS1_NS4_14adl_serializerENS2_IhNS1_IhEEEEvEENS1_ISF_EEEEEEEC2B7v160006Ev, symObjAddr: 0x150AC, symBinAddr: 0x10001BCDC, symSize: 0x14 }
  - { offsetInCU: 0x41360, offset: 0x653C8, size: 0x8, addend: 0x0, symName: __ZNSt3__19allocatorINS_6vectorIN8nlohmann16json_abi_v3_11_310basic_jsonINS_3mapES1_NS_12basic_stringIcNS_11char_traitsIcEENS0_IcEEEEbxydS0_NS3_14adl_serializerENS1_IhNS0_IhEEEEvEENS0_ISE_EEEEE7destroyB7v160006EPSG_, symObjAddr: 0x150C0, symBinAddr: 0x10001BCF0, symSize: 0x28 }
  - { offsetInCU: 0x41392, offset: 0x653FA, size: 0x8, addend: 0x0, symName: __ZNSt3__19allocatorINS_6vectorIN8nlohmann16json_abi_v3_11_310basic_jsonINS_3mapES1_NS_12basic_stringIcNS_11char_traitsIcEENS0_IcEEEEbxydS0_NS3_14adl_serializerENS1_IhNS0_IhEEEEvEENS0_ISE_EEEEE10deallocateB7v160006EPSG_m, symObjAddr: 0x150E8, symBinAddr: 0x10001BD18, symSize: 0x44 }
  - { offsetInCU: 0x413D2, offset: 0x6543A, size: 0x8, addend: 0x0, symName: __ZNSt3__19allocatorINS_12basic_stringIcNS_11char_traitsIcEENS0_IcEEEEEC2B7v160006Ev, symObjAddr: 0x1512C, symBinAddr: 0x10001BD5C, symSize: 0x2C }
  - { offsetInCU: 0x413FA, offset: 0x65462, size: 0x8, addend: 0x0, symName: __ZNSt3__116__non_trivial_ifILb1ENS_9allocatorINS_12basic_stringIcNS_11char_traitsIcEENS1_IcEEEEEEEC2B7v160006Ev, symObjAddr: 0x15158, symBinAddr: 0x10001BD88, symSize: 0x14 }
  - { offsetInCU: 0x41422, offset: 0x6548A, size: 0x8, addend: 0x0, symName: __ZNSt3__19allocatorIN8nlohmann16json_abi_v3_11_327byte_container_with_subtypeINS_6vectorIhNS0_IhEEEEEEEC2B7v160006Ev, symObjAddr: 0x1516C, symBinAddr: 0x10001BD9C, symSize: 0x2C }
  - { offsetInCU: 0x4144A, offset: 0x654B2, size: 0x8, addend: 0x0, symName: __ZNSt3__116__non_trivial_ifILb1ENS_9allocatorIN8nlohmann16json_abi_v3_11_327byte_container_with_subtypeINS_6vectorIhNS1_IhEEEEEEEEEC2B7v160006Ev, symObjAddr: 0x15198, symBinAddr: 0x10001BDC8, symSize: 0x14 }
  - { offsetInCU: 0x41472, offset: 0x654DA, size: 0x8, addend: 0x0, symName: __ZNSt3__19allocatorIN8nlohmann16json_abi_v3_11_327byte_container_with_subtypeINS_6vectorIhNS0_IhEEEEEEE7destroyB7v160006EPS7_, symObjAddr: 0x151AC, symBinAddr: 0x10001BDDC, symSize: 0x28 }
  - { offsetInCU: 0x414A4, offset: 0x6550C, size: 0x8, addend: 0x0, symName: __ZN8nlohmann16json_abi_v3_11_327byte_container_with_subtypeINSt3__16vectorIhNS2_9allocatorIhEEEEED1Ev, symObjAddr: 0x151D4, symBinAddr: 0x10001BE04, symSize: 0x2C }
  - { offsetInCU: 0x414D0, offset: 0x65538, size: 0x8, addend: 0x0, symName: __ZN8nlohmann16json_abi_v3_11_327byte_container_with_subtypeINSt3__16vectorIhNS2_9allocatorIhEEEEED2Ev, symObjAddr: 0x15200, symBinAddr: 0x10001BE30, symSize: 0x2C }
  - { offsetInCU: 0x414FC, offset: 0x65564, size: 0x8, addend: 0x0, symName: __ZNSt3__16vectorIhNS_9allocatorIhEEED2B7v160006Ev, symObjAddr: 0x1522C, symBinAddr: 0x10001BE5C, symSize: 0x44 }
  - { offsetInCU: 0x41524, offset: 0x6558C, size: 0x8, addend: 0x0, symName: __ZNSt3__16vectorIhNS_9allocatorIhEEE16__destroy_vectorC1ERS3_, symObjAddr: 0x15270, symBinAddr: 0x10001BEA0, symSize: 0x34 }
  - { offsetInCU: 0x4155B, offset: 0x655C3, size: 0x8, addend: 0x0, symName: __ZNSt3__16vectorIhNS_9allocatorIhEEE16__destroy_vectorclB7v160006Ev, symObjAddr: 0x152A4, symBinAddr: 0x10001BED4, symSize: 0x9C }
  - { offsetInCU: 0x4157F, offset: 0x655E7, size: 0x8, addend: 0x0, symName: __ZNSt3__16vectorIhNS_9allocatorIhEEE16__destroy_vectorC2ERS3_, symObjAddr: 0x15340, symBinAddr: 0x10001BF70, symSize: 0x20 }
  - { offsetInCU: 0x415B6, offset: 0x6561E, size: 0x8, addend: 0x0, symName: __ZNKSt3__16vectorIhNS_9allocatorIhEEE17__annotate_deleteB7v160006Ev, symObjAddr: 0x15360, symBinAddr: 0x10001BF90, symSize: 0xB8 }
  - { offsetInCU: 0x415DA, offset: 0x65642, size: 0x8, addend: 0x0, symName: __ZNSt3__16vectorIhNS_9allocatorIhEEE7__clearB7v160006Ev, symObjAddr: 0x15428, symBinAddr: 0x10001C058, symSize: 0x28 }
  - { offsetInCU: 0x415FE, offset: 0x65666, size: 0x8, addend: 0x0, symName: __ZNSt3__116allocator_traitsINS_9allocatorIhEEE10deallocateB7v160006ERS2_Phm, symObjAddr: 0x15450, symBinAddr: 0x10001C080, symSize: 0x34 }
  - { offsetInCU: 0x4163F, offset: 0x656A7, size: 0x8, addend: 0x0, symName: __ZNSt3__16vectorIhNS_9allocatorIhEEE7__allocB7v160006Ev, symObjAddr: 0x15484, symBinAddr: 0x10001C0B4, symSize: 0x28 }
  - { offsetInCU: 0x41663, offset: 0x656CB, size: 0x8, addend: 0x0, symName: __ZNKSt3__16vectorIhNS_9allocatorIhEEE8capacityB7v160006Ev, symObjAddr: 0x154AC, symBinAddr: 0x10001C0DC, symSize: 0x38 }
  - { offsetInCU: 0x41687, offset: 0x656EF, size: 0x8, addend: 0x0, symName: __ZNKSt3__16vectorIhNS_9allocatorIhEEE31__annotate_contiguous_containerB7v160006EPKvS5_S5_S5_, symObjAddr: 0x154E4, symBinAddr: 0x10001C114, symSize: 0x20 }
  - { offsetInCU: 0x416D7, offset: 0x6573F, size: 0x8, addend: 0x0, symName: __ZNKSt3__16vectorIhNS_9allocatorIhEEE4dataB7v160006Ev, symObjAddr: 0x15504, symBinAddr: 0x10001C134, symSize: 0x28 }
  - { offsetInCU: 0x416FB, offset: 0x65763, size: 0x8, addend: 0x0, symName: __ZNKSt3__16vectorIhNS_9allocatorIhEEE4sizeB7v160006Ev, symObjAddr: 0x1552C, symBinAddr: 0x10001C15C, symSize: 0x20 }
  - { offsetInCU: 0x4171F, offset: 0x65787, size: 0x8, addend: 0x0, symName: __ZNSt3__16vectorIhNS_9allocatorIhEEE22__base_destruct_at_endB7v160006EPh, symObjAddr: 0x15560, symBinAddr: 0x10001C190, symSize: 0x8C }
  - { offsetInCU: 0x41762, offset: 0x657CA, size: 0x8, addend: 0x0, symName: __ZNSt3__116allocator_traitsINS_9allocatorIhEEE7destroyB7v160006IhvEEvRS2_PT_, symObjAddr: 0x155EC, symBinAddr: 0x10001C21C, symSize: 0x2C }
  - { offsetInCU: 0x4179E, offset: 0x65806, size: 0x8, addend: 0x0, symName: __ZNSt3__19allocatorIhE7destroyB7v160006EPh, symObjAddr: 0x15618, symBinAddr: 0x10001C248, symSize: 0x14 }
  - { offsetInCU: 0x417D0, offset: 0x65838, size: 0x8, addend: 0x0, symName: __ZNSt3__19allocatorIhE10deallocateB7v160006EPhm, symObjAddr: 0x1562C, symBinAddr: 0x10001C25C, symSize: 0x40 }
  - { offsetInCU: 0x41810, offset: 0x65878, size: 0x8, addend: 0x0, symName: __ZNSt3__117__compressed_pairIPhNS_9allocatorIhEEE6secondB7v160006Ev, symObjAddr: 0x1566C, symBinAddr: 0x10001C29C, symSize: 0x24 }
  - { offsetInCU: 0x41834, offset: 0x6589C, size: 0x8, addend: 0x0, symName: __ZNSt3__122__compressed_pair_elemINS_9allocatorIhEELi1ELb1EE5__getB7v160006Ev, symObjAddr: 0x15690, symBinAddr: 0x10001C2C0, symSize: 0x14 }
  - { offsetInCU: 0x41858, offset: 0x658C0, size: 0x8, addend: 0x0, symName: __ZNKSt3__16vectorIhNS_9allocatorIhEEE9__end_capB7v160006Ev, symObjAddr: 0x156A4, symBinAddr: 0x10001C2D4, symSize: 0x28 }
  - { offsetInCU: 0x4187C, offset: 0x658E4, size: 0x8, addend: 0x0, symName: __ZNKSt3__117__compressed_pairIPhNS_9allocatorIhEEE5firstB7v160006Ev, symObjAddr: 0x156CC, symBinAddr: 0x10001C2FC, symSize: 0x24 }
  - { offsetInCU: 0x418A0, offset: 0x65908, size: 0x8, addend: 0x0, symName: __ZNKSt3__122__compressed_pair_elemIPhLi0ELb0EE5__getB7v160006Ev, symObjAddr: 0x156F0, symBinAddr: 0x10001C320, symSize: 0x14 }
  - { offsetInCU: 0x418C4, offset: 0x6592C, size: 0x8, addend: 0x0, symName: __ZNSt3__19allocatorIN8nlohmann16json_abi_v3_11_327byte_container_with_subtypeINS_6vectorIhNS0_IhEEEEEEE10deallocateB7v160006EPS7_m, symObjAddr: 0x15704, symBinAddr: 0x10001C334, symSize: 0x44 }
  - { offsetInCU: 0x41904, offset: 0x6596C, size: 0x8, addend: 0x0, symName: __ZNSt3__16vectorINS_12basic_stringIcNS_11char_traitsIcEENS_9allocatorIcEEEENS4_IS6_EEED2B7v160006Ev, symObjAddr: 0x15748, symBinAddr: 0x10001C378, symSize: 0x44 }
  - { offsetInCU: 0x4192C, offset: 0x65994, size: 0x8, addend: 0x0, symName: __ZNSt3__16vectorIdNS_9allocatorIdEEED2B7v160006Ev, symObjAddr: 0x1578C, symBinAddr: 0x10001C3BC, symSize: 0x44 }
  - { offsetInCU: 0x41954, offset: 0x659BC, size: 0x8, addend: 0x0, symName: __ZNSt3__16vectorINS_12basic_stringIcNS_11char_traitsIcEENS_9allocatorIcEEEENS4_IS6_EEEC2B7v160006Ev, symObjAddr: 0x157D0, symBinAddr: 0x10001C400, symSize: 0x54 }
  - { offsetInCU: 0x4197C, offset: 0x659E4, size: 0x8, addend: 0x0, symName: __ZNSt3__117__compressed_pairIPNS_12basic_stringIcNS_11char_traitsIcEENS_9allocatorIcEEEENS4_IS6_EEEC1B7v160006IDnNS_18__default_init_tagEEEOT_OT0_, symObjAddr: 0x15824, symBinAddr: 0x10001C454, symSize: 0x3C }
  - { offsetInCU: 0x419D2, offset: 0x65A3A, size: 0x8, addend: 0x0, symName: __ZNSt3__117__compressed_pairIPNS_12basic_stringIcNS_11char_traitsIcEENS_9allocatorIcEEEENS4_IS6_EEEC2B7v160006IDnNS_18__default_init_tagEEEOT_OT0_, symObjAddr: 0x15860, symBinAddr: 0x10001C490, symSize: 0x40 }
  - { offsetInCU: 0x41A28, offset: 0x65A90, size: 0x8, addend: 0x0, symName: __ZNSt3__122__compressed_pair_elemINS_9allocatorINS_12basic_stringIcNS_11char_traitsIcEENS1_IcEEEEEELi1ELb1EEC2B7v160006ENS_18__default_init_tagE, symObjAddr: 0x158A0, symBinAddr: 0x10001C4D0, symSize: 0x2C }
  - { offsetInCU: 0x41A5A, offset: 0x65AC2, size: 0x8, addend: 0x0, symName: __ZN8nlohmann16json_abi_v3_11_310basic_jsonINSt3__13mapENS2_6vectorENS2_12basic_stringIcNS2_11char_traitsIcEENS2_9allocatorIcEEEEbxydS8_NS0_14adl_serializerENS4_IhNS8_IhEEEEvEC1ENS0_6detail7value_tE, symObjAddr: 0x158CC, symBinAddr: 0x10001C4FC, symSize: 0x34 }
  - { offsetInCU: 0x41A91, offset: 0x65AF9, size: 0x8, addend: 0x0, symName: __ZN8nlohmann16json_abi_v3_11_310basic_jsonINSt3__13mapENS2_6vectorENS2_12basic_stringIcNS2_11char_traitsIcEENS2_9allocatorIcEEEEbxydS8_NS0_14adl_serializerENS4_IhNS8_IhEEEEvEC2ENS0_6detail7value_tE, symObjAddr: 0x15900, symBinAddr: 0x10001C530, symSize: 0x44 }
  - { offsetInCU: 0x41AC8, offset: 0x65B30, size: 0x8, addend: 0x0, symName: __ZN8nlohmann16json_abi_v3_11_310basic_jsonINSt3__13mapENS2_6vectorENS2_12basic_stringIcNS2_11char_traitsIcEENS2_9allocatorIcEEEEbxydS8_NS0_14adl_serializerENS4_IhNS8_IhEEEEvE4dataC1ENS0_6detail7value_tE, symObjAddr: 0x15944, symBinAddr: 0x10001C574, symSize: 0x34 }
  - { offsetInCU: 0x41AFF, offset: 0x65B67, size: 0x8, addend: 0x0, symName: __ZN8nlohmann16json_abi_v3_11_310basic_jsonINSt3__13mapENS2_6vectorENS2_12basic_stringIcNS2_11char_traitsIcEENS2_9allocatorIcEEEEbxydS8_NS0_14adl_serializerENS4_IhNS8_IhEEEEvE4dataC2ENS0_6detail7value_tE, symObjAddr: 0x15978, symBinAddr: 0x10001C5A8, symSize: 0x40 }
  - { offsetInCU: 0x41B36, offset: 0x65B9E, size: 0x8, addend: 0x0, symName: __ZN8nlohmann16json_abi_v3_11_310basic_jsonINSt3__13mapENS2_6vectorENS2_12basic_stringIcNS2_11char_traitsIcEENS2_9allocatorIcEEEEbxydS8_NS0_14adl_serializerENS4_IhNS8_IhEEEEvE10json_valueC1ENS0_6detail7value_tE, symObjAddr: 0x159B8, symBinAddr: 0x10001C5E8, symSize: 0x34 }
  - { offsetInCU: 0x41B6D, offset: 0x65BD5, size: 0x8, addend: 0x0, symName: __ZN8nlohmann16json_abi_v3_11_310basic_jsonINSt3__13mapENS2_6vectorENS2_12basic_stringIcNS2_11char_traitsIcEENS2_9allocatorIcEEEEbxydS8_NS0_14adl_serializerENS4_IhNS8_IhEEEEvE10json_valueC2ENS0_6detail7value_tE, symObjAddr: 0x159EC, symBinAddr: 0x10001C61C, symSize: 0x1DC }
  - { offsetInCU: 0x41BA4, offset: 0x65C0C, size: 0x8, addend: 0x0, symName: __ZN8nlohmann16json_abi_v3_11_310basic_jsonINSt3__13mapENS2_6vectorENS2_12basic_stringIcNS2_11char_traitsIcEENS2_9allocatorIcEEEEbxydS8_NS0_14adl_serializerENS4_IhNS8_IhEEEEvE6createINS3_ISA_SE_NS2_4lessISA_EENS8_INS2_4pairIKSA_SE_EEEEEEJEEEPT_DpOT0_, symObjAddr: 0x15BF0, symBinAddr: 0x10001C820, symSize: 0xEC }
  - { offsetInCU: 0x41C1F, offset: 0x65C87, size: 0x8, addend: 0x0, symName: __ZN8nlohmann16json_abi_v3_11_310basic_jsonINSt3__13mapENS2_6vectorENS2_12basic_stringIcNS2_11char_traitsIcEENS2_9allocatorIcEEEEbxydS8_NS0_14adl_serializerENS4_IhNS8_IhEEEEvE6createINS4_ISE_NS8_ISE_EEEEJEEEPT_DpOT0_, symObjAddr: 0x15CDC, symBinAddr: 0x10001C90C, symSize: 0xEC }
  - { offsetInCU: 0x41CB0, offset: 0x65D18, size: 0x8, addend: 0x0, symName: __ZN8nlohmann16json_abi_v3_11_310basic_jsonINSt3__13mapENS2_6vectorENS2_12basic_stringIcNS2_11char_traitsIcEENS2_9allocatorIcEEEEbxydS8_NS0_14adl_serializerENS4_IhNS8_IhEEEEvE6createISA_JRA1_KcEEEPT_DpOT0_, symObjAddr: 0x15DC8, symBinAddr: 0x10001C9F8, symSize: 0xF4 }
  - { offsetInCU: 0x41D40, offset: 0x65DA8, size: 0x8, addend: 0x0, symName: __ZN8nlohmann16json_abi_v3_11_310basic_jsonINSt3__13mapENS2_6vectorENS2_12basic_stringIcNS2_11char_traitsIcEENS2_9allocatorIcEEEEbxydS8_NS0_14adl_serializerENS4_IhNS8_IhEEEEvE6createINS0_27byte_container_with_subtypeISD_EEJEEEPT_DpOT0_, symObjAddr: 0x15EBC, symBinAddr: 0x10001CAEC, symSize: 0xEC }
  - { offsetInCU: 0x41DCF, offset: 0x65E37, size: 0x8, addend: 0x0, symName: __ZN8nlohmann16json_abi_v3_11_36detail11other_error6createIDnLi0EEES2_iRKNSt3__112basic_stringIcNS4_11char_traitsIcEENS4_9allocatorIcEEEET_, symObjAddr: 0x15FA8, symBinAddr: 0x10001CBD8, symSize: 0x130 }
  - { offsetInCU: 0x41E30, offset: 0x65E98, size: 0x8, addend: 0x0, symName: __ZN8nlohmann16json_abi_v3_11_36detail11other_errorD1Ev, symObjAddr: 0x160D8, symBinAddr: 0x10001CD08, symSize: 0x2C }
  - { offsetInCU: 0x41E5C, offset: 0x65EC4, size: 0x8, addend: 0x0, symName: __ZNSt3__116allocator_traitsINS_9allocatorINS_3mapINS_12basic_stringIcNS_11char_traitsIcEENS1_IcEEEEN8nlohmann16json_abi_v3_11_310basic_jsonIS2_NS_6vectorES7_bxydS1_NS9_14adl_serializerENSB_IhNS1_IhEEEEvEENS_4lessIS7_EENS1_INS_4pairIKS7_SF_EEEEEEEEE8allocateB7v160006ERSN_m, symObjAddr: 0x16104, symBinAddr: 0x10001CD34, symSize: 0x2C }
  - { offsetInCU: 0x41F1F, offset: 0x65F87, size: 0x8, addend: 0x0, symName: __ZNSt3__110unique_ptrINS_3mapINS_12basic_stringIcNS_11char_traitsIcEENS_9allocatorIcEEEEN8nlohmann16json_abi_v3_11_310basic_jsonIS1_NS_6vectorES7_bxydS5_NS9_14adl_serializerENSB_IhNS5_IhEEEEvEENS_4lessIS7_EENS5_INS_4pairIKS7_SF_EEEEEEZNSF_6createISM_JEEEPT_DpOT0_EUlPSM_E_EC1B7v160006ILb1EvEEST_NS_16__dependent_typeINS_27__unique_ptr_deleter_sfinaeISU_EEXT_EE15__lval_ref_typeE, symObjAddr: 0x16130, symBinAddr: 0x10001CD60, symSize: 0x3C }
  - { offsetInCU: 0x41F6E, offset: 0x65FD6, size: 0x8, addend: 0x0, symName: __ZNSt3__116allocator_traitsINS_9allocatorINS_3mapINS_12basic_stringIcNS_11char_traitsIcEENS1_IcEEEEN8nlohmann16json_abi_v3_11_310basic_jsonIS2_NS_6vectorES7_bxydS1_NS9_14adl_serializerENSB_IhNS1_IhEEEEvEENS_4lessIS7_EENS1_INS_4pairIKS7_SF_EEEEEEEEE9constructB7v160006ISM_JEvEEvRSN_PT_DpOT0_, symObjAddr: 0x1616C, symBinAddr: 0x10001CD9C, symSize: 0x2C }
  - { offsetInCU: 0x41FAF, offset: 0x66017, size: 0x8, addend: 0x0, symName: __ZNKSt3__110unique_ptrINS_3mapINS_12basic_stringIcNS_11char_traitsIcEENS_9allocatorIcEEEEN8nlohmann16json_abi_v3_11_310basic_jsonIS1_NS_6vectorES7_bxydS5_NS9_14adl_serializerENSB_IhNS5_IhEEEEvEENS_4lessIS7_EENS5_INS_4pairIKS7_SF_EEEEEEZNSF_6createISM_JEEEPT_DpOT0_EUlPSM_E_E3getB7v160006Ev, symObjAddr: 0x16198, symBinAddr: 0x10001CDC8, symSize: 0x28 }
  - { offsetInCU: 0x41FD3, offset: 0x6603B, size: 0x8, addend: 0x0, symName: __ZNSt3__110unique_ptrINS_3mapINS_12basic_stringIcNS_11char_traitsIcEENS_9allocatorIcEEEEN8nlohmann16json_abi_v3_11_310basic_jsonIS1_NS_6vectorES7_bxydS5_NS9_14adl_serializerENSB_IhNS5_IhEEEEvEENS_4lessIS7_EENS5_INS_4pairIKS7_SF_EEEEEEZNSF_6createISM_JEEEPT_DpOT0_EUlPSM_E_E7releaseB7v160006Ev, symObjAddr: 0x161EC, symBinAddr: 0x10001CE1C, symSize: 0x44 }
  - { offsetInCU: 0x42007, offset: 0x6606F, size: 0x8, addend: 0x0, symName: __ZNSt3__110unique_ptrINS_3mapINS_12basic_stringIcNS_11char_traitsIcEENS_9allocatorIcEEEEN8nlohmann16json_abi_v3_11_310basic_jsonIS1_NS_6vectorES7_bxydS5_NS9_14adl_serializerENSB_IhNS5_IhEEEEvEENS_4lessIS7_EENS5_INS_4pairIKS7_SF_EEEEEEZNSF_6createISM_JEEEPT_DpOT0_EUlPSM_E_ED1B7v160006Ev, symObjAddr: 0x16230, symBinAddr: 0x10001CE60, symSize: 0x2C }
  - { offsetInCU: 0x4202F, offset: 0x66097, size: 0x8, addend: 0x0, symName: __ZNSt3__19allocatorINS_3mapINS_12basic_stringIcNS_11char_traitsIcEENS0_IcEEEEN8nlohmann16json_abi_v3_11_310basic_jsonIS1_NS_6vectorES6_bxydS0_NS8_14adl_serializerENSA_IhNS0_IhEEEEvEENS_4lessIS6_EENS0_INS_4pairIKS6_SE_EEEEEEE8allocateB7v160006Em, symObjAddr: 0x1625C, symBinAddr: 0x10001CE8C, symSize: 0x5C }
  - { offsetInCU: 0x4206B, offset: 0x660D3, size: 0x8, addend: 0x0, symName: __ZNSt3__116allocator_traitsINS_9allocatorINS_3mapINS_12basic_stringIcNS_11char_traitsIcEENS1_IcEEEEN8nlohmann16json_abi_v3_11_310basic_jsonIS2_NS_6vectorES7_bxydS1_NS9_14adl_serializerENSB_IhNS1_IhEEEEvEENS_4lessIS7_EENS1_INS_4pairIKS7_SF_EEEEEEEEE8max_sizeB7v160006ISN_vEEmRKSN_, symObjAddr: 0x162B8, symBinAddr: 0x10001CEE8, symSize: 0x24 }
  - { offsetInCU: 0x42098, offset: 0x66100, size: 0x8, addend: 0x0, symName: __ZNKSt3__19allocatorINS_3mapINS_12basic_stringIcNS_11char_traitsIcEENS0_IcEEEEN8nlohmann16json_abi_v3_11_310basic_jsonIS1_NS_6vectorES6_bxydS0_NS8_14adl_serializerENSA_IhNS0_IhEEEEvEENS_4lessIS6_EENS0_INS_4pairIKS6_SE_EEEEEEE8max_sizeB7v160006Ev, symObjAddr: 0x162DC, symBinAddr: 0x10001CF0C, symSize: 0x18 }
  - { offsetInCU: 0x420BC, offset: 0x66124, size: 0x8, addend: 0x0, symName: __ZNSt3__110unique_ptrINS_3mapINS_12basic_stringIcNS_11char_traitsIcEENS_9allocatorIcEEEEN8nlohmann16json_abi_v3_11_310basic_jsonIS1_NS_6vectorES7_bxydS5_NS9_14adl_serializerENSB_IhNS5_IhEEEEvEENS_4lessIS7_EENS5_INS_4pairIKS7_SF_EEEEEEZNSF_6createISM_JEEEPT_DpOT0_EUlPSM_E_EC2B7v160006ILb1EvEEST_NS_16__dependent_typeINS_27__unique_ptr_deleter_sfinaeISU_EEXT_EE15__lval_ref_typeE, symObjAddr: 0x162F4, symBinAddr: 0x10001CF24, symSize: 0x48 }
  - { offsetInCU: 0x4210B, offset: 0x66173, size: 0x8, addend: 0x0, symName: __ZNSt3__117__compressed_pairIPNS_3mapINS_12basic_stringIcNS_11char_traitsIcEENS_9allocatorIcEEEEN8nlohmann16json_abi_v3_11_310basic_jsonIS1_NS_6vectorES7_bxydS5_NS9_14adl_serializerENSB_IhNS5_IhEEEEvEENS_4lessIS7_EENS5_INS_4pairIKS7_SF_EEEEEEZNSF_6createISM_JEEEPT_DpOT0_EUlSN_E_EC1B7v160006IRSN_RKSU_EEOSP_OT0_, symObjAddr: 0x1633C, symBinAddr: 0x10001CF6C, symSize: 0x3C }
  - { offsetInCU: 0x42161, offset: 0x661C9, size: 0x8, addend: 0x0, symName: __ZNSt3__117__compressed_pairIPNS_3mapINS_12basic_stringIcNS_11char_traitsIcEENS_9allocatorIcEEEEN8nlohmann16json_abi_v3_11_310basic_jsonIS1_NS_6vectorES7_bxydS5_NS9_14adl_serializerENSB_IhNS5_IhEEEEvEENS_4lessIS7_EENS5_INS_4pairIKS7_SF_EEEEEEZNSF_6createISM_JEEEPT_DpOT0_EUlSN_E_EC2B7v160006IRSN_RKSU_EEOSP_OT0_, symObjAddr: 0x16378, symBinAddr: 0x10001CFA8, symSize: 0x48 }
  - { offsetInCU: 0x421B7, offset: 0x6621F, size: 0x8, addend: 0x0, symName: __ZNSt3__122__compressed_pair_elemIPNS_3mapINS_12basic_stringIcNS_11char_traitsIcEENS_9allocatorIcEEEEN8nlohmann16json_abi_v3_11_310basic_jsonIS1_NS_6vectorES7_bxydS5_NS9_14adl_serializerENSB_IhNS5_IhEEEEvEENS_4lessIS7_EENS5_INS_4pairIKS7_SF_EEEEEELi0ELb0EEC2B7v160006IRSN_vEEOT_, symObjAddr: 0x163C0, symBinAddr: 0x10001CFF0, symSize: 0x24 }
  - { offsetInCU: 0x421F7, offset: 0x6625F, size: 0x8, addend: 0x0, symName: __ZNSt3__122__compressed_pair_elemIZN8nlohmann16json_abi_v3_11_310basic_jsonINS_3mapENS_6vectorENS_12basic_stringIcNS_11char_traitsIcEENS_9allocatorIcEEEEbxydS9_NS2_14adl_serializerENS5_IhNS9_IhEEEEvE6createINS4_ISB_SF_NS_4lessISB_EENS9_INS_4pairIKSB_SF_EEEEEEJEEEPT_DpOT0_EUlPSN_E_Li1ELb0EEC2B7v160006IRKSU_vEEOSO_, symObjAddr: 0x163E4, symBinAddr: 0x10001D014, symSize: 0x24 }
  - { offsetInCU: 0x42237, offset: 0x6629F, size: 0x8, addend: 0x0, symName: __ZNSt3__19allocatorINS_3mapINS_12basic_stringIcNS_11char_traitsIcEENS0_IcEEEEN8nlohmann16json_abi_v3_11_310basic_jsonIS1_NS_6vectorES6_bxydS0_NS8_14adl_serializerENSA_IhNS0_IhEEEEvEENS_4lessIS6_EENS0_INS_4pairIKS6_SE_EEEEEEE9constructB7v160006ISL_JEEEvPT_DpOT0_, symObjAddr: 0x16408, symBinAddr: 0x10001D038, symSize: 0x28 }
  - { offsetInCU: 0x42277, offset: 0x662DF, size: 0x8, addend: 0x0, symName: __ZNSt3__13mapINS_12basic_stringIcNS_11char_traitsIcEENS_9allocatorIcEEEEN8nlohmann16json_abi_v3_11_310basic_jsonIS0_NS_6vectorES6_bxydS4_NS8_14adl_serializerENSA_IhNS4_IhEEEEvEENS_4lessIS6_EENS4_INS_4pairIKS6_SE_EEEEEC1B7v160006Ev, symObjAddr: 0x16430, symBinAddr: 0x10001D060, symSize: 0x2C }
  - { offsetInCU: 0x4229F, offset: 0x66307, size: 0x8, addend: 0x0, symName: __ZNSt3__13mapINS_12basic_stringIcNS_11char_traitsIcEENS_9allocatorIcEEEEN8nlohmann16json_abi_v3_11_310basic_jsonIS0_NS_6vectorES6_bxydS4_NS8_14adl_serializerENSA_IhNS4_IhEEEEvEENS_4lessIS6_EENS4_INS_4pairIKS6_SE_EEEEEC2B7v160006Ev, symObjAddr: 0x1645C, symBinAddr: 0x10001D08C, symSize: 0x40 }
  - { offsetInCU: 0x422C7, offset: 0x6632F, size: 0x8, addend: 0x0, symName: __ZNSt3__119__map_value_compareINS_12basic_stringIcNS_11char_traitsIcEENS_9allocatorIcEEEENS_12__value_typeIS6_N8nlohmann16json_abi_v3_11_310basic_jsonINS_3mapENS_6vectorES6_bxydS4_NS9_14adl_serializerENSC_IhNS4_IhEEEEvEEEENS_4lessIS6_EELb1EEC1B7v160006ESJ_, symObjAddr: 0x1649C, symBinAddr: 0x10001D0CC, symSize: 0x2C }
  - { offsetInCU: 0x422FE, offset: 0x66366, size: 0x8, addend: 0x0, symName: __ZNSt3__16__treeINS_12__value_typeINS_12basic_stringIcNS_11char_traitsIcEENS_9allocatorIcEEEEN8nlohmann16json_abi_v3_11_310basic_jsonINS_3mapENS_6vectorES7_bxydS5_NS9_14adl_serializerENSC_IhNS5_IhEEEEvEEEENS_19__map_value_compareIS7_SH_NS_4lessIS7_EELb1EEENS5_ISH_EEEC1ERKSL_, symObjAddr: 0x164C8, symBinAddr: 0x10001D0F8, symSize: 0x34 }
  - { offsetInCU: 0x42338, offset: 0x663A0, size: 0x8, addend: 0x0, symName: __ZNSt3__119__map_value_compareINS_12basic_stringIcNS_11char_traitsIcEENS_9allocatorIcEEEENS_12__value_typeIS6_N8nlohmann16json_abi_v3_11_310basic_jsonINS_3mapENS_6vectorES6_bxydS4_NS9_14adl_serializerENSC_IhNS4_IhEEEEvEEEENS_4lessIS6_EELb1EEC2B7v160006ESJ_, symObjAddr: 0x164FC, symBinAddr: 0x10001D12C, symSize: 0x14 }
  - { offsetInCU: 0x4236F, offset: 0x663D7, size: 0x8, addend: 0x0, symName: __ZNSt3__16__treeINS_12__value_typeINS_12basic_stringIcNS_11char_traitsIcEENS_9allocatorIcEEEEN8nlohmann16json_abi_v3_11_310basic_jsonINS_3mapENS_6vectorES7_bxydS5_NS9_14adl_serializerENSC_IhNS5_IhEEEEvEEEENS_19__map_value_compareIS7_SH_NS_4lessIS7_EELb1EEENS5_ISH_EEEC2ERKSL_, symObjAddr: 0x16510, symBinAddr: 0x10001D140, symSize: 0x7C }
  - { offsetInCU: 0x423A9, offset: 0x66411, size: 0x8, addend: 0x0, symName: __ZNSt3__117__compressed_pairINS_15__tree_end_nodeIPNS_16__tree_node_baseIPvEEEENS_9allocatorINS_11__tree_nodeINS_12__value_typeINS_12basic_stringIcNS_11char_traitsIcEENS7_IcEEEEN8nlohmann16json_abi_v3_11_310basic_jsonINS_3mapENS_6vectorESE_bxydS7_NSG_14adl_serializerENSJ_IhNS7_IhEEEEvEEEES3_EEEEEC1B7v160006ILb1EvEEv, symObjAddr: 0x1658C, symBinAddr: 0x10001D1BC, symSize: 0x2C }
  - { offsetInCU: 0x423DC, offset: 0x66444, size: 0x8, addend: 0x0, symName: __ZNSt3__117__compressed_pairImNS_19__map_value_compareINS_12basic_stringIcNS_11char_traitsIcEENS_9allocatorIcEEEENS_12__value_typeIS7_N8nlohmann16json_abi_v3_11_310basic_jsonINS_3mapENS_6vectorES7_bxydS5_NSA_14adl_serializerENSD_IhNS5_IhEEEEvEEEENS_4lessIS7_EELb1EEEEC1B7v160006IiRKSL_EEOT_OT0_, symObjAddr: 0x165B8, symBinAddr: 0x10001D1E8, symSize: 0x3C }
  - { offsetInCU: 0x42432, offset: 0x6649A, size: 0x8, addend: 0x0, symName: __ZNSt3__117__compressed_pairINS_15__tree_end_nodeIPNS_16__tree_node_baseIPvEEEENS_9allocatorINS_11__tree_nodeINS_12__value_typeINS_12basic_stringIcNS_11char_traitsIcEENS7_IcEEEEN8nlohmann16json_abi_v3_11_310basic_jsonINS_3mapENS_6vectorESE_bxydS7_NSG_14adl_serializerENSJ_IhNS7_IhEEEEvEEEES3_EEEEEC2B7v160006ILb1EvEEv, symObjAddr: 0x165F4, symBinAddr: 0x10001D224, symSize: 0x34 }
  - { offsetInCU: 0x42465, offset: 0x664CD, size: 0x8, addend: 0x0, symName: __ZNSt3__122__compressed_pair_elemINS_15__tree_end_nodeIPNS_16__tree_node_baseIPvEEEELi0ELb0EEC2B7v160006ENS_16__value_init_tagE, symObjAddr: 0x16628, symBinAddr: 0x10001D258, symSize: 0x2C }
  - { offsetInCU: 0x42497, offset: 0x664FF, size: 0x8, addend: 0x0, symName: __ZNSt3__122__compressed_pair_elemINS_9allocatorINS_11__tree_nodeINS_12__value_typeINS_12basic_stringIcNS_11char_traitsIcEENS1_IcEEEEN8nlohmann16json_abi_v3_11_310basic_jsonINS_3mapENS_6vectorES8_bxydS1_NSA_14adl_serializerENSD_IhNS1_IhEEEEvEEEEPvEEEELi1ELb1EEC2B7v160006ENS_16__value_init_tagE, symObjAddr: 0x16654, symBinAddr: 0x10001D284, symSize: 0x2C }
  - { offsetInCU: 0x424C9, offset: 0x66531, size: 0x8, addend: 0x0, symName: __ZNSt3__115__tree_end_nodeIPNS_16__tree_node_baseIPvEEEC1B7v160006Ev, symObjAddr: 0x16680, symBinAddr: 0x10001D2B0, symSize: 0x2C }
  - { offsetInCU: 0x424F1, offset: 0x66559, size: 0x8, addend: 0x0, symName: __ZNSt3__115__tree_end_nodeIPNS_16__tree_node_baseIPvEEEC2B7v160006Ev, symObjAddr: 0x166AC, symBinAddr: 0x10001D2DC, symSize: 0x18 }
  - { offsetInCU: 0x42519, offset: 0x66581, size: 0x8, addend: 0x0, symName: __ZNSt3__19allocatorINS_11__tree_nodeINS_12__value_typeINS_12basic_stringIcNS_11char_traitsIcEENS0_IcEEEEN8nlohmann16json_abi_v3_11_310basic_jsonINS_3mapENS_6vectorES7_bxydS0_NS9_14adl_serializerENSC_IhNS0_IhEEEEvEEEEPvEEEC2B7v160006Ev, symObjAddr: 0x166C4, symBinAddr: 0x10001D2F4, symSize: 0x2C }
  - { offsetInCU: 0x42541, offset: 0x665A9, size: 0x8, addend: 0x0, symName: __ZNSt3__116__non_trivial_ifILb1ENS_9allocatorINS_11__tree_nodeINS_12__value_typeINS_12basic_stringIcNS_11char_traitsIcEENS1_IcEEEEN8nlohmann16json_abi_v3_11_310basic_jsonINS_3mapENS_6vectorES8_bxydS1_NSA_14adl_serializerENSD_IhNS1_IhEEEEvEEEEPvEEEEEC2B7v160006Ev, symObjAddr: 0x166F0, symBinAddr: 0x10001D320, symSize: 0x14 }
  - { offsetInCU: 0x42569, offset: 0x665D1, size: 0x8, addend: 0x0, symName: __ZNSt3__117__compressed_pairImNS_19__map_value_compareINS_12basic_stringIcNS_11char_traitsIcEENS_9allocatorIcEEEENS_12__value_typeIS7_N8nlohmann16json_abi_v3_11_310basic_jsonINS_3mapENS_6vectorES7_bxydS5_NSA_14adl_serializerENSD_IhNS5_IhEEEEvEEEENS_4lessIS7_EELb1EEEEC2B7v160006IiRKSL_EEOT_OT0_, symObjAddr: 0x16704, symBinAddr: 0x10001D334, symSize: 0x44 }
  - { offsetInCU: 0x425BF, offset: 0x66627, size: 0x8, addend: 0x0, symName: __ZNSt3__122__compressed_pair_elemINS_19__map_value_compareINS_12basic_stringIcNS_11char_traitsIcEENS_9allocatorIcEEEENS_12__value_typeIS7_N8nlohmann16json_abi_v3_11_310basic_jsonINS_3mapENS_6vectorES7_bxydS5_NSA_14adl_serializerENSD_IhNS5_IhEEEEvEEEENS_4lessIS7_EELb1EEELi1ELb1EEC2B7v160006IRKSL_vEEOT_, symObjAddr: 0x1676C, symBinAddr: 0x10001D378, symSize: 0x18 }
  - { offsetInCU: 0x425FF, offset: 0x66667, size: 0x8, addend: 0x0, symName: __ZNKSt3__117__compressed_pairIPNS_3mapINS_12basic_stringIcNS_11char_traitsIcEENS_9allocatorIcEEEEN8nlohmann16json_abi_v3_11_310basic_jsonIS1_NS_6vectorES7_bxydS5_NS9_14adl_serializerENSB_IhNS5_IhEEEEvEENS_4lessIS7_EENS5_INS_4pairIKS7_SF_EEEEEEZNSF_6createISM_JEEEPT_DpOT0_EUlSN_E_E5firstB7v160006Ev, symObjAddr: 0x16784, symBinAddr: 0x10001D390, symSize: 0x24 }
  - { offsetInCU: 0x42623, offset: 0x6668B, size: 0x8, addend: 0x0, symName: __ZNKSt3__122__compressed_pair_elemIPNS_3mapINS_12basic_stringIcNS_11char_traitsIcEENS_9allocatorIcEEEEN8nlohmann16json_abi_v3_11_310basic_jsonIS1_NS_6vectorES7_bxydS5_NS9_14adl_serializerENSB_IhNS5_IhEEEEvEENS_4lessIS7_EENS5_INS_4pairIKS7_SF_EEEEEELi0ELb0EE5__getB7v160006Ev, symObjAddr: 0x167A8, symBinAddr: 0x10001D3B4, symSize: 0x14 }
  - { offsetInCU: 0x42647, offset: 0x666AF, size: 0x8, addend: 0x0, symName: __ZNKSt3__110unique_ptrINS_3mapINS_12basic_stringIcNS_11char_traitsIcEENS_9allocatorIcEEEEN8nlohmann16json_abi_v3_11_310basic_jsonIS1_NS_6vectorES7_bxydS5_NS9_14adl_serializerENSB_IhNS5_IhEEEEvEENS_4lessIS7_EENS5_INS_4pairIKS7_SF_EEEEEEZNSF_6createISM_JEEEPT_DpOT0_EUlPSM_E_EcvbB7v160006Ev, symObjAddr: 0x167BC, symBinAddr: 0x10001D3C8, symSize: 0x34 }
  - { offsetInCU: 0x4266B, offset: 0x666D3, size: 0x8, addend: 0x0, symName: __ZNSt3__117__compressed_pairIPNS_3mapINS_12basic_stringIcNS_11char_traitsIcEENS_9allocatorIcEEEEN8nlohmann16json_abi_v3_11_310basic_jsonIS1_NS_6vectorES7_bxydS5_NS9_14adl_serializerENSB_IhNS5_IhEEEEvEENS_4lessIS7_EENS5_INS_4pairIKS7_SF_EEEEEEZNSF_6createISM_JEEEPT_DpOT0_EUlSN_E_E5firstB7v160006Ev, symObjAddr: 0x167F0, symBinAddr: 0x10001D3FC, symSize: 0x24 }
  - { offsetInCU: 0x4268F, offset: 0x666F7, size: 0x8, addend: 0x0, symName: __ZNSt3__122__compressed_pair_elemIPNS_3mapINS_12basic_stringIcNS_11char_traitsIcEENS_9allocatorIcEEEEN8nlohmann16json_abi_v3_11_310basic_jsonIS1_NS_6vectorES7_bxydS5_NS9_14adl_serializerENSB_IhNS5_IhEEEEvEENS_4lessIS7_EENS5_INS_4pairIKS7_SF_EEEEEELi0ELb0EE5__getB7v160006Ev, symObjAddr: 0x16814, symBinAddr: 0x10001D420, symSize: 0x14 }
  - { offsetInCU: 0x426B3, offset: 0x6671B, size: 0x8, addend: 0x0, symName: __ZNSt3__110unique_ptrINS_3mapINS_12basic_stringIcNS_11char_traitsIcEENS_9allocatorIcEEEEN8nlohmann16json_abi_v3_11_310basic_jsonIS1_NS_6vectorES7_bxydS5_NS9_14adl_serializerENSB_IhNS5_IhEEEEvEENS_4lessIS7_EENS5_INS_4pairIKS7_SF_EEEEEEZNSF_6createISM_JEEEPT_DpOT0_EUlPSM_E_ED2B7v160006Ev, symObjAddr: 0x16828, symBinAddr: 0x10001D434, symSize: 0x30 }
  - { offsetInCU: 0x426DB, offset: 0x66743, size: 0x8, addend: 0x0, symName: __ZNSt3__110unique_ptrINS_3mapINS_12basic_stringIcNS_11char_traitsIcEENS_9allocatorIcEEEEN8nlohmann16json_abi_v3_11_310basic_jsonIS1_NS_6vectorES7_bxydS5_NS9_14adl_serializerENSB_IhNS5_IhEEEEvEENS_4lessIS7_EENS5_INS_4pairIKS7_SF_EEEEEEZNSF_6createISM_JEEEPT_DpOT0_EUlPSM_E_E5resetB7v160006EST_, symObjAddr: 0x16858, symBinAddr: 0x10001D464, symSize: 0x80 }
  - { offsetInCU: 0x4271E, offset: 0x66786, size: 0x8, addend: 0x0, symName: __ZNSt3__117__compressed_pairIPNS_3mapINS_12basic_stringIcNS_11char_traitsIcEENS_9allocatorIcEEEEN8nlohmann16json_abi_v3_11_310basic_jsonIS1_NS_6vectorES7_bxydS5_NS9_14adl_serializerENSB_IhNS5_IhEEEEvEENS_4lessIS7_EENS5_INS_4pairIKS7_SF_EEEEEEZNSF_6createISM_JEEEPT_DpOT0_EUlSN_E_E6secondB7v160006Ev, symObjAddr: 0x168D8, symBinAddr: 0x10001D4E4, symSize: 0x28 }
  - { offsetInCU: 0x42742, offset: 0x667AA, size: 0x8, addend: 0x0, symName: __ZZN8nlohmann16json_abi_v3_11_310basic_jsonINSt3__13mapENS2_6vectorENS2_12basic_stringIcNS2_11char_traitsIcEENS2_9allocatorIcEEEEbxydS8_NS0_14adl_serializerENS4_IhNS8_IhEEEEvE6createINS3_ISA_SE_NS2_4lessISA_EENS8_INS2_4pairIKSA_SE_EEEEEEJEEEPT_DpOT0_ENKUlPSM_E_clESS_, symObjAddr: 0x16900, symBinAddr: 0x10001D50C, symSize: 0x34 }
  - { offsetInCU: 0x42779, offset: 0x667E1, size: 0x8, addend: 0x0, symName: __ZNSt3__122__compressed_pair_elemIZN8nlohmann16json_abi_v3_11_310basic_jsonINS_3mapENS_6vectorENS_12basic_stringIcNS_11char_traitsIcEENS_9allocatorIcEEEEbxydS9_NS2_14adl_serializerENS5_IhNS9_IhEEEEvE6createINS4_ISB_SF_NS_4lessISB_EENS9_INS_4pairIKSB_SF_EEEEEEJEEEPT_DpOT0_EUlPSN_E_Li1ELb0EE5__getB7v160006Ev, symObjAddr: 0x16934, symBinAddr: 0x10001D540, symSize: 0x14 }
  - { offsetInCU: 0x4279D, offset: 0x66805, size: 0x8, addend: 0x0, symName: __ZNSt3__116allocator_traitsINS_9allocatorINS_6vectorIN8nlohmann16json_abi_v3_11_310basic_jsonINS_3mapES2_NS_12basic_stringIcNS_11char_traitsIcEENS1_IcEEEEbxydS1_NS4_14adl_serializerENS2_IhNS1_IhEEEEvEENS1_ISF_EEEEEEE8allocateB7v160006ERSI_m, symObjAddr: 0x16948, symBinAddr: 0x10001D554, symSize: 0x2C }
  - { offsetInCU: 0x42860, offset: 0x668C8, size: 0x8, addend: 0x0, symName: __ZNSt3__110unique_ptrINS_6vectorIN8nlohmann16json_abi_v3_11_310basic_jsonINS_3mapES1_NS_12basic_stringIcNS_11char_traitsIcEENS_9allocatorIcEEEEbxydS9_NS3_14adl_serializerENS1_IhNS9_IhEEEEvEENS9_ISF_EEEEZNSF_6createISH_JEEEPT_DpOT0_EUlPSH_E_EC1B7v160006ILb1EvEESO_NS_16__dependent_typeINS_27__unique_ptr_deleter_sfinaeISP_EEXT_EE15__lval_ref_typeE, symObjAddr: 0x16974, symBinAddr: 0x10001D580, symSize: 0x3C }
  - { offsetInCU: 0x428AF, offset: 0x66917, size: 0x8, addend: 0x0, symName: __ZNSt3__116allocator_traitsINS_9allocatorINS_6vectorIN8nlohmann16json_abi_v3_11_310basic_jsonINS_3mapES2_NS_12basic_stringIcNS_11char_traitsIcEENS1_IcEEEEbxydS1_NS4_14adl_serializerENS2_IhNS1_IhEEEEvEENS1_ISF_EEEEEEE9constructB7v160006ISH_JEvEEvRSI_PT_DpOT0_, symObjAddr: 0x169B0, symBinAddr: 0x10001D5BC, symSize: 0x2C }
  - { offsetInCU: 0x428F0, offset: 0x66958, size: 0x8, addend: 0x0, symName: __ZNKSt3__110unique_ptrINS_6vectorIN8nlohmann16json_abi_v3_11_310basic_jsonINS_3mapES1_NS_12basic_stringIcNS_11char_traitsIcEENS_9allocatorIcEEEEbxydS9_NS3_14adl_serializerENS1_IhNS9_IhEEEEvEENS9_ISF_EEEEZNSF_6createISH_JEEEPT_DpOT0_EUlPSH_E_E3getB7v160006Ev, symObjAddr: 0x169DC, symBinAddr: 0x10001D5E8, symSize: 0x28 }
  - { offsetInCU: 0x42914, offset: 0x6697C, size: 0x8, addend: 0x0, symName: __ZNSt3__110unique_ptrINS_6vectorIN8nlohmann16json_abi_v3_11_310basic_jsonINS_3mapES1_NS_12basic_stringIcNS_11char_traitsIcEENS_9allocatorIcEEEEbxydS9_NS3_14adl_serializerENS1_IhNS9_IhEEEEvEENS9_ISF_EEEEZNSF_6createISH_JEEEPT_DpOT0_EUlPSH_E_E7releaseB7v160006Ev, symObjAddr: 0x16A30, symBinAddr: 0x10001D63C, symSize: 0x44 }
  - { offsetInCU: 0x42948, offset: 0x669B0, size: 0x8, addend: 0x0, symName: __ZNSt3__110unique_ptrINS_6vectorIN8nlohmann16json_abi_v3_11_310basic_jsonINS_3mapES1_NS_12basic_stringIcNS_11char_traitsIcEENS_9allocatorIcEEEEbxydS9_NS3_14adl_serializerENS1_IhNS9_IhEEEEvEENS9_ISF_EEEEZNSF_6createISH_JEEEPT_DpOT0_EUlPSH_E_ED1B7v160006Ev, symObjAddr: 0x16A74, symBinAddr: 0x10001D680, symSize: 0x2C }
  - { offsetInCU: 0x42970, offset: 0x669D8, size: 0x8, addend: 0x0, symName: __ZNSt3__19allocatorINS_6vectorIN8nlohmann16json_abi_v3_11_310basic_jsonINS_3mapES1_NS_12basic_stringIcNS_11char_traitsIcEENS0_IcEEEEbxydS0_NS3_14adl_serializerENS1_IhNS0_IhEEEEvEENS0_ISE_EEEEE8allocateB7v160006Em, symObjAddr: 0x16AA0, symBinAddr: 0x10001D6AC, symSize: 0x5C }
  - { offsetInCU: 0x429AC, offset: 0x66A14, size: 0x8, addend: 0x0, symName: __ZNSt3__116allocator_traitsINS_9allocatorINS_6vectorIN8nlohmann16json_abi_v3_11_310basic_jsonINS_3mapES2_NS_12basic_stringIcNS_11char_traitsIcEENS1_IcEEEEbxydS1_NS4_14adl_serializerENS2_IhNS1_IhEEEEvEENS1_ISF_EEEEEEE8max_sizeB7v160006ISI_vEEmRKSI_, symObjAddr: 0x16AFC, symBinAddr: 0x10001D708, symSize: 0x24 }
  - { offsetInCU: 0x429D9, offset: 0x66A41, size: 0x8, addend: 0x0, symName: __ZNKSt3__19allocatorINS_6vectorIN8nlohmann16json_abi_v3_11_310basic_jsonINS_3mapES1_NS_12basic_stringIcNS_11char_traitsIcEENS0_IcEEEEbxydS0_NS3_14adl_serializerENS1_IhNS0_IhEEEEvEENS0_ISE_EEEEE8max_sizeB7v160006Ev, symObjAddr: 0x16B20, symBinAddr: 0x10001D72C, symSize: 0x18 }
  - { offsetInCU: 0x429FD, offset: 0x66A65, size: 0x8, addend: 0x0, symName: __ZNSt3__110unique_ptrINS_6vectorIN8nlohmann16json_abi_v3_11_310basic_jsonINS_3mapES1_NS_12basic_stringIcNS_11char_traitsIcEENS_9allocatorIcEEEEbxydS9_NS3_14adl_serializerENS1_IhNS9_IhEEEEvEENS9_ISF_EEEEZNSF_6createISH_JEEEPT_DpOT0_EUlPSH_E_EC2B7v160006ILb1EvEESO_NS_16__dependent_typeINS_27__unique_ptr_deleter_sfinaeISP_EEXT_EE15__lval_ref_typeE, symObjAddr: 0x16B38, symBinAddr: 0x10001D744, symSize: 0x48 }
  - { offsetInCU: 0x42A4C, offset: 0x66AB4, size: 0x8, addend: 0x0, symName: __ZNSt3__117__compressed_pairIPNS_6vectorIN8nlohmann16json_abi_v3_11_310basic_jsonINS_3mapES1_NS_12basic_stringIcNS_11char_traitsIcEENS_9allocatorIcEEEEbxydS9_NS3_14adl_serializerENS1_IhNS9_IhEEEEvEENS9_ISF_EEEEZNSF_6createISH_JEEEPT_DpOT0_EUlSI_E_EC1B7v160006IRSI_RKSP_EEOSK_OT0_, symObjAddr: 0x16B80, symBinAddr: 0x10001D78C, symSize: 0x3C }
  - { offsetInCU: 0x42AA2, offset: 0x66B0A, size: 0x8, addend: 0x0, symName: __ZNSt3__117__compressed_pairIPNS_6vectorIN8nlohmann16json_abi_v3_11_310basic_jsonINS_3mapES1_NS_12basic_stringIcNS_11char_traitsIcEENS_9allocatorIcEEEEbxydS9_NS3_14adl_serializerENS1_IhNS9_IhEEEEvEENS9_ISF_EEEEZNSF_6createISH_JEEEPT_DpOT0_EUlSI_E_EC2B7v160006IRSI_RKSP_EEOSK_OT0_, symObjAddr: 0x16BBC, symBinAddr: 0x10001D7C8, symSize: 0x48 }
  - { offsetInCU: 0x42AF8, offset: 0x66B60, size: 0x8, addend: 0x0, symName: __ZNSt3__122__compressed_pair_elemIPNS_6vectorIN8nlohmann16json_abi_v3_11_310basic_jsonINS_3mapES1_NS_12basic_stringIcNS_11char_traitsIcEENS_9allocatorIcEEEEbxydS9_NS3_14adl_serializerENS1_IhNS9_IhEEEEvEENS9_ISF_EEEELi0ELb0EEC2B7v160006IRSI_vEEOT_, symObjAddr: 0x16C04, symBinAddr: 0x10001D810, symSize: 0x24 }
  - { offsetInCU: 0x42B38, offset: 0x66BA0, size: 0x8, addend: 0x0, symName: __ZNSt3__122__compressed_pair_elemIZN8nlohmann16json_abi_v3_11_310basic_jsonINS_3mapENS_6vectorENS_12basic_stringIcNS_11char_traitsIcEENS_9allocatorIcEEEEbxydS9_NS2_14adl_serializerENS5_IhNS9_IhEEEEvE6createINS5_ISF_NS9_ISF_EEEEJEEEPT_DpOT0_EUlPSI_E_Li1ELb0EEC2B7v160006IRKSP_vEEOSJ_, symObjAddr: 0x16C28, symBinAddr: 0x10001D834, symSize: 0x24 }
  - { offsetInCU: 0x42B78, offset: 0x66BE0, size: 0x8, addend: 0x0, symName: __ZNSt3__19allocatorINS_6vectorIN8nlohmann16json_abi_v3_11_310basic_jsonINS_3mapES1_NS_12basic_stringIcNS_11char_traitsIcEENS0_IcEEEEbxydS0_NS3_14adl_serializerENS1_IhNS0_IhEEEEvEENS0_ISE_EEEEE9constructB7v160006ISG_JEEEvPT_DpOT0_, symObjAddr: 0x16C4C, symBinAddr: 0x10001D858, symSize: 0x28 }
  - { offsetInCU: 0x42BB8, offset: 0x66C20, size: 0x8, addend: 0x0, symName: __ZNKSt3__117__compressed_pairIPNS_6vectorIN8nlohmann16json_abi_v3_11_310basic_jsonINS_3mapES1_NS_12basic_stringIcNS_11char_traitsIcEENS_9allocatorIcEEEEbxydS9_NS3_14adl_serializerENS1_IhNS9_IhEEEEvEENS9_ISF_EEEEZNSF_6createISH_JEEEPT_DpOT0_EUlSI_E_E5firstB7v160006Ev, symObjAddr: 0x16C74, symBinAddr: 0x10001D880, symSize: 0x24 }
  - { offsetInCU: 0x42BDC, offset: 0x66C44, size: 0x8, addend: 0x0, symName: __ZNKSt3__122__compressed_pair_elemIPNS_6vectorIN8nlohmann16json_abi_v3_11_310basic_jsonINS_3mapES1_NS_12basic_stringIcNS_11char_traitsIcEENS_9allocatorIcEEEEbxydS9_NS3_14adl_serializerENS1_IhNS9_IhEEEEvEENS9_ISF_EEEELi0ELb0EE5__getB7v160006Ev, symObjAddr: 0x16C98, symBinAddr: 0x10001D8A4, symSize: 0x14 }
  - { offsetInCU: 0x42C00, offset: 0x66C68, size: 0x8, addend: 0x0, symName: __ZNKSt3__110unique_ptrINS_6vectorIN8nlohmann16json_abi_v3_11_310basic_jsonINS_3mapES1_NS_12basic_stringIcNS_11char_traitsIcEENS_9allocatorIcEEEEbxydS9_NS3_14adl_serializerENS1_IhNS9_IhEEEEvEENS9_ISF_EEEEZNSF_6createISH_JEEEPT_DpOT0_EUlPSH_E_EcvbB7v160006Ev, symObjAddr: 0x16CAC, symBinAddr: 0x10001D8B8, symSize: 0x34 }
  - { offsetInCU: 0x42C24, offset: 0x66C8C, size: 0x8, addend: 0x0, symName: __ZNSt3__117__compressed_pairIPNS_6vectorIN8nlohmann16json_abi_v3_11_310basic_jsonINS_3mapES1_NS_12basic_stringIcNS_11char_traitsIcEENS_9allocatorIcEEEEbxydS9_NS3_14adl_serializerENS1_IhNS9_IhEEEEvEENS9_ISF_EEEEZNSF_6createISH_JEEEPT_DpOT0_EUlSI_E_E5firstB7v160006Ev, symObjAddr: 0x16CE0, symBinAddr: 0x10001D8EC, symSize: 0x24 }
  - { offsetInCU: 0x42C48, offset: 0x66CB0, size: 0x8, addend: 0x0, symName: __ZNSt3__122__compressed_pair_elemIPNS_6vectorIN8nlohmann16json_abi_v3_11_310basic_jsonINS_3mapES1_NS_12basic_stringIcNS_11char_traitsIcEENS_9allocatorIcEEEEbxydS9_NS3_14adl_serializerENS1_IhNS9_IhEEEEvEENS9_ISF_EEEELi0ELb0EE5__getB7v160006Ev, symObjAddr: 0x16D04, symBinAddr: 0x10001D910, symSize: 0x14 }
  - { offsetInCU: 0x42C6C, offset: 0x66CD4, size: 0x8, addend: 0x0, symName: __ZNSt3__110unique_ptrINS_6vectorIN8nlohmann16json_abi_v3_11_310basic_jsonINS_3mapES1_NS_12basic_stringIcNS_11char_traitsIcEENS_9allocatorIcEEEEbxydS9_NS3_14adl_serializerENS1_IhNS9_IhEEEEvEENS9_ISF_EEEEZNSF_6createISH_JEEEPT_DpOT0_EUlPSH_E_ED2B7v160006Ev, symObjAddr: 0x16D18, symBinAddr: 0x10001D924, symSize: 0x30 }
  - { offsetInCU: 0x42C94, offset: 0x66CFC, size: 0x8, addend: 0x0, symName: __ZNSt3__110unique_ptrINS_6vectorIN8nlohmann16json_abi_v3_11_310basic_jsonINS_3mapES1_NS_12basic_stringIcNS_11char_traitsIcEENS_9allocatorIcEEEEbxydS9_NS3_14adl_serializerENS1_IhNS9_IhEEEEvEENS9_ISF_EEEEZNSF_6createISH_JEEEPT_DpOT0_EUlPSH_E_E5resetB7v160006ESO_, symObjAddr: 0x16D48, symBinAddr: 0x10001D954, symSize: 0x80 }
  - { offsetInCU: 0x42CD7, offset: 0x66D3F, size: 0x8, addend: 0x0, symName: __ZNSt3__117__compressed_pairIPNS_6vectorIN8nlohmann16json_abi_v3_11_310basic_jsonINS_3mapES1_NS_12basic_stringIcNS_11char_traitsIcEENS_9allocatorIcEEEEbxydS9_NS3_14adl_serializerENS1_IhNS9_IhEEEEvEENS9_ISF_EEEEZNSF_6createISH_JEEEPT_DpOT0_EUlSI_E_E6secondB7v160006Ev, symObjAddr: 0x16DC8, symBinAddr: 0x10001D9D4, symSize: 0x28 }
  - { offsetInCU: 0x42CFB, offset: 0x66D63, size: 0x8, addend: 0x0, symName: __ZZN8nlohmann16json_abi_v3_11_310basic_jsonINSt3__13mapENS2_6vectorENS2_12basic_stringIcNS2_11char_traitsIcEENS2_9allocatorIcEEEEbxydS8_NS0_14adl_serializerENS4_IhNS8_IhEEEEvE6createINS4_ISE_NS8_ISE_EEEEJEEEPT_DpOT0_ENKUlPSH_E_clESN_, symObjAddr: 0x16DF0, symBinAddr: 0x10001D9FC, symSize: 0x34 }
  - { offsetInCU: 0x42D32, offset: 0x66D9A, size: 0x8, addend: 0x0, symName: __ZNSt3__122__compressed_pair_elemIZN8nlohmann16json_abi_v3_11_310basic_jsonINS_3mapENS_6vectorENS_12basic_stringIcNS_11char_traitsIcEENS_9allocatorIcEEEEbxydS9_NS2_14adl_serializerENS5_IhNS9_IhEEEEvE6createINS5_ISF_NS9_ISF_EEEEJEEEPT_DpOT0_EUlPSI_E_Li1ELb0EE5__getB7v160006Ev, symObjAddr: 0x16E24, symBinAddr: 0x10001DA30, symSize: 0x14 }
  - { offsetInCU: 0x42D56, offset: 0x66DBE, size: 0x8, addend: 0x0, symName: __ZNSt3__116allocator_traitsINS_9allocatorINS_12basic_stringIcNS_11char_traitsIcEENS1_IcEEEEEEE8allocateB7v160006ERS7_m, symObjAddr: 0x16E38, symBinAddr: 0x10001DA44, symSize: 0x2C }
  - { offsetInCU: 0x42DF1, offset: 0x66E59, size: 0x8, addend: 0x0, symName: __ZNSt3__110unique_ptrINS_12basic_stringIcNS_11char_traitsIcEENS_9allocatorIcEEEEZN8nlohmann16json_abi_v3_11_310basic_jsonINS_3mapENS_6vectorES6_bxydS4_NS8_14adl_serializerENSB_IhNS4_IhEEEEvE6createIS6_JRA1_KcEEEPT_DpOT0_EUlPS6_E_EC1B7v160006ILb1EvEESP_NS_16__dependent_typeINS_27__unique_ptr_deleter_sfinaeISQ_EEXT_EE15__lval_ref_typeE, symObjAddr: 0x16E64, symBinAddr: 0x10001DA70, symSize: 0x3C }
  - { offsetInCU: 0x42E40, offset: 0x66EA8, size: 0x8, addend: 0x0, symName: __ZNSt3__116allocator_traitsINS_9allocatorINS_12basic_stringIcNS_11char_traitsIcEENS1_IcEEEEEEE9constructB7v160006IS6_JRA1_KcEvEEvRS7_PT_DpOT0_, symObjAddr: 0x16EA0, symBinAddr: 0x10001DAAC, symSize: 0x34 }
  - { offsetInCU: 0x42E96, offset: 0x66EFE, size: 0x8, addend: 0x0, symName: __ZNKSt3__110unique_ptrINS_12basic_stringIcNS_11char_traitsIcEENS_9allocatorIcEEEEZN8nlohmann16json_abi_v3_11_310basic_jsonINS_3mapENS_6vectorES6_bxydS4_NS8_14adl_serializerENSB_IhNS4_IhEEEEvE6createIS6_JRA1_KcEEEPT_DpOT0_EUlPS6_E_E3getB7v160006Ev, symObjAddr: 0x16ED4, symBinAddr: 0x10001DAE0, symSize: 0x28 }
  - { offsetInCU: 0x42EBA, offset: 0x66F22, size: 0x8, addend: 0x0, symName: __ZNSt3__110unique_ptrINS_12basic_stringIcNS_11char_traitsIcEENS_9allocatorIcEEEEZN8nlohmann16json_abi_v3_11_310basic_jsonINS_3mapENS_6vectorES6_bxydS4_NS8_14adl_serializerENSB_IhNS4_IhEEEEvE6createIS6_JRA1_KcEEEPT_DpOT0_EUlPS6_E_E7releaseB7v160006Ev, symObjAddr: 0x16F28, symBinAddr: 0x10001DB34, symSize: 0x44 }
  - { offsetInCU: 0x42EEE, offset: 0x66F56, size: 0x8, addend: 0x0, symName: __ZNSt3__110unique_ptrINS_12basic_stringIcNS_11char_traitsIcEENS_9allocatorIcEEEEZN8nlohmann16json_abi_v3_11_310basic_jsonINS_3mapENS_6vectorES6_bxydS4_NS8_14adl_serializerENSB_IhNS4_IhEEEEvE6createIS6_JRA1_KcEEEPT_DpOT0_EUlPS6_E_ED1B7v160006Ev, symObjAddr: 0x16F6C, symBinAddr: 0x10001DB78, symSize: 0x2C }
  - { offsetInCU: 0x42F16, offset: 0x66F7E, size: 0x8, addend: 0x0, symName: __ZNSt3__110unique_ptrINS_12basic_stringIcNS_11char_traitsIcEENS_9allocatorIcEEEEZN8nlohmann16json_abi_v3_11_310basic_jsonINS_3mapENS_6vectorES6_bxydS4_NS8_14adl_serializerENSB_IhNS4_IhEEEEvE6createIS6_JRA1_KcEEEPT_DpOT0_EUlPS6_E_EC2B7v160006ILb1EvEESP_NS_16__dependent_typeINS_27__unique_ptr_deleter_sfinaeISQ_EEXT_EE15__lval_ref_typeE, symObjAddr: 0x16F98, symBinAddr: 0x10001DBA4, symSize: 0x48 }
  - { offsetInCU: 0x42F6A, offset: 0x66FD2, size: 0x8, addend: 0x0, symName: __ZNSt3__117__compressed_pairIPNS_12basic_stringIcNS_11char_traitsIcEENS_9allocatorIcEEEEZN8nlohmann16json_abi_v3_11_310basic_jsonINS_3mapENS_6vectorES6_bxydS4_NS9_14adl_serializerENSC_IhNS4_IhEEEEvE6createIS6_JRA1_KcEEEPT_DpOT0_EUlS7_E_EC1B7v160006IRS7_RKSQ_EEOSL_OT0_, symObjAddr: 0x16FE0, symBinAddr: 0x10001DBEC, symSize: 0x3C }
  - { offsetInCU: 0x42FC0, offset: 0x67028, size: 0x8, addend: 0x0, symName: __ZNSt3__117__compressed_pairIPNS_12basic_stringIcNS_11char_traitsIcEENS_9allocatorIcEEEEZN8nlohmann16json_abi_v3_11_310basic_jsonINS_3mapENS_6vectorES6_bxydS4_NS9_14adl_serializerENSC_IhNS4_IhEEEEvE6createIS6_JRA1_KcEEEPT_DpOT0_EUlS7_E_EC2B7v160006IRS7_RKSQ_EEOSL_OT0_, symObjAddr: 0x1701C, symBinAddr: 0x10001DC28, symSize: 0x48 }
  - { offsetInCU: 0x43016, offset: 0x6707E, size: 0x8, addend: 0x0, symName: __ZNSt3__122__compressed_pair_elemIPNS_12basic_stringIcNS_11char_traitsIcEENS_9allocatorIcEEEELi0ELb0EEC2B7v160006IRS7_vEEOT_, symObjAddr: 0x17064, symBinAddr: 0x10001DC70, symSize: 0x24 }
  - { offsetInCU: 0x43056, offset: 0x670BE, size: 0x8, addend: 0x0, symName: __ZNSt3__122__compressed_pair_elemIZN8nlohmann16json_abi_v3_11_310basic_jsonINS_3mapENS_6vectorENS_12basic_stringIcNS_11char_traitsIcEENS_9allocatorIcEEEEbxydS9_NS2_14adl_serializerENS5_IhNS9_IhEEEEvE6createISB_JRA1_KcEEEPT_DpOT0_EUlPSB_E_Li1ELb0EEC2B7v160006IRKSQ_vEEOSK_, symObjAddr: 0x17088, symBinAddr: 0x10001DC94, symSize: 0x24 }
  - { offsetInCU: 0x43096, offset: 0x670FE, size: 0x8, addend: 0x0, symName: __ZNSt3__19allocatorINS_12basic_stringIcNS_11char_traitsIcEENS0_IcEEEEE9constructB7v160006IS5_JRA1_KcEEEvPT_DpOT0_, symObjAddr: 0x170AC, symBinAddr: 0x10001DCB8, symSize: 0x30 }
  - { offsetInCU: 0x430EA, offset: 0x67152, size: 0x8, addend: 0x0, symName: __ZNKSt3__117__compressed_pairIPNS_12basic_stringIcNS_11char_traitsIcEENS_9allocatorIcEEEEZN8nlohmann16json_abi_v3_11_310basic_jsonINS_3mapENS_6vectorES6_bxydS4_NS9_14adl_serializerENSC_IhNS4_IhEEEEvE6createIS6_JRA1_KcEEEPT_DpOT0_EUlS7_E_E5firstB7v160006Ev, symObjAddr: 0x170DC, symBinAddr: 0x10001DCE8, symSize: 0x24 }
  - { offsetInCU: 0x4310E, offset: 0x67176, size: 0x8, addend: 0x0, symName: __ZNKSt3__110unique_ptrINS_12basic_stringIcNS_11char_traitsIcEENS_9allocatorIcEEEEZN8nlohmann16json_abi_v3_11_310basic_jsonINS_3mapENS_6vectorES6_bxydS4_NS8_14adl_serializerENSB_IhNS4_IhEEEEvE6createIS6_JRA1_KcEEEPT_DpOT0_EUlPS6_E_EcvbB7v160006Ev, symObjAddr: 0x17100, symBinAddr: 0x10001DD0C, symSize: 0x34 }
  - { offsetInCU: 0x43132, offset: 0x6719A, size: 0x8, addend: 0x0, symName: __ZNSt3__117__compressed_pairIPNS_12basic_stringIcNS_11char_traitsIcEENS_9allocatorIcEEEEZN8nlohmann16json_abi_v3_11_310basic_jsonINS_3mapENS_6vectorES6_bxydS4_NS9_14adl_serializerENSC_IhNS4_IhEEEEvE6createIS6_JRA1_KcEEEPT_DpOT0_EUlS7_E_E5firstB7v160006Ev, symObjAddr: 0x17134, symBinAddr: 0x10001DD40, symSize: 0x24 }
  - { offsetInCU: 0x43156, offset: 0x671BE, size: 0x8, addend: 0x0, symName: __ZNSt3__110unique_ptrINS_12basic_stringIcNS_11char_traitsIcEENS_9allocatorIcEEEEZN8nlohmann16json_abi_v3_11_310basic_jsonINS_3mapENS_6vectorES6_bxydS4_NS8_14adl_serializerENSB_IhNS4_IhEEEEvE6createIS6_JRA1_KcEEEPT_DpOT0_EUlPS6_E_ED2B7v160006Ev, symObjAddr: 0x17158, symBinAddr: 0x10001DD64, symSize: 0x30 }
  - { offsetInCU: 0x4317E, offset: 0x671E6, size: 0x8, addend: 0x0, symName: __ZNSt3__110unique_ptrINS_12basic_stringIcNS_11char_traitsIcEENS_9allocatorIcEEEEZN8nlohmann16json_abi_v3_11_310basic_jsonINS_3mapENS_6vectorES6_bxydS4_NS8_14adl_serializerENSB_IhNS4_IhEEEEvE6createIS6_JRA1_KcEEEPT_DpOT0_EUlPS6_E_E5resetB7v160006ESP_, symObjAddr: 0x17188, symBinAddr: 0x10001DD94, symSize: 0x80 }
  - { offsetInCU: 0x431C1, offset: 0x67229, size: 0x8, addend: 0x0, symName: __ZNSt3__117__compressed_pairIPNS_12basic_stringIcNS_11char_traitsIcEENS_9allocatorIcEEEEZN8nlohmann16json_abi_v3_11_310basic_jsonINS_3mapENS_6vectorES6_bxydS4_NS9_14adl_serializerENSC_IhNS4_IhEEEEvE6createIS6_JRA1_KcEEEPT_DpOT0_EUlS7_E_E6secondB7v160006Ev, symObjAddr: 0x17208, symBinAddr: 0x10001DE14, symSize: 0x28 }
  - { offsetInCU: 0x431E5, offset: 0x6724D, size: 0x8, addend: 0x0, symName: __ZZN8nlohmann16json_abi_v3_11_310basic_jsonINSt3__13mapENS2_6vectorENS2_12basic_stringIcNS2_11char_traitsIcEENS2_9allocatorIcEEEEbxydS8_NS0_14adl_serializerENS4_IhNS8_IhEEEEvE6createISA_JRA1_KcEEEPT_DpOT0_ENKUlPSA_E_clESO_, symObjAddr: 0x17230, symBinAddr: 0x10001DE3C, symSize: 0x34 }
  - { offsetInCU: 0x4321C, offset: 0x67284, size: 0x8, addend: 0x0, symName: __ZNSt3__122__compressed_pair_elemIZN8nlohmann16json_abi_v3_11_310basic_jsonINS_3mapENS_6vectorENS_12basic_stringIcNS_11char_traitsIcEENS_9allocatorIcEEEEbxydS9_NS2_14adl_serializerENS5_IhNS9_IhEEEEvE6createISB_JRA1_KcEEEPT_DpOT0_EUlPSB_E_Li1ELb0EE5__getB7v160006Ev, symObjAddr: 0x17264, symBinAddr: 0x10001DE70, symSize: 0x14 }
  - { offsetInCU: 0x43240, offset: 0x672A8, size: 0x8, addend: 0x0, symName: __ZNSt3__116allocator_traitsINS_9allocatorIN8nlohmann16json_abi_v3_11_327byte_container_with_subtypeINS_6vectorIhNS1_IhEEEEEEEEE8allocateB7v160006ERS9_m, symObjAddr: 0x17278, symBinAddr: 0x10001DE84, symSize: 0x2C }
  - { offsetInCU: 0x43303, offset: 0x6736B, size: 0x8, addend: 0x0, symName: __ZNSt3__110unique_ptrIN8nlohmann16json_abi_v3_11_327byte_container_with_subtypeINS_6vectorIhNS_9allocatorIhEEEEEEZNS2_10basic_jsonINS_3mapES4_NS_12basic_stringIcNS_11char_traitsIcEENS5_IcEEEEbxydS5_NS2_14adl_serializerES7_vE6createIS8_JEEEPT_DpOT0_EUlPS8_E_EC1B7v160006ILb1EvEESO_NS_16__dependent_typeINS_27__unique_ptr_deleter_sfinaeISP_EEXT_EE15__lval_ref_typeE, symObjAddr: 0x172A4, symBinAddr: 0x10001DEB0, symSize: 0x3C }
  - { offsetInCU: 0x43352, offset: 0x673BA, size: 0x8, addend: 0x0, symName: __ZNSt3__116allocator_traitsINS_9allocatorIN8nlohmann16json_abi_v3_11_327byte_container_with_subtypeINS_6vectorIhNS1_IhEEEEEEEEE9constructB7v160006IS8_JEvEEvRS9_PT_DpOT0_, symObjAddr: 0x172E0, symBinAddr: 0x10001DEEC, symSize: 0x2C }
  - { offsetInCU: 0x43393, offset: 0x673FB, size: 0x8, addend: 0x0, symName: __ZNKSt3__110unique_ptrIN8nlohmann16json_abi_v3_11_327byte_container_with_subtypeINS_6vectorIhNS_9allocatorIhEEEEEEZNS2_10basic_jsonINS_3mapES4_NS_12basic_stringIcNS_11char_traitsIcEENS5_IcEEEEbxydS5_NS2_14adl_serializerES7_vE6createIS8_JEEEPT_DpOT0_EUlPS8_E_E3getB7v160006Ev, symObjAddr: 0x1730C, symBinAddr: 0x10001DF18, symSize: 0x28 }
  - { offsetInCU: 0x433B7, offset: 0x6741F, size: 0x8, addend: 0x0, symName: __ZNSt3__110unique_ptrIN8nlohmann16json_abi_v3_11_327byte_container_with_subtypeINS_6vectorIhNS_9allocatorIhEEEEEEZNS2_10basic_jsonINS_3mapES4_NS_12basic_stringIcNS_11char_traitsIcEENS5_IcEEEEbxydS5_NS2_14adl_serializerES7_vE6createIS8_JEEEPT_DpOT0_EUlPS8_E_E7releaseB7v160006Ev, symObjAddr: 0x17360, symBinAddr: 0x10001DF6C, symSize: 0x44 }
  - { offsetInCU: 0x433EB, offset: 0x67453, size: 0x8, addend: 0x0, symName: __ZNSt3__110unique_ptrIN8nlohmann16json_abi_v3_11_327byte_container_with_subtypeINS_6vectorIhNS_9allocatorIhEEEEEEZNS2_10basic_jsonINS_3mapES4_NS_12basic_stringIcNS_11char_traitsIcEENS5_IcEEEEbxydS5_NS2_14adl_serializerES7_vE6createIS8_JEEEPT_DpOT0_EUlPS8_E_ED1B7v160006Ev, symObjAddr: 0x173A4, symBinAddr: 0x10001DFB0, symSize: 0x2C }
  - { offsetInCU: 0x43413, offset: 0x6747B, size: 0x8, addend: 0x0, symName: __ZNSt3__19allocatorIN8nlohmann16json_abi_v3_11_327byte_container_with_subtypeINS_6vectorIhNS0_IhEEEEEEE8allocateB7v160006Em, symObjAddr: 0x173D0, symBinAddr: 0x10001DFDC, symSize: 0x5C }
  - { offsetInCU: 0x4344F, offset: 0x674B7, size: 0x8, addend: 0x0, symName: __ZNSt3__116allocator_traitsINS_9allocatorIN8nlohmann16json_abi_v3_11_327byte_container_with_subtypeINS_6vectorIhNS1_IhEEEEEEEEE8max_sizeB7v160006IS9_vEEmRKS9_, symObjAddr: 0x1742C, symBinAddr: 0x10001E038, symSize: 0x24 }
  - { offsetInCU: 0x4347C, offset: 0x674E4, size: 0x8, addend: 0x0, symName: __ZNKSt3__19allocatorIN8nlohmann16json_abi_v3_11_327byte_container_with_subtypeINS_6vectorIhNS0_IhEEEEEEE8max_sizeB7v160006Ev, symObjAddr: 0x17450, symBinAddr: 0x10001E05C, symSize: 0x18 }
  - { offsetInCU: 0x434A0, offset: 0x67508, size: 0x8, addend: 0x0, symName: __ZNSt3__110unique_ptrIN8nlohmann16json_abi_v3_11_327byte_container_with_subtypeINS_6vectorIhNS_9allocatorIhEEEEEEZNS2_10basic_jsonINS_3mapES4_NS_12basic_stringIcNS_11char_traitsIcEENS5_IcEEEEbxydS5_NS2_14adl_serializerES7_vE6createIS8_JEEEPT_DpOT0_EUlPS8_E_EC2B7v160006ILb1EvEESO_NS_16__dependent_typeINS_27__unique_ptr_deleter_sfinaeISP_EEXT_EE15__lval_ref_typeE, symObjAddr: 0x17468, symBinAddr: 0x10001E074, symSize: 0x48 }
  - { offsetInCU: 0x434EF, offset: 0x67557, size: 0x8, addend: 0x0, symName: __ZNSt3__117__compressed_pairIPN8nlohmann16json_abi_v3_11_327byte_container_with_subtypeINS_6vectorIhNS_9allocatorIhEEEEEEZNS2_10basic_jsonINS_3mapES4_NS_12basic_stringIcNS_11char_traitsIcEENS5_IcEEEEbxydS5_NS2_14adl_serializerES7_vE6createIS8_JEEEPT_DpOT0_EUlS9_E_EC1B7v160006IRS9_RKSP_EEOSK_OT0_, symObjAddr: 0x174B0, symBinAddr: 0x10001E0BC, symSize: 0x3C }
  - { offsetInCU: 0x43545, offset: 0x675AD, size: 0x8, addend: 0x0, symName: __ZNSt3__117__compressed_pairIPN8nlohmann16json_abi_v3_11_327byte_container_with_subtypeINS_6vectorIhNS_9allocatorIhEEEEEEZNS2_10basic_jsonINS_3mapES4_NS_12basic_stringIcNS_11char_traitsIcEENS5_IcEEEEbxydS5_NS2_14adl_serializerES7_vE6createIS8_JEEEPT_DpOT0_EUlS9_E_EC2B7v160006IRS9_RKSP_EEOSK_OT0_, symObjAddr: 0x174EC, symBinAddr: 0x10001E0F8, symSize: 0x48 }
  - { offsetInCU: 0x4359B, offset: 0x67603, size: 0x8, addend: 0x0, symName: __ZNSt3__122__compressed_pair_elemIPN8nlohmann16json_abi_v3_11_327byte_container_with_subtypeINS_6vectorIhNS_9allocatorIhEEEEEELi0ELb0EEC2B7v160006IRS9_vEEOT_, symObjAddr: 0x17534, symBinAddr: 0x10001E140, symSize: 0x24 }
  - { offsetInCU: 0x435DB, offset: 0x67643, size: 0x8, addend: 0x0, symName: __ZNSt3__122__compressed_pair_elemIZN8nlohmann16json_abi_v3_11_310basic_jsonINS_3mapENS_6vectorENS_12basic_stringIcNS_11char_traitsIcEENS_9allocatorIcEEEEbxydS9_NS2_14adl_serializerENS5_IhNS9_IhEEEEvE6createINS2_27byte_container_with_subtypeISE_EEJEEEPT_DpOT0_EUlPSI_E_Li1ELb0EEC2B7v160006IRKSP_vEEOSJ_, symObjAddr: 0x17558, symBinAddr: 0x10001E164, symSize: 0x24 }
  - { offsetInCU: 0x4361B, offset: 0x67683, size: 0x8, addend: 0x0, symName: __ZNSt3__19allocatorIN8nlohmann16json_abi_v3_11_327byte_container_with_subtypeINS_6vectorIhNS0_IhEEEEEEE9constructB7v160006IS7_JEEEvPT_DpOT0_, symObjAddr: 0x1757C, symBinAddr: 0x10001E188, symSize: 0x28 }
  - { offsetInCU: 0x4365B, offset: 0x676C3, size: 0x8, addend: 0x0, symName: __ZN8nlohmann16json_abi_v3_11_327byte_container_with_subtypeINSt3__16vectorIhNS2_9allocatorIhEEEEEC1Ev, symObjAddr: 0x175A4, symBinAddr: 0x10001E1B0, symSize: 0x2C }
  - { offsetInCU: 0x43683, offset: 0x676EB, size: 0x8, addend: 0x0, symName: __ZN8nlohmann16json_abi_v3_11_327byte_container_with_subtypeINSt3__16vectorIhNS2_9allocatorIhEEEEEC2Ev, symObjAddr: 0x175D0, symBinAddr: 0x10001E1DC, symSize: 0x34 }
  - { offsetInCU: 0x436AB, offset: 0x67713, size: 0x8, addend: 0x0, symName: __ZNSt3__16vectorIhNS_9allocatorIhEEEC2B7v160006Ev, symObjAddr: 0x17604, symBinAddr: 0x10001E210, symSize: 0x58 }
  - { offsetInCU: 0x436D3, offset: 0x6773B, size: 0x8, addend: 0x0, symName: __ZNSt3__117__compressed_pairIPhNS_9allocatorIhEEEC1B7v160006IDnNS_18__default_init_tagEEEOT_OT0_, symObjAddr: 0x1765C, symBinAddr: 0x10001E268, symSize: 0x3C }
  - { offsetInCU: 0x43729, offset: 0x67791, size: 0x8, addend: 0x0, symName: __ZNSt3__117__compressed_pairIPhNS_9allocatorIhEEEC2B7v160006IDnNS_18__default_init_tagEEEOT_OT0_, symObjAddr: 0x176A8, symBinAddr: 0x10001E2B4, symSize: 0x40 }
  - { offsetInCU: 0x4377F, offset: 0x677E7, size: 0x8, addend: 0x0, symName: __ZNSt3__122__compressed_pair_elemIPhLi0ELb0EEC2B7v160006IDnvEEOT_, symObjAddr: 0x176E8, symBinAddr: 0x10001E2F4, symSize: 0x1C }
  - { offsetInCU: 0x437BF, offset: 0x67827, size: 0x8, addend: 0x0, symName: __ZNSt3__122__compressed_pair_elemINS_9allocatorIhEELi1ELb1EEC2B7v160006ENS_18__default_init_tagE, symObjAddr: 0x17704, symBinAddr: 0x10001E310, symSize: 0x2C }
  - { offsetInCU: 0x437F1, offset: 0x67859, size: 0x8, addend: 0x0, symName: __ZNSt3__19allocatorIhEC2B7v160006Ev, symObjAddr: 0x17730, symBinAddr: 0x10001E33C, symSize: 0x2C }
  - { offsetInCU: 0x43819, offset: 0x67881, size: 0x8, addend: 0x0, symName: __ZNSt3__116__non_trivial_ifILb1ENS_9allocatorIhEEEC2B7v160006Ev, symObjAddr: 0x1775C, symBinAddr: 0x10001E368, symSize: 0x14 }
  - { offsetInCU: 0x43841, offset: 0x678A9, size: 0x8, addend: 0x0, symName: __ZNKSt3__117__compressed_pairIPN8nlohmann16json_abi_v3_11_327byte_container_with_subtypeINS_6vectorIhNS_9allocatorIhEEEEEEZNS2_10basic_jsonINS_3mapES4_NS_12basic_stringIcNS_11char_traitsIcEENS5_IcEEEEbxydS5_NS2_14adl_serializerES7_vE6createIS8_JEEEPT_DpOT0_EUlS9_E_E5firstB7v160006Ev, symObjAddr: 0x17770, symBinAddr: 0x10001E37C, symSize: 0x24 }
  - { offsetInCU: 0x43865, offset: 0x678CD, size: 0x8, addend: 0x0, symName: __ZNKSt3__122__compressed_pair_elemIPN8nlohmann16json_abi_v3_11_327byte_container_with_subtypeINS_6vectorIhNS_9allocatorIhEEEEEELi0ELb0EE5__getB7v160006Ev, symObjAddr: 0x17794, symBinAddr: 0x10001E3A0, symSize: 0x14 }
  - { offsetInCU: 0x43889, offset: 0x678F1, size: 0x8, addend: 0x0, symName: __ZNKSt3__110unique_ptrIN8nlohmann16json_abi_v3_11_327byte_container_with_subtypeINS_6vectorIhNS_9allocatorIhEEEEEEZNS2_10basic_jsonINS_3mapES4_NS_12basic_stringIcNS_11char_traitsIcEENS5_IcEEEEbxydS5_NS2_14adl_serializerES7_vE6createIS8_JEEEPT_DpOT0_EUlPS8_E_EcvbB7v160006Ev, symObjAddr: 0x177A8, symBinAddr: 0x10001E3B4, symSize: 0x34 }
  - { offsetInCU: 0x438AD, offset: 0x67915, size: 0x8, addend: 0x0, symName: __ZNSt3__117__compressed_pairIPN8nlohmann16json_abi_v3_11_327byte_container_with_subtypeINS_6vectorIhNS_9allocatorIhEEEEEEZNS2_10basic_jsonINS_3mapES4_NS_12basic_stringIcNS_11char_traitsIcEENS5_IcEEEEbxydS5_NS2_14adl_serializerES7_vE6createIS8_JEEEPT_DpOT0_EUlS9_E_E5firstB7v160006Ev, symObjAddr: 0x177DC, symBinAddr: 0x10001E3E8, symSize: 0x24 }
  - { offsetInCU: 0x438D1, offset: 0x67939, size: 0x8, addend: 0x0, symName: __ZNSt3__122__compressed_pair_elemIPN8nlohmann16json_abi_v3_11_327byte_container_with_subtypeINS_6vectorIhNS_9allocatorIhEEEEEELi0ELb0EE5__getB7v160006Ev, symObjAddr: 0x17800, symBinAddr: 0x10001E40C, symSize: 0x14 }
  - { offsetInCU: 0x438F5, offset: 0x6795D, size: 0x8, addend: 0x0, symName: __ZNSt3__110unique_ptrIN8nlohmann16json_abi_v3_11_327byte_container_with_subtypeINS_6vectorIhNS_9allocatorIhEEEEEEZNS2_10basic_jsonINS_3mapES4_NS_12basic_stringIcNS_11char_traitsIcEENS5_IcEEEEbxydS5_NS2_14adl_serializerES7_vE6createIS8_JEEEPT_DpOT0_EUlPS8_E_ED2B7v160006Ev, symObjAddr: 0x17814, symBinAddr: 0x10001E420, symSize: 0x30 }
  - { offsetInCU: 0x4391D, offset: 0x67985, size: 0x8, addend: 0x0, symName: __ZNSt3__110unique_ptrIN8nlohmann16json_abi_v3_11_327byte_container_with_subtypeINS_6vectorIhNS_9allocatorIhEEEEEEZNS2_10basic_jsonINS_3mapES4_NS_12basic_stringIcNS_11char_traitsIcEENS5_IcEEEEbxydS5_NS2_14adl_serializerES7_vE6createIS8_JEEEPT_DpOT0_EUlPS8_E_E5resetB7v160006ESO_, symObjAddr: 0x17844, symBinAddr: 0x10001E450, symSize: 0x80 }
  - { offsetInCU: 0x43960, offset: 0x679C8, size: 0x8, addend: 0x0, symName: __ZNSt3__117__compressed_pairIPN8nlohmann16json_abi_v3_11_327byte_container_with_subtypeINS_6vectorIhNS_9allocatorIhEEEEEEZNS2_10basic_jsonINS_3mapES4_NS_12basic_stringIcNS_11char_traitsIcEENS5_IcEEEEbxydS5_NS2_14adl_serializerES7_vE6createIS8_JEEEPT_DpOT0_EUlS9_E_E6secondB7v160006Ev, symObjAddr: 0x178C4, symBinAddr: 0x10001E4D0, symSize: 0x28 }
  - { offsetInCU: 0x43984, offset: 0x679EC, size: 0x8, addend: 0x0, symName: __ZZN8nlohmann16json_abi_v3_11_310basic_jsonINSt3__13mapENS2_6vectorENS2_12basic_stringIcNS2_11char_traitsIcEENS2_9allocatorIcEEEEbxydS8_NS0_14adl_serializerENS4_IhNS8_IhEEEEvE6createINS0_27byte_container_with_subtypeISD_EEJEEEPT_DpOT0_ENKUlPSH_E_clESN_, symObjAddr: 0x178EC, symBinAddr: 0x10001E4F8, symSize: 0x34 }
  - { offsetInCU: 0x439BB, offset: 0x67A23, size: 0x8, addend: 0x0, symName: __ZNSt3__122__compressed_pair_elemIZN8nlohmann16json_abi_v3_11_310basic_jsonINS_3mapENS_6vectorENS_12basic_stringIcNS_11char_traitsIcEENS_9allocatorIcEEEEbxydS9_NS2_14adl_serializerENS5_IhNS9_IhEEEEvE6createINS2_27byte_container_with_subtypeISE_EEJEEEPT_DpOT0_EUlPSI_E_Li1ELb0EE5__getB7v160006Ev, symObjAddr: 0x17920, symBinAddr: 0x10001E52C, symSize: 0x14 }
  - { offsetInCU: 0x439DF, offset: 0x67A47, size: 0x8, addend: 0x0, symName: __ZN8nlohmann16json_abi_v3_11_36detail9exception4nameERKNSt3__112basic_stringIcNS3_11char_traitsIcEENS3_9allocatorIcEEEEi, symObjAddr: 0x17A0C, symBinAddr: 0x10001E618, symSize: 0xA0 }
  - { offsetInCU: 0x43A11, offset: 0x67A79, size: 0x8, addend: 0x0, symName: __ZN8nlohmann16json_abi_v3_11_36detail9exception11diagnosticsEDn, symObjAddr: 0x17AAC, symBinAddr: 0x10001E6B8, symSize: 0x3C }
  - { offsetInCU: 0x43A30, offset: 0x67A98, size: 0x8, addend: 0x0, symName: __ZN8nlohmann16json_abi_v3_11_36detail11other_errorC1EiPKc, symObjAddr: 0x17B0C, symBinAddr: 0x10001E6F4, symSize: 0x3C }
  - { offsetInCU: 0x43A76, offset: 0x67ADE, size: 0x8, addend: 0x0, symName: __ZNSt3__112basic_stringIcNS_11char_traitsIcEENS_9allocatorIcEEEpLB7v160006Ec, symObjAddr: 0x18050, symBinAddr: 0x10001EBEC, symSize: 0x34 }
  - { offsetInCU: 0x43AA9, offset: 0x67B11, size: 0x8, addend: 0x0, symName: __ZN8nlohmann16json_abi_v3_11_36detail11other_errorC2EiPKc, symObjAddr: 0x180F4, symBinAddr: 0x10001EC90, symSize: 0x54 }
  - { offsetInCU: 0x43AEF, offset: 0x67B57, size: 0x8, addend: 0x0, symName: __ZN8nlohmann16json_abi_v3_11_36detail9exceptionC2EiPKc, symObjAddr: 0x18148, symBinAddr: 0x10001ECE4, symSize: 0x8C }
  - { offsetInCU: 0x43B35, offset: 0x67B9D, size: 0x8, addend: 0x0, symName: __ZN8nlohmann16json_abi_v3_11_36detail11other_errorD0Ev, symObjAddr: 0x181D4, symBinAddr: 0x10001ED70, symSize: 0x30 }
  - { offsetInCU: 0x43B61, offset: 0x67BC9, size: 0x8, addend: 0x0, symName: __ZNK8nlohmann16json_abi_v3_11_36detail9exception4whatEv, symObjAddr: 0x18204, symBinAddr: 0x10001EDA0, symSize: 0x28 }
  - { offsetInCU: 0x43B85, offset: 0x67BED, size: 0x8, addend: 0x0, symName: __ZNSt9exceptionC2B7v160006Ev, symObjAddr: 0x1822C, symBinAddr: 0x10001EDC8, symSize: 0x24 }
  - { offsetInCU: 0x43BAD, offset: 0x67C15, size: 0x8, addend: 0x0, symName: __ZN8nlohmann16json_abi_v3_11_36detail9exceptionD1Ev, symObjAddr: 0x18250, symBinAddr: 0x10001EDEC, symSize: 0x2C }
  - { offsetInCU: 0x43BD9, offset: 0x67C41, size: 0x8, addend: 0x0, symName: __ZN8nlohmann16json_abi_v3_11_36detail9exceptionD0Ev, symObjAddr: 0x1827C, symBinAddr: 0x10001EE18, symSize: 0x30 }
  - { offsetInCU: 0x43C05, offset: 0x67C6D, size: 0x8, addend: 0x0, symName: __ZN8nlohmann16json_abi_v3_11_36detail9exceptionD2Ev, symObjAddr: 0x182AC, symBinAddr: 0x10001EE48, symSize: 0x48 }
  - { offsetInCU: 0x43C31, offset: 0x67C99, size: 0x8, addend: 0x0, symName: __ZN8nlohmann16json_abi_v3_11_36detail11other_errorD2Ev, symObjAddr: 0x182F4, symBinAddr: 0x10001EE90, symSize: 0x2C }
  - { offsetInCU: 0x43C5D, offset: 0x67CC5, size: 0x8, addend: 0x0, symName: __ZN8nlohmann16json_abi_v3_11_310basic_jsonINSt3__13mapENS2_6vectorENS2_12basic_stringIcNS2_11char_traitsIcEENS2_9allocatorIcEEEEbxydS8_NS0_14adl_serializerENS4_IhNS8_IhEEEEvEixESA_, symObjAddr: 0x18320, symBinAddr: 0x10001EEBC, symSize: 0x18C }
  - { offsetInCU: 0x43CB0, offset: 0x67D18, size: 0x8, addend: 0x0, symName: __ZNSt3__13mapINS_12basic_stringIcNS_11char_traitsIcEENS_9allocatorIcEEEEN8nlohmann16json_abi_v3_11_310basic_jsonIS0_NS_6vectorES6_bxydS4_NS8_14adl_serializerENSA_IhNS4_IhEEEEvEENS_4lessIS6_EENS4_INS_4pairIKS6_SE_EEEEE7emplaceB7v160006IJS6_DnEEENSH_INS_14__map_iteratorINS_15__tree_iteratorINS_12__value_typeIS6_SE_EEPNS_11__tree_nodeISQ_PvEElEEEEbEEDpOT_, symObjAddr: 0x184AC, symBinAddr: 0x10001F048, symSize: 0x54 }
  - { offsetInCU: 0x43D02, offset: 0x67D6A, size: 0x8, addend: 0x0, symName: __ZN8nlohmann16json_abi_v3_11_310basic_jsonINSt3__13mapENS2_6vectorENS2_12basic_stringIcNS2_11char_traitsIcEENS2_9allocatorIcEEEEbxydS8_NS0_14adl_serializerENS4_IhNS8_IhEEEEvE10set_parentERSE_m, symObjAddr: 0x18500, symBinAddr: 0x10001F09C, symSize: 0x1C }
  - { offsetInCU: 0x43D44, offset: 0x67DAC, size: 0x8, addend: 0x0, symName: __ZNKSt3__114__map_iteratorINS_15__tree_iteratorINS_12__value_typeINS_12basic_stringIcNS_11char_traitsIcEENS_9allocatorIcEEEEN8nlohmann16json_abi_v3_11_310basic_jsonINS_3mapENS_6vectorES8_bxydS6_NSA_14adl_serializerENSD_IhNS6_IhEEEEvEEEEPNS_11__tree_nodeISI_PvEElEEEptB7v160006Ev, symObjAddr: 0x1851C, symBinAddr: 0x10001F0B8, symSize: 0x2C }
  - { offsetInCU: 0x43D6D, offset: 0x67DD5, size: 0x8, addend: 0x0, symName: __ZN8nlohmann16json_abi_v3_11_36detail10type_error6createIPNS0_10basic_jsonINSt3__13mapENS5_6vectorENS5_12basic_stringIcNS5_11char_traitsIcEENS5_9allocatorIcEEEEbxydSB_NS0_14adl_serializerENS7_IhNSB_IhEEEEvEELi0EEES2_iRKSD_T_, symObjAddr: 0x18548, symBinAddr: 0x10001F0E4, symSize: 0x130 }
  - { offsetInCU: 0x43DCE, offset: 0x67E36, size: 0x8, addend: 0x0, symName: __ZNK8nlohmann16json_abi_v3_11_310basic_jsonINSt3__13mapENS2_6vectorENS2_12basic_stringIcNS2_11char_traitsIcEENS2_9allocatorIcEEEEbxydS8_NS0_14adl_serializerENS4_IhNS8_IhEEEEvE9type_nameEv, symObjAddr: 0x18744, symBinAddr: 0x10001F2E0, symSize: 0xD8 }
  - { offsetInCU: 0x43DF2, offset: 0x67E5A, size: 0x8, addend: 0x0, symName: __ZN8nlohmann16json_abi_v3_11_36detail10type_errorD1Ev, symObjAddr: 0x18844, symBinAddr: 0x10001F3E0, symSize: 0x2C }
  - { offsetInCU: 0x43E1E, offset: 0x67E86, size: 0x8, addend: 0x0, symName: __ZNSt3__16__treeINS_12__value_typeINS_12basic_stringIcNS_11char_traitsIcEENS_9allocatorIcEEEEN8nlohmann16json_abi_v3_11_310basic_jsonINS_3mapENS_6vectorES7_bxydS5_NS9_14adl_serializerENSC_IhNS5_IhEEEEvEEEENS_19__map_value_compareIS7_SH_NS_4lessIS7_EELb1EEENS5_ISH_EEE16__emplace_uniqueB7v160006IS7_DnEENS_9enable_ifIXsr21__can_extract_map_keyIT_S7_NS_4pairIKS7_SG_EEEE5valueENSR_INS_15__tree_iteratorISH_PNS_11__tree_nodeISH_PvEElEEbEEE4typeEOSQ_OT0_, symObjAddr: 0x18870, symBinAddr: 0x10001F40C, symSize: 0x48 }
  - { offsetInCU: 0x43E72, offset: 0x67EDA, size: 0x8, addend: 0x0, symName: __ZNSt3__14pairINS_14__map_iteratorINS_15__tree_iteratorINS_12__value_typeINS_12basic_stringIcNS_11char_traitsIcEENS_9allocatorIcEEEEN8nlohmann16json_abi_v3_11_310basic_jsonINS_3mapENS_6vectorES9_bxydS7_NSB_14adl_serializerENSE_IhNS7_IhEEEEvEEEEPNS_11__tree_nodeISJ_PvEElEEEEbEC1B7v160006ISO_bLSL_0EEEONS0_IT_T0_EE, symObjAddr: 0x188B8, symBinAddr: 0x10001F454, symSize: 0x34 }
  - { offsetInCU: 0x43EC2, offset: 0x67F2A, size: 0x8, addend: 0x0, symName: __ZNSt3__16__treeINS_12__value_typeINS_12basic_stringIcNS_11char_traitsIcEENS_9allocatorIcEEEEN8nlohmann16json_abi_v3_11_310basic_jsonINS_3mapENS_6vectorES7_bxydS5_NS9_14adl_serializerENSC_IhNS5_IhEEEEvEEEENS_19__map_value_compareIS7_SH_NS_4lessIS7_EELb1EEENS5_ISH_EEE25__emplace_unique_key_argsIS7_JS7_DnEEENS_4pairINS_15__tree_iteratorISH_PNS_11__tree_nodeISH_PvEElEEbEERKT_DpOT0_, symObjAddr: 0x188EC, symBinAddr: 0x10001F488, symSize: 0xF8 }
  - { offsetInCU: 0x43F86, offset: 0x67FEE, size: 0x8, addend: 0x0, symName: __ZNSt3__16__treeINS_12__value_typeINS_12basic_stringIcNS_11char_traitsIcEENS_9allocatorIcEEEEN8nlohmann16json_abi_v3_11_310basic_jsonINS_3mapENS_6vectorES7_bxydS5_NS9_14adl_serializerENSC_IhNS5_IhEEEEvEEEENS_19__map_value_compareIS7_SH_NS_4lessIS7_EELb1EEENS5_ISH_EEE12__find_equalIS7_EERPNS_16__tree_node_baseIPvEERPNS_15__tree_end_nodeISS_EERKT_, symObjAddr: 0x189E4, symBinAddr: 0x10001F580, symSize: 0x184 }
  - { offsetInCU: 0x43FF3, offset: 0x6805B, size: 0x8, addend: 0x0, symName: __ZNSt3__16__treeINS_12__value_typeINS_12basic_stringIcNS_11char_traitsIcEENS_9allocatorIcEEEEN8nlohmann16json_abi_v3_11_310basic_jsonINS_3mapENS_6vectorES7_bxydS5_NS9_14adl_serializerENSC_IhNS5_IhEEEEvEEEENS_19__map_value_compareIS7_SH_NS_4lessIS7_EELb1EEENS5_ISH_EEE16__construct_nodeIJS7_DnEEENS_10unique_ptrINS_11__tree_nodeISH_PvEENS_22__tree_node_destructorINS5_ISS_EEEEEEDpOT_, symObjAddr: 0x18B68, symBinAddr: 0x10001F704, symSize: 0x110 }
  - { offsetInCU: 0x44068, offset: 0x680D0, size: 0x8, addend: 0x0, symName: __ZNSt3__16__treeINS_12__value_typeINS_12basic_stringIcNS_11char_traitsIcEENS_9allocatorIcEEEEN8nlohmann16json_abi_v3_11_310basic_jsonINS_3mapENS_6vectorES7_bxydS5_NS9_14adl_serializerENSC_IhNS5_IhEEEEvEEEENS_19__map_value_compareIS7_SH_NS_4lessIS7_EELb1EEENS5_ISH_EEE16__insert_node_atEPNS_15__tree_end_nodeIPNS_16__tree_node_baseIPvEEEERSS_SS_, symObjAddr: 0x18C78, symBinAddr: 0x10001F814, symSize: 0xCC }
  - { offsetInCU: 0x440BB, offset: 0x68123, size: 0x8, addend: 0x0, symName: __ZNKSt3__110unique_ptrINS_11__tree_nodeINS_12__value_typeINS_12basic_stringIcNS_11char_traitsIcEENS_9allocatorIcEEEEN8nlohmann16json_abi_v3_11_310basic_jsonINS_3mapENS_6vectorES8_bxydS6_NSA_14adl_serializerENSD_IhNS6_IhEEEEvEEEEPvEENS_22__tree_node_destructorINS6_ISK_EEEEE3getB7v160006Ev, symObjAddr: 0x18D44, symBinAddr: 0x10001F8E0, symSize: 0x28 }
  - { offsetInCU: 0x440DF, offset: 0x68147, size: 0x8, addend: 0x0, symName: __ZNSt3__110unique_ptrINS_11__tree_nodeINS_12__value_typeINS_12basic_stringIcNS_11char_traitsIcEENS_9allocatorIcEEEEN8nlohmann16json_abi_v3_11_310basic_jsonINS_3mapENS_6vectorES8_bxydS6_NSA_14adl_serializerENSD_IhNS6_IhEEEEvEEEEPvEENS_22__tree_node_destructorINS6_ISK_EEEEE7releaseB7v160006Ev, symObjAddr: 0x18D6C, symBinAddr: 0x10001F908, symSize: 0x44 }
  - { offsetInCU: 0x44113, offset: 0x6817B, size: 0x8, addend: 0x0, symName: __ZNSt3__110unique_ptrINS_11__tree_nodeINS_12__value_typeINS_12basic_stringIcNS_11char_traitsIcEENS_9allocatorIcEEEEN8nlohmann16json_abi_v3_11_310basic_jsonINS_3mapENS_6vectorES8_bxydS6_NSA_14adl_serializerENSD_IhNS6_IhEEEEvEEEEPvEENS_22__tree_node_destructorINS6_ISK_EEEEED1B7v160006Ev, symObjAddr: 0x18DB0, symBinAddr: 0x10001F94C, symSize: 0x2C }
  - { offsetInCU: 0x4413B, offset: 0x681A3, size: 0x8, addend: 0x0, symName: __ZNSt3__115__tree_iteratorINS_12__value_typeINS_12basic_stringIcNS_11char_traitsIcEENS_9allocatorIcEEEEN8nlohmann16json_abi_v3_11_310basic_jsonINS_3mapENS_6vectorES7_bxydS5_NS9_14adl_serializerENSC_IhNS5_IhEEEEvEEEEPNS_11__tree_nodeISH_PvEElEC1B7v160006ESL_, symObjAddr: 0x18DDC, symBinAddr: 0x10001F978, symSize: 0x34 }
  - { offsetInCU: 0x44177, offset: 0x681DF, size: 0x8, addend: 0x0, symName: __ZNSt3__14pairINS_15__tree_iteratorINS_12__value_typeINS_12basic_stringIcNS_11char_traitsIcEENS_9allocatorIcEEEEN8nlohmann16json_abi_v3_11_310basic_jsonINS_3mapENS_6vectorES8_bxydS6_NSA_14adl_serializerENSD_IhNS6_IhEEEEvEEEEPNS_11__tree_nodeISI_PvEElEEbEC1B7v160006ISN_RbLSK_0EEEOT_OT0_, symObjAddr: 0x18E10, symBinAddr: 0x10001F9AC, symSize: 0x3C }
  - { offsetInCU: 0x441D4, offset: 0x6823C, size: 0x8, addend: 0x0, symName: __ZNKSt3__16__treeINS_12__value_typeINS_12basic_stringIcNS_11char_traitsIcEENS_9allocatorIcEEEEN8nlohmann16json_abi_v3_11_310basic_jsonINS_3mapENS_6vectorES7_bxydS5_NS9_14adl_serializerENSC_IhNS5_IhEEEEvEEEENS_19__map_value_compareIS7_SH_NS_4lessIS7_EELb1EEENS5_ISH_EEE10__root_ptrEv, symObjAddr: 0x18E4C, symBinAddr: 0x10001F9E8, symSize: 0x24 }
  - { offsetInCU: 0x441F8, offset: 0x68260, size: 0x8, addend: 0x0, symName: __ZNSt3__16__treeINS_12__value_typeINS_12basic_stringIcNS_11char_traitsIcEENS_9allocatorIcEEEEN8nlohmann16json_abi_v3_11_310basic_jsonINS_3mapENS_6vectorES7_bxydS5_NS9_14adl_serializerENSC_IhNS5_IhEEEEvEEEENS_19__map_value_compareIS7_SH_NS_4lessIS7_EELb1EEENS5_ISH_EEE10value_compB7v160006Ev, symObjAddr: 0x18E70, symBinAddr: 0x10001FA0C, symSize: 0x28 }
  - { offsetInCU: 0x4421C, offset: 0x68284, size: 0x8, addend: 0x0, symName: __ZNKSt3__119__map_value_compareINS_12basic_stringIcNS_11char_traitsIcEENS_9allocatorIcEEEENS_12__value_typeIS6_N8nlohmann16json_abi_v3_11_310basic_jsonINS_3mapENS_6vectorES6_bxydS4_NS9_14adl_serializerENSC_IhNS4_IhEEEEvEEEENS_4lessIS6_EELb1EEclB7v160006ERKS6_RKSH_, symObjAddr: 0x18E98, symBinAddr: 0x10001FA34, symSize: 0x50 }
  - { offsetInCU: 0x4425E, offset: 0x682C6, size: 0x8, addend: 0x0, symName: __ZNKSt3__119__map_value_compareINS_12basic_stringIcNS_11char_traitsIcEENS_9allocatorIcEEEENS_12__value_typeIS6_N8nlohmann16json_abi_v3_11_310basic_jsonINS_3mapENS_6vectorES6_bxydS4_NS9_14adl_serializerENSC_IhNS4_IhEEEEvEEEENS_4lessIS6_EELb1EEclB7v160006ERKSH_RKS6_, symObjAddr: 0x18EE8, symBinAddr: 0x10001FA84, symSize: 0x48 }
  - { offsetInCU: 0x442A0, offset: 0x68308, size: 0x8, addend: 0x0, symName: __ZNSt3__117__compressed_pairImNS_19__map_value_compareINS_12basic_stringIcNS_11char_traitsIcEENS_9allocatorIcEEEENS_12__value_typeIS7_N8nlohmann16json_abi_v3_11_310basic_jsonINS_3mapENS_6vectorES7_bxydS5_NSA_14adl_serializerENSD_IhNS5_IhEEEEvEEEENS_4lessIS7_EELb1EEEE6secondB7v160006Ev, symObjAddr: 0x18F30, symBinAddr: 0x10001FACC, symSize: 0x24 }
  - { offsetInCU: 0x442C4, offset: 0x6832C, size: 0x8, addend: 0x0, symName: __ZNSt3__122__compressed_pair_elemINS_19__map_value_compareINS_12basic_stringIcNS_11char_traitsIcEENS_9allocatorIcEEEENS_12__value_typeIS7_N8nlohmann16json_abi_v3_11_310basic_jsonINS_3mapENS_6vectorES7_bxydS5_NSA_14adl_serializerENSD_IhNS5_IhEEEEvEEEENS_4lessIS7_EELb1EEELi1ELb1EE5__getB7v160006Ev, symObjAddr: 0x18F54, symBinAddr: 0x10001FAF0, symSize: 0x14 }
  - { offsetInCU: 0x442E8, offset: 0x68350, size: 0x8, addend: 0x0, symName: __ZNKSt3__14lessINS_12basic_stringIcNS_11char_traitsIcEENS_9allocatorIcEEEEEclB7v160006ERKS6_S9_, symObjAddr: 0x18F68, symBinAddr: 0x10001FB04, symSize: 0x34 }
  - { offsetInCU: 0x4432A, offset: 0x68392, size: 0x8, addend: 0x0, symName: __ZNKSt3__112__value_typeINS_12basic_stringIcNS_11char_traitsIcEENS_9allocatorIcEEEEN8nlohmann16json_abi_v3_11_310basic_jsonINS_3mapENS_6vectorES6_bxydS4_NS8_14adl_serializerENSB_IhNS4_IhEEEEvEEE11__get_valueB7v160006Ev, symObjAddr: 0x18F9C, symBinAddr: 0x10001FB38, symSize: 0x14 }
  - { offsetInCU: 0x4434E, offset: 0x683B6, size: 0x8, addend: 0x0, symName: __ZNKSt3__112basic_stringIcNS_11char_traitsIcEENS_9allocatorIcEEE7compareB7v160006ERKS5_, symObjAddr: 0x18FE8, symBinAddr: 0x10001FB84, symSize: 0x4C }
  - { offsetInCU: 0x44383, offset: 0x683EB, size: 0x8, addend: 0x0, symName: __ZNKSt3__112basic_stringIcNS_11char_traitsIcEENS_9allocatorIcEEE7compareINS_17basic_string_viewIcS2_EEEENS_9enable_ifIXsr33__can_be_converted_to_string_viewIcS2_T_EE5valueEiE4typeERKSA_, symObjAddr: 0x19034, symBinAddr: 0x10001FBD0, symSize: 0x12C }
  - { offsetInCU: 0x44402, offset: 0x6846A, size: 0x8, addend: 0x0, symName: __ZNKSt3__112basic_stringIcNS_11char_traitsIcEENS_9allocatorIcEEEcvNS_17basic_string_viewIcS2_EEB7v160006Ev, symObjAddr: 0x19160, symBinAddr: 0x10001FCFC, symSize: 0x50 }
  - { offsetInCU: 0x44426, offset: 0x6848E, size: 0x8, addend: 0x0, symName: __ZNKSt3__117basic_string_viewIcNS_11char_traitsIcEEE4sizeB7v160006Ev, symObjAddr: 0x191B0, symBinAddr: 0x10001FD4C, symSize: 0x18 }
  - { offsetInCU: 0x4444A, offset: 0x684B2, size: 0x8, addend: 0x0, symName: __ZNKSt3__117basic_string_viewIcNS_11char_traitsIcEEE4dataB7v160006Ev, symObjAddr: 0x191C8, symBinAddr: 0x10001FD64, symSize: 0x18 }
  - { offsetInCU: 0x4446E, offset: 0x684D6, size: 0x8, addend: 0x0, symName: __ZNSt3__117basic_string_viewIcNS_11char_traitsIcEEEC1B7v160006EPKcm, symObjAddr: 0x191E0, symBinAddr: 0x10001FD7C, symSize: 0x3C }
  - { offsetInCU: 0x444B4, offset: 0x6851C, size: 0x8, addend: 0x0, symName: __ZNSt3__117basic_string_viewIcNS_11char_traitsIcEEEC2B7v160006EPKcm, symObjAddr: 0x1921C, symBinAddr: 0x10001FDB8, symSize: 0x2C }
  - { offsetInCU: 0x444FA, offset: 0x68562, size: 0x8, addend: 0x0, symName: __ZNSt3__116allocator_traitsINS_9allocatorINS_11__tree_nodeINS_12__value_typeINS_12basic_stringIcNS_11char_traitsIcEENS1_IcEEEEN8nlohmann16json_abi_v3_11_310basic_jsonINS_3mapENS_6vectorES8_bxydS1_NSA_14adl_serializerENSD_IhNS1_IhEEEEvEEEEPvEEEEE8allocateB7v160006ERSL_m, symObjAddr: 0x19248, symBinAddr: 0x10001FDE4, symSize: 0x2C }
  - { offsetInCU: 0x4452C, offset: 0x68594, size: 0x8, addend: 0x0, symName: __ZNSt3__122__tree_node_destructorINS_9allocatorINS_11__tree_nodeINS_12__value_typeINS_12basic_stringIcNS_11char_traitsIcEENS1_IcEEEEN8nlohmann16json_abi_v3_11_310basic_jsonINS_3mapENS_6vectorES8_bxydS1_NSA_14adl_serializerENSD_IhNS1_IhEEEEvEEEEPvEEEEEC1B7v160006ERSL_b, symObjAddr: 0x19274, symBinAddr: 0x10001FE10, symSize: 0x48 }
  - { offsetInCU: 0x44577, offset: 0x685DF, size: 0x8, addend: 0x0, symName: __ZNSt3__110unique_ptrINS_11__tree_nodeINS_12__value_typeINS_12basic_stringIcNS_11char_traitsIcEENS_9allocatorIcEEEEN8nlohmann16json_abi_v3_11_310basic_jsonINS_3mapENS_6vectorES8_bxydS6_NSA_14adl_serializerENSD_IhNS6_IhEEEEvEEEEPvEENS_22__tree_node_destructorINS6_ISK_EEEEEC1B7v160006ILb1EvEEPSK_NS_16__dependent_typeINS_27__unique_ptr_deleter_sfinaeISN_EEXT_EE20__good_rval_ref_typeE, symObjAddr: 0x192BC, symBinAddr: 0x10001FE58, symSize: 0x3C }
  - { offsetInCU: 0x445C6, offset: 0x6862E, size: 0x8, addend: 0x0, symName: __ZNSt3__116allocator_traitsINS_9allocatorINS_11__tree_nodeINS_12__value_typeINS_12basic_stringIcNS_11char_traitsIcEENS1_IcEEEEN8nlohmann16json_abi_v3_11_310basic_jsonINS_3mapENS_6vectorES8_bxydS1_NSA_14adl_serializerENSD_IhNS1_IhEEEEvEEEEPvEEEEE9constructB7v160006INS_4pairIKS8_SH_EEJS8_DnEvEEvRSL_PT_DpOT0_, symObjAddr: 0x192F8, symBinAddr: 0x10001FE94, symSize: 0x3C }
  - { offsetInCU: 0x44630, offset: 0x68698, size: 0x8, addend: 0x0, symName: __ZNKSt3__110unique_ptrINS_11__tree_nodeINS_12__value_typeINS_12basic_stringIcNS_11char_traitsIcEENS_9allocatorIcEEEEN8nlohmann16json_abi_v3_11_310basic_jsonINS_3mapENS_6vectorES8_bxydS6_NSA_14adl_serializerENSD_IhNS6_IhEEEEvEEEEPvEENS_22__tree_node_destructorINS6_ISK_EEEEEptB7v160006Ev, symObjAddr: 0x19334, symBinAddr: 0x10001FED0, symSize: 0x28 }
  - { offsetInCU: 0x44654, offset: 0x686BC, size: 0x8, addend: 0x0, symName: __ZNSt3__110unique_ptrINS_11__tree_nodeINS_12__value_typeINS_12basic_stringIcNS_11char_traitsIcEENS_9allocatorIcEEEEN8nlohmann16json_abi_v3_11_310basic_jsonINS_3mapENS_6vectorES8_bxydS6_NSA_14adl_serializerENSD_IhNS6_IhEEEEvEEEEPvEENS_22__tree_node_destructorINS6_ISK_EEEEE11get_deleterB7v160006Ev, symObjAddr: 0x1935C, symBinAddr: 0x10001FEF8, symSize: 0x24 }
  - { offsetInCU: 0x44678, offset: 0x686E0, size: 0x8, addend: 0x0, symName: __ZNSt3__19allocatorINS_11__tree_nodeINS_12__value_typeINS_12basic_stringIcNS_11char_traitsIcEENS0_IcEEEEN8nlohmann16json_abi_v3_11_310basic_jsonINS_3mapENS_6vectorES7_bxydS0_NS9_14adl_serializerENSC_IhNS0_IhEEEEvEEEEPvEEE8allocateB7v160006Em, symObjAddr: 0x19380, symBinAddr: 0x10001FF1C, symSize: 0x5C }
  - { offsetInCU: 0x446B4, offset: 0x6871C, size: 0x8, addend: 0x0, symName: __ZNSt3__116allocator_traitsINS_9allocatorINS_11__tree_nodeINS_12__value_typeINS_12basic_stringIcNS_11char_traitsIcEENS1_IcEEEEN8nlohmann16json_abi_v3_11_310basic_jsonINS_3mapENS_6vectorES8_bxydS1_NSA_14adl_serializerENSD_IhNS1_IhEEEEvEEEEPvEEEEE8max_sizeB7v160006ISL_vEEmRKSL_, symObjAddr: 0x193DC, symBinAddr: 0x10001FF78, symSize: 0x24 }
  - { offsetInCU: 0x446E1, offset: 0x68749, size: 0x8, addend: 0x0, symName: __ZNKSt3__19allocatorINS_11__tree_nodeINS_12__value_typeINS_12basic_stringIcNS_11char_traitsIcEENS0_IcEEEEN8nlohmann16json_abi_v3_11_310basic_jsonINS_3mapENS_6vectorES7_bxydS0_NS9_14adl_serializerENSC_IhNS0_IhEEEEvEEEEPvEEE8max_sizeB7v160006Ev, symObjAddr: 0x19400, symBinAddr: 0x10001FF9C, symSize: 0x20 }
  - { offsetInCU: 0x44705, offset: 0x6876D, size: 0x8, addend: 0x0, symName: __ZNSt3__122__tree_node_destructorINS_9allocatorINS_11__tree_nodeINS_12__value_typeINS_12basic_stringIcNS_11char_traitsIcEENS1_IcEEEEN8nlohmann16json_abi_v3_11_310basic_jsonINS_3mapENS_6vectorES8_bxydS1_NSA_14adl_serializerENSD_IhNS1_IhEEEEvEEEEPvEEEEEC2B7v160006ERSL_b, symObjAddr: 0x19420, symBinAddr: 0x10001FFBC, symSize: 0x38 }
  - { offsetInCU: 0x4474B, offset: 0x687B3, size: 0x8, addend: 0x0, symName: __ZNSt3__110unique_ptrINS_11__tree_nodeINS_12__value_typeINS_12basic_stringIcNS_11char_traitsIcEENS_9allocatorIcEEEEN8nlohmann16json_abi_v3_11_310basic_jsonINS_3mapENS_6vectorES8_bxydS6_NSA_14adl_serializerENSD_IhNS6_IhEEEEvEEEEPvEENS_22__tree_node_destructorINS6_ISK_EEEEEC2B7v160006ILb1EvEEPSK_NS_16__dependent_typeINS_27__unique_ptr_deleter_sfinaeISN_EEXT_EE20__good_rval_ref_typeE, symObjAddr: 0x19458, symBinAddr: 0x10001FFF4, symSize: 0x48 }
  - { offsetInCU: 0x4479A, offset: 0x68802, size: 0x8, addend: 0x0, symName: __ZNSt3__117__compressed_pairIPNS_11__tree_nodeINS_12__value_typeINS_12basic_stringIcNS_11char_traitsIcEENS_9allocatorIcEEEEN8nlohmann16json_abi_v3_11_310basic_jsonINS_3mapENS_6vectorES8_bxydS6_NSA_14adl_serializerENSD_IhNS6_IhEEEEvEEEEPvEENS_22__tree_node_destructorINS6_ISK_EEEEEC1B7v160006IRSL_SO_EEOT_OT0_, symObjAddr: 0x194A0, symBinAddr: 0x10002003C, symSize: 0x3C }
  - { offsetInCU: 0x447F0, offset: 0x68858, size: 0x8, addend: 0x0, symName: __ZNSt3__117__compressed_pairIPNS_11__tree_nodeINS_12__value_typeINS_12basic_stringIcNS_11char_traitsIcEENS_9allocatorIcEEEEN8nlohmann16json_abi_v3_11_310basic_jsonINS_3mapENS_6vectorES8_bxydS6_NSA_14adl_serializerENSD_IhNS6_IhEEEEvEEEEPvEENS_22__tree_node_destructorINS6_ISK_EEEEEC2B7v160006IRSL_SO_EEOT_OT0_, symObjAddr: 0x194DC, symBinAddr: 0x100020078, symSize: 0x48 }
  - { offsetInCU: 0x44846, offset: 0x688AE, size: 0x8, addend: 0x0, symName: __ZNSt3__122__compressed_pair_elemIPNS_11__tree_nodeINS_12__value_typeINS_12basic_stringIcNS_11char_traitsIcEENS_9allocatorIcEEEEN8nlohmann16json_abi_v3_11_310basic_jsonINS_3mapENS_6vectorES8_bxydS6_NSA_14adl_serializerENSD_IhNS6_IhEEEEvEEEEPvEELi0ELb0EEC2B7v160006IRSL_vEEOT_, symObjAddr: 0x19524, symBinAddr: 0x1000200C0, symSize: 0x24 }
  - { offsetInCU: 0x44886, offset: 0x688EE, size: 0x8, addend: 0x0, symName: __ZNSt3__122__compressed_pair_elemINS_22__tree_node_destructorINS_9allocatorINS_11__tree_nodeINS_12__value_typeINS_12basic_stringIcNS_11char_traitsIcEENS2_IcEEEEN8nlohmann16json_abi_v3_11_310basic_jsonINS_3mapENS_6vectorES9_bxydS2_NSB_14adl_serializerENSE_IhNS2_IhEEEEvEEEEPvEEEEEELi1ELb0EEC2B7v160006ISN_vEEOT_, symObjAddr: 0x19548, symBinAddr: 0x1000200E4, symSize: 0x24 }
  - { offsetInCU: 0x448C6, offset: 0x6892E, size: 0x8, addend: 0x0, symName: __ZNSt3__19allocatorINS_11__tree_nodeINS_12__value_typeINS_12basic_stringIcNS_11char_traitsIcEENS0_IcEEEEN8nlohmann16json_abi_v3_11_310basic_jsonINS_3mapENS_6vectorES7_bxydS0_NS9_14adl_serializerENSC_IhNS0_IhEEEEvEEEEPvEEE9constructB7v160006INS_4pairIKS7_SG_EEJS7_DnEEEvPT_DpOT0_, symObjAddr: 0x1956C, symBinAddr: 0x100020108, symSize: 0x38 }
  - { offsetInCU: 0x4492D, offset: 0x68995, size: 0x8, addend: 0x0, symName: __ZNSt3__14pairIKNS_12basic_stringIcNS_11char_traitsIcEENS_9allocatorIcEEEEN8nlohmann16json_abi_v3_11_310basic_jsonINS_3mapENS_6vectorES6_bxydS4_NS9_14adl_serializerENSC_IhNS4_IhEEEEvEEEC1B7v160006IS6_DnLPv0EEEOT_OT0_, symObjAddr: 0x195A4, symBinAddr: 0x100020140, symSize: 0x3C }
  - { offsetInCU: 0x4498A, offset: 0x689F2, size: 0x8, addend: 0x0, symName: __ZNSt3__14pairIKNS_12basic_stringIcNS_11char_traitsIcEENS_9allocatorIcEEEEN8nlohmann16json_abi_v3_11_310basic_jsonINS_3mapENS_6vectorES6_bxydS4_NS9_14adl_serializerENSC_IhNS4_IhEEEEvEEEC2B7v160006IS6_DnLPv0EEEOT_OT0_, symObjAddr: 0x195E0, symBinAddr: 0x10002017C, symSize: 0x48 }
  - { offsetInCU: 0x449E7, offset: 0x68A4F, size: 0x8, addend: 0x0, symName: __ZNKSt3__117__compressed_pairIPNS_11__tree_nodeINS_12__value_typeINS_12basic_stringIcNS_11char_traitsIcEENS_9allocatorIcEEEEN8nlohmann16json_abi_v3_11_310basic_jsonINS_3mapENS_6vectorES8_bxydS6_NSA_14adl_serializerENSD_IhNS6_IhEEEEvEEEEPvEENS_22__tree_node_destructorINS6_ISK_EEEEE5firstB7v160006Ev, symObjAddr: 0x19628, symBinAddr: 0x1000201C4, symSize: 0x24 }
  - { offsetInCU: 0x44A0B, offset: 0x68A73, size: 0x8, addend: 0x0, symName: __ZNKSt3__122__compressed_pair_elemIPNS_11__tree_nodeINS_12__value_typeINS_12basic_stringIcNS_11char_traitsIcEENS_9allocatorIcEEEEN8nlohmann16json_abi_v3_11_310basic_jsonINS_3mapENS_6vectorES8_bxydS6_NSA_14adl_serializerENSD_IhNS6_IhEEEEvEEEEPvEELi0ELb0EE5__getB7v160006Ev, symObjAddr: 0x1964C, symBinAddr: 0x1000201E8, symSize: 0x14 }
  - { offsetInCU: 0x44A2F, offset: 0x68A97, size: 0x8, addend: 0x0, symName: __ZNSt3__117__compressed_pairIPNS_11__tree_nodeINS_12__value_typeINS_12basic_stringIcNS_11char_traitsIcEENS_9allocatorIcEEEEN8nlohmann16json_abi_v3_11_310basic_jsonINS_3mapENS_6vectorES8_bxydS6_NSA_14adl_serializerENSD_IhNS6_IhEEEEvEEEEPvEENS_22__tree_node_destructorINS6_ISK_EEEEE6secondB7v160006Ev, symObjAddr: 0x19660, symBinAddr: 0x1000201FC, symSize: 0x28 }
  - { offsetInCU: 0x44A53, offset: 0x68ABB, size: 0x8, addend: 0x0, symName: __ZNSt3__122__compressed_pair_elemINS_22__tree_node_destructorINS_9allocatorINS_11__tree_nodeINS_12__value_typeINS_12basic_stringIcNS_11char_traitsIcEENS2_IcEEEEN8nlohmann16json_abi_v3_11_310basic_jsonINS_3mapENS_6vectorES9_bxydS2_NSB_14adl_serializerENSE_IhNS2_IhEEEEvEEEEPvEEEEEELi1ELb0EE5__getB7v160006Ev, symObjAddr: 0x19688, symBinAddr: 0x100020224, symSize: 0x14 }
  - { offsetInCU: 0x44A77, offset: 0x68ADF, size: 0x8, addend: 0x0, symName: __ZNSt3__116__tree_node_baseIPvE12__set_parentB7v160006EPS2_, symObjAddr: 0x19ABC, symBinAddr: 0x100020658, symSize: 0x20 }
  - { offsetInCU: 0x44AAA, offset: 0x68B12, size: 0x8, addend: 0x0, symName: __ZNSt3__117__compressed_pairIPNS_11__tree_nodeINS_12__value_typeINS_12basic_stringIcNS_11char_traitsIcEENS_9allocatorIcEEEEN8nlohmann16json_abi_v3_11_310basic_jsonINS_3mapENS_6vectorES8_bxydS6_NSA_14adl_serializerENSD_IhNS6_IhEEEEvEEEEPvEENS_22__tree_node_destructorINS6_ISK_EEEEE5firstB7v160006Ev, symObjAddr: 0x19ADC, symBinAddr: 0x100020678, symSize: 0x24 }
  - { offsetInCU: 0x44ACE, offset: 0x68B36, size: 0x8, addend: 0x0, symName: __ZNSt3__122__compressed_pair_elemIPNS_11__tree_nodeINS_12__value_typeINS_12basic_stringIcNS_11char_traitsIcEENS_9allocatorIcEEEEN8nlohmann16json_abi_v3_11_310basic_jsonINS_3mapENS_6vectorES8_bxydS6_NSA_14adl_serializerENSD_IhNS6_IhEEEEvEEEEPvEELi0ELb0EE5__getB7v160006Ev, symObjAddr: 0x19B00, symBinAddr: 0x10002069C, symSize: 0x14 }
  - { offsetInCU: 0x44AF2, offset: 0x68B5A, size: 0x8, addend: 0x0, symName: __ZNSt3__110unique_ptrINS_11__tree_nodeINS_12__value_typeINS_12basic_stringIcNS_11char_traitsIcEENS_9allocatorIcEEEEN8nlohmann16json_abi_v3_11_310basic_jsonINS_3mapENS_6vectorES8_bxydS6_NSA_14adl_serializerENSD_IhNS6_IhEEEEvEEEEPvEENS_22__tree_node_destructorINS6_ISK_EEEEED2B7v160006Ev, symObjAddr: 0x19B14, symBinAddr: 0x1000206B0, symSize: 0x30 }
  - { offsetInCU: 0x44B1A, offset: 0x68B82, size: 0x8, addend: 0x0, symName: __ZNSt3__110unique_ptrINS_11__tree_nodeINS_12__value_typeINS_12basic_stringIcNS_11char_traitsIcEENS_9allocatorIcEEEEN8nlohmann16json_abi_v3_11_310basic_jsonINS_3mapENS_6vectorES8_bxydS6_NSA_14adl_serializerENSD_IhNS6_IhEEEEvEEEEPvEENS_22__tree_node_destructorINS6_ISK_EEEEE5resetB7v160006EPSK_, symObjAddr: 0x19B44, symBinAddr: 0x1000206E0, symSize: 0x78 }
  - { offsetInCU: 0x44B5D, offset: 0x68BC5, size: 0x8, addend: 0x0, symName: __ZNSt3__122__tree_node_destructorINS_9allocatorINS_11__tree_nodeINS_12__value_typeINS_12basic_stringIcNS_11char_traitsIcEENS1_IcEEEEN8nlohmann16json_abi_v3_11_310basic_jsonINS_3mapENS_6vectorES8_bxydS1_NSA_14adl_serializerENSD_IhNS1_IhEEEEvEEEEPvEEEEEclB7v160006EPSK_, symObjAddr: 0x19BBC, symBinAddr: 0x100020758, symSize: 0x88 }
  - { offsetInCU: 0x44B90, offset: 0x68BF8, size: 0x8, addend: 0x0, symName: __ZNSt3__115__tree_iteratorINS_12__value_typeINS_12basic_stringIcNS_11char_traitsIcEENS_9allocatorIcEEEEN8nlohmann16json_abi_v3_11_310basic_jsonINS_3mapENS_6vectorES7_bxydS5_NS9_14adl_serializerENSC_IhNS5_IhEEEEvEEEEPNS_11__tree_nodeISH_PvEElEC2B7v160006ESL_, symObjAddr: 0x19C44, symBinAddr: 0x1000207E0, symSize: 0x20 }
  - { offsetInCU: 0x44BC7, offset: 0x68C2F, size: 0x8, addend: 0x0, symName: __ZNSt3__14pairINS_15__tree_iteratorINS_12__value_typeINS_12basic_stringIcNS_11char_traitsIcEENS_9allocatorIcEEEEN8nlohmann16json_abi_v3_11_310basic_jsonINS_3mapENS_6vectorES8_bxydS6_NSA_14adl_serializerENSD_IhNS6_IhEEEEvEEEEPNS_11__tree_nodeISI_PvEElEEbEC2B7v160006ISN_RbLSK_0EEEOT_OT0_, symObjAddr: 0x19C64, symBinAddr: 0x100020800, symSize: 0x38 }
  - { offsetInCU: 0x44C24, offset: 0x68C8C, size: 0x8, addend: 0x0, symName: __ZNSt3__14pairINS_14__map_iteratorINS_15__tree_iteratorINS_12__value_typeINS_12basic_stringIcNS_11char_traitsIcEENS_9allocatorIcEEEEN8nlohmann16json_abi_v3_11_310basic_jsonINS_3mapENS_6vectorES9_bxydS7_NSB_14adl_serializerENSE_IhNS7_IhEEEEvEEEEPNS_11__tree_nodeISJ_PvEElEEEEbEC2B7v160006ISO_bLSL_0EEEONS0_IT_T0_EE, symObjAddr: 0x19C9C, symBinAddr: 0x100020838, symSize: 0x50 }
  - { offsetInCU: 0x44C74, offset: 0x68CDC, size: 0x8, addend: 0x0, symName: __ZNSt3__114pointer_traitsIPNS_4pairIKNS_12basic_stringIcNS_11char_traitsIcEENS_9allocatorIcEEEEN8nlohmann16json_abi_v3_11_310basic_jsonINS_3mapENS_6vectorES7_bxydS5_NSA_14adl_serializerENSD_IhNS5_IhEEEEvEEEEE10pointer_toB7v160006ERSI_, symObjAddr: 0x19CEC, symBinAddr: 0x100020888, symSize: 0x14 }
  - { offsetInCU: 0x44C96, offset: 0x68CFE, size: 0x8, addend: 0x0, symName: __ZN8nlohmann16json_abi_v3_11_36detail9exception11diagnosticsINS0_10basic_jsonINSt3__13mapENS5_6vectorENS5_12basic_stringIcNS5_11char_traitsIcEENS5_9allocatorIcEEEEbxydSB_NS0_14adl_serializerENS7_IhNSB_IhEEEEvEEEESD_PKT_, symObjAddr: 0x19D00, symBinAddr: 0x10002089C, symSize: 0x3C }
  - { offsetInCU: 0x44CC2, offset: 0x68D2A, size: 0x8, addend: 0x0, symName: __ZN8nlohmann16json_abi_v3_11_36detail10type_errorC1EiPKc, symObjAddr: 0x19D3C, symBinAddr: 0x1000208D8, symSize: 0x3C }
  - { offsetInCU: 0x44D08, offset: 0x68D70, size: 0x8, addend: 0x0, symName: __ZN8nlohmann16json_abi_v3_11_36detail10type_errorC2EiPKc, symObjAddr: 0x19D78, symBinAddr: 0x100020914, symSize: 0x54 }
  - { offsetInCU: 0x44D4E, offset: 0x68DB6, size: 0x8, addend: 0x0, symName: __ZN8nlohmann16json_abi_v3_11_36detail10type_errorD0Ev, symObjAddr: 0x19DCC, symBinAddr: 0x100020968, symSize: 0x30 }
  - { offsetInCU: 0x44D7A, offset: 0x68DE2, size: 0x8, addend: 0x0, symName: __ZN8nlohmann16json_abi_v3_11_36detail10type_errorD2Ev, symObjAddr: 0x19EB4, symBinAddr: 0x100020A50, symSize: 0x2C }
  - { offsetInCU: 0x44DA6, offset: 0x68E0E, size: 0x8, addend: 0x0, symName: __ZN8nlohmann16json_abi_v3_11_310basic_jsonINSt3__13mapENS2_6vectorENS2_12basic_stringIcNS2_11char_traitsIcEENS2_9allocatorIcEEEEbxydS8_NS0_14adl_serializerENS4_IhNS8_IhEEEEvEC2IRKiiLi0EEEOT_, symObjAddr: 0x19EE0, symBinAddr: 0x100020A7C, symSize: 0x5C }
  - { offsetInCU: 0x44DF6, offset: 0x68E5E, size: 0x8, addend: 0x0, symName: __ZN8nlohmann16json_abi_v3_11_310basic_jsonINSt3__13mapENS2_6vectorENS2_12basic_stringIcNS2_11char_traitsIcEENS2_9allocatorIcEEEEbxydS8_NS0_14adl_serializerENS4_IhNS8_IhEEEEvE4dataC1Ev, symObjAddr: 0x19F3C, symBinAddr: 0x100020AD8, symSize: 0x2C }
  - { offsetInCU: 0x44E1E, offset: 0x68E86, size: 0x8, addend: 0x0, symName: __ZN8nlohmann16json_abi_v3_11_314adl_serializerIivE7to_jsonINS0_10basic_jsonINSt3__13mapENS5_6vectorENS5_12basic_stringIcNS5_11char_traitsIcEENS5_9allocatorIcEEEEbxydSB_S1_NS7_IhNSB_IhEEEEvEERKiEEDTcmclL_ZNS0_12_GLOBAL__N_17to_jsonEEfp_clsr3stdE7forwardIT0_Efp0_EEcvv_EERT_OSK_, symObjAddr: 0x19F68, symBinAddr: 0x100020B04, symSize: 0x34 }
  - { offsetInCU: 0x44E62, offset: 0x68ECA, size: 0x8, addend: 0x0, symName: __ZN8nlohmann16json_abi_v3_11_310basic_jsonINSt3__13mapENS2_6vectorENS2_12basic_stringIcNS2_11char_traitsIcEENS2_9allocatorIcEEEEbxydS8_NS0_14adl_serializerENS4_IhNS8_IhEEEEvE4dataC2Ev, symObjAddr: 0x19F9C, symBinAddr: 0x100020B38, symSize: 0x1C }
  - { offsetInCU: 0x44E8F, offset: 0x68EF7, size: 0x8, addend: 0x0, symName: __ZNK8nlohmann16json_abi_v3_11_36detail10to_json_fnclINS0_10basic_jsonINSt3__13mapENS5_6vectorENS5_12basic_stringIcNS5_11char_traitsIcEENS5_9allocatorIcEEEEbxydSB_NS0_14adl_serializerENS7_IhNSB_IhEEEEvEERKiEEDTcmcl7to_jsonfp_clsr3stdE7forwardIT0_Efp0_EEcvv_EERT_OSK_, symObjAddr: 0x19FB8, symBinAddr: 0x100020B54, symSize: 0x34 }
  - { offsetInCU: 0x44EE3, offset: 0x68F4B, size: 0x8, addend: 0x0, symName: __ZN8nlohmann16json_abi_v3_11_36detail20external_constructorILNS1_7value_tE5EE9constructINS0_10basic_jsonINSt3__13mapENS7_6vectorENS7_12basic_stringIcNS7_11char_traitsIcEENS7_9allocatorIcEEEEbxydSD_NS0_14adl_serializerENS9_IhNSD_IhEEEEvEEEEvRT_NSK_16number_integer_tE, symObjAddr: 0x1A018, symBinAddr: 0x100020BB4, symSize: 0x70 }
  - { offsetInCU: 0x44F1E, offset: 0x68F86, size: 0x8, addend: 0x0, symName: __ZN8nlohmann16json_abi_v3_11_310basic_jsonINSt3__13mapENS2_6vectorENS2_12basic_stringIcNS2_11char_traitsIcEENS2_9allocatorIcEEEEbxydS8_NS0_14adl_serializerENS4_IhNS8_IhEEEEvE10json_valueC1Ex, symObjAddr: 0x1A088, symBinAddr: 0x100020C24, symSize: 0x34 }
  - { offsetInCU: 0x44F55, offset: 0x68FBD, size: 0x8, addend: 0x0, symName: __ZN8nlohmann16json_abi_v3_11_310basic_jsonINSt3__13mapENS2_6vectorENS2_12basic_stringIcNS2_11char_traitsIcEENS2_9allocatorIcEEEEbxydS8_NS0_14adl_serializerENS4_IhNS8_IhEEEEvE10json_valueC2Ex, symObjAddr: 0x1A0BC, symBinAddr: 0x100020C58, symSize: 0x20 }
  - { offsetInCU: 0x44F8C, offset: 0x68FF4, size: 0x8, addend: 0x0, symName: __ZN8nlohmann16json_abi_v3_11_310basic_jsonINSt3__13mapENS2_6vectorENS2_12basic_stringIcNS2_11char_traitsIcEENS2_9allocatorIcEEEEbxydS8_NS0_14adl_serializerENS4_IhNS8_IhEEEEvEC2IRKddLi0EEEOT_, symObjAddr: 0x1A154, symBinAddr: 0x100020CF0, symSize: 0x5C }
  - { offsetInCU: 0x44FDC, offset: 0x69044, size: 0x8, addend: 0x0, symName: __ZN8nlohmann16json_abi_v3_11_314adl_serializerIdvE7to_jsonINS0_10basic_jsonINSt3__13mapENS5_6vectorENS5_12basic_stringIcNS5_11char_traitsIcEENS5_9allocatorIcEEEEbxydSB_S1_NS7_IhNSB_IhEEEEvEERKdEEDTcmclL_ZNS0_12_GLOBAL__N_17to_jsonEEfp_clsr3stdE7forwardIT0_Efp0_EEcvv_EERT_OSK_, symObjAddr: 0x1A1B0, symBinAddr: 0x100020D4C, symSize: 0x34 }
  - { offsetInCU: 0x45020, offset: 0x69088, size: 0x8, addend: 0x0, symName: __ZNK8nlohmann16json_abi_v3_11_36detail10to_json_fnclINS0_10basic_jsonINSt3__13mapENS5_6vectorENS5_12basic_stringIcNS5_11char_traitsIcEENS5_9allocatorIcEEEEbxydSB_NS0_14adl_serializerENS7_IhNSB_IhEEEEvEERKdEEDTcmcl7to_jsonfp_clsr3stdE7forwardIT0_Efp0_EEcvv_EERT_OSK_, symObjAddr: 0x1A1E4, symBinAddr: 0x100020D80, symSize: 0x34 }
  - { offsetInCU: 0x45074, offset: 0x690DC, size: 0x8, addend: 0x0, symName: __ZN8nlohmann16json_abi_v3_11_36detail20external_constructorILNS1_7value_tE7EE9constructINS0_10basic_jsonINSt3__13mapENS7_6vectorENS7_12basic_stringIcNS7_11char_traitsIcEENS7_9allocatorIcEEEEbxydSD_NS0_14adl_serializerENS9_IhNSD_IhEEEEvEEEEvRT_NSK_14number_float_tE, symObjAddr: 0x1A244, symBinAddr: 0x100020DE0, symSize: 0x70 }
  - { offsetInCU: 0x450AF, offset: 0x69117, size: 0x8, addend: 0x0, symName: __ZN8nlohmann16json_abi_v3_11_310basic_jsonINSt3__13mapENS2_6vectorENS2_12basic_stringIcNS2_11char_traitsIcEENS2_9allocatorIcEEEEbxydS8_NS0_14adl_serializerENS4_IhNS8_IhEEEEvE10json_valueC1Ed, symObjAddr: 0x1A2B4, symBinAddr: 0x100020E50, symSize: 0x34 }
  - { offsetInCU: 0x450E6, offset: 0x6914E, size: 0x8, addend: 0x0, symName: __ZN8nlohmann16json_abi_v3_11_310basic_jsonINSt3__13mapENS2_6vectorENS2_12basic_stringIcNS2_11char_traitsIcEENS2_9allocatorIcEEEEbxydS8_NS0_14adl_serializerENS4_IhNS8_IhEEEEvE10json_valueC2Ed, symObjAddr: 0x1A2E8, symBinAddr: 0x100020E84, symSize: 0x20 }
  - { offsetInCU: 0x4511D, offset: 0x69185, size: 0x8, addend: 0x0, symName: __ZN8nlohmann16json_abi_v3_11_310basic_jsonINSt3__13mapENS2_6vectorENS2_12basic_stringIcNS2_11char_traitsIcEENS2_9allocatorIcEEEEbxydS8_NS0_14adl_serializerENS4_IhNS8_IhEEEEvEC2IRKSA_SA_Li0EEEOT_, symObjAddr: 0x1A308, symBinAddr: 0x100020EA4, symSize: 0x84 }
  - { offsetInCU: 0x4516D, offset: 0x691D5, size: 0x8, addend: 0x0, symName: __ZN8nlohmann16json_abi_v3_11_314adl_serializerINSt3__112basic_stringIcNS2_11char_traitsIcEENS2_9allocatorIcEEEEvE7to_jsonINS0_10basic_jsonINS2_3mapENS2_6vectorES8_bxydS6_S1_NSD_IhNS6_IhEEEEvEERKS8_EEDTcmclL_ZNS0_12_GLOBAL__N_17to_jsonEEfp_clsr3stdE7forwardIT0_Efp0_EEcvv_EERT_OSK_, symObjAddr: 0x1A38C, symBinAddr: 0x100020F28, symSize: 0x34 }
  - { offsetInCU: 0x451B1, offset: 0x69219, size: 0x8, addend: 0x0, symName: __ZNK8nlohmann16json_abi_v3_11_36detail10to_json_fnclINS0_10basic_jsonINSt3__13mapENS5_6vectorENS5_12basic_stringIcNS5_11char_traitsIcEENS5_9allocatorIcEEEEbxydSB_NS0_14adl_serializerENS7_IhNSB_IhEEEEvEERKSD_EEDTcmcl7to_jsonfp_clsr3stdE7forwardIT0_Efp0_EEcvv_EERT_OSK_, symObjAddr: 0x1A3C0, symBinAddr: 0x100020F5C, symSize: 0x30 }
  - { offsetInCU: 0x45205, offset: 0x6926D, size: 0x8, addend: 0x0, symName: __ZN8nlohmann16json_abi_v3_11_36detail20external_constructorILNS1_7value_tE3EE9constructINS0_10basic_jsonINSt3__13mapENS7_6vectorENS7_12basic_stringIcNS7_11char_traitsIcEENS7_9allocatorIcEEEEbxydSD_NS0_14adl_serializerENS9_IhNSD_IhEEEEvEEEEvRT_RKNSK_8string_tE, symObjAddr: 0x1A41C, symBinAddr: 0x100020FB8, symSize: 0x68 }
  - { offsetInCU: 0x45240, offset: 0x692A8, size: 0x8, addend: 0x0, symName: __ZN8nlohmann16json_abi_v3_11_310basic_jsonINSt3__13mapENS2_6vectorENS2_12basic_stringIcNS2_11char_traitsIcEENS2_9allocatorIcEEEEbxydS8_NS0_14adl_serializerENS4_IhNS8_IhEEEEvE10json_valueC1ERKSA_, symObjAddr: 0x1A484, symBinAddr: 0x100021020, symSize: 0x34 }
  - { offsetInCU: 0x45277, offset: 0x692DF, size: 0x8, addend: 0x0, symName: __ZN8nlohmann16json_abi_v3_11_310basic_jsonINSt3__13mapENS2_6vectorENS2_12basic_stringIcNS2_11char_traitsIcEENS2_9allocatorIcEEEEbxydS8_NS0_14adl_serializerENS4_IhNS8_IhEEEEvE10json_valueC2ERKSA_, symObjAddr: 0x1A4B8, symBinAddr: 0x100021054, symSize: 0x3C }
  - { offsetInCU: 0x452AE, offset: 0x69316, size: 0x8, addend: 0x0, symName: __ZN8nlohmann16json_abi_v3_11_310basic_jsonINSt3__13mapENS2_6vectorENS2_12basic_stringIcNS2_11char_traitsIcEENS2_9allocatorIcEEEEbxydS8_NS0_14adl_serializerENS4_IhNS8_IhEEEEvE6createISA_JRKSA_EEEPT_DpOT0_, symObjAddr: 0x1A4F4, symBinAddr: 0x100021090, symSize: 0xF4 }
  - { offsetInCU: 0x453A7, offset: 0x6940F, size: 0x8, addend: 0x0, symName: __ZNSt3__110unique_ptrINS_12basic_stringIcNS_11char_traitsIcEENS_9allocatorIcEEEEZN8nlohmann16json_abi_v3_11_310basic_jsonINS_3mapENS_6vectorES6_bxydS4_NS8_14adl_serializerENSB_IhNS4_IhEEEEvE6createIS6_JRKS6_EEEPT_DpOT0_EUlPS6_E_EC1B7v160006ILb1EvEESO_NS_16__dependent_typeINS_27__unique_ptr_deleter_sfinaeISP_EEXT_EE15__lval_ref_typeE, symObjAddr: 0x1A5E8, symBinAddr: 0x100021184, symSize: 0x3C }
  - { offsetInCU: 0x453F6, offset: 0x6945E, size: 0x8, addend: 0x0, symName: __ZNSt3__116allocator_traitsINS_9allocatorINS_12basic_stringIcNS_11char_traitsIcEENS1_IcEEEEEEE9constructB7v160006IS6_JRKS6_EvEEvRS7_PT_DpOT0_, symObjAddr: 0x1A624, symBinAddr: 0x1000211C0, symSize: 0x34 }
  - { offsetInCU: 0x4544C, offset: 0x694B4, size: 0x8, addend: 0x0, symName: __ZNKSt3__110unique_ptrINS_12basic_stringIcNS_11char_traitsIcEENS_9allocatorIcEEEEZN8nlohmann16json_abi_v3_11_310basic_jsonINS_3mapENS_6vectorES6_bxydS4_NS8_14adl_serializerENSB_IhNS4_IhEEEEvE6createIS6_JRKS6_EEEPT_DpOT0_EUlPS6_E_E3getB7v160006Ev, symObjAddr: 0x1A658, symBinAddr: 0x1000211F4, symSize: 0x28 }
  - { offsetInCU: 0x45470, offset: 0x694D8, size: 0x8, addend: 0x0, symName: __ZNSt3__110unique_ptrINS_12basic_stringIcNS_11char_traitsIcEENS_9allocatorIcEEEEZN8nlohmann16json_abi_v3_11_310basic_jsonINS_3mapENS_6vectorES6_bxydS4_NS8_14adl_serializerENSB_IhNS4_IhEEEEvE6createIS6_JRKS6_EEEPT_DpOT0_EUlPS6_E_E7releaseB7v160006Ev, symObjAddr: 0x1A6AC, symBinAddr: 0x100021248, symSize: 0x44 }
  - { offsetInCU: 0x454A4, offset: 0x6950C, size: 0x8, addend: 0x0, symName: __ZNSt3__110unique_ptrINS_12basic_stringIcNS_11char_traitsIcEENS_9allocatorIcEEEEZN8nlohmann16json_abi_v3_11_310basic_jsonINS_3mapENS_6vectorES6_bxydS4_NS8_14adl_serializerENSB_IhNS4_IhEEEEvE6createIS6_JRKS6_EEEPT_DpOT0_EUlPS6_E_ED1B7v160006Ev, symObjAddr: 0x1A6F0, symBinAddr: 0x10002128C, symSize: 0x2C }
  - { offsetInCU: 0x454CC, offset: 0x69534, size: 0x8, addend: 0x0, symName: __ZNSt3__110unique_ptrINS_12basic_stringIcNS_11char_traitsIcEENS_9allocatorIcEEEEZN8nlohmann16json_abi_v3_11_310basic_jsonINS_3mapENS_6vectorES6_bxydS4_NS8_14adl_serializerENSB_IhNS4_IhEEEEvE6createIS6_JRKS6_EEEPT_DpOT0_EUlPS6_E_EC2B7v160006ILb1EvEESO_NS_16__dependent_typeINS_27__unique_ptr_deleter_sfinaeISP_EEXT_EE15__lval_ref_typeE, symObjAddr: 0x1A71C, symBinAddr: 0x1000212B8, symSize: 0x48 }
